******************************************************************************
            TI ARM Clang Linker Unix v4.0.3                    
******************************************************************************
>> Linked Mon Sep 15 15:34:58 2025

OUTPUT FILE NAME:   <sbl_jtag_uniflash.debug.out>
ENTRY POINT SYMBOL: "_vectors"  address: 70002000


MEMORY CONFIGURATION

         name            origin    length      used     unused   attr    fill
----------------------  --------  ---------  --------  --------  ----  --------
  R5F_VECS              00000000   00000100  00000000  00000100  RWIX
  R5F_TCMA              00000100   00007f00  00000000  00007f00  RWIX
  R5F_TCMB0             00080000   00008000  00000000  00008000  RWIX
  MSRAM_VECS            70002000   00000100  00000040  000000c0  RWIX
  MSRAM_0               70002100   0003df00  00032290  0000bc70  RWIX
  MSRAM_1               700c0000   001c0000  001c0000  00000000  RWIX


SEGMENT ALLOCATION MAP

run origin  load origin   length   init length attrs members
----------  ----------- ---------- ----------- ----- -------
70002000    70002000    00000040   00000040    r-x
  70002000    70002000    00000040   00000040    r-x .sbl_init_code
70002100    70002100    00019130   00019130    r-x
  70002100    70002100    000178c0   000178c0    r-x .text
  700199c0    700199c0    00000e50   00000e50    r-x .text.hwi
  7001a810    7001a810    000004a0   000004a0    r-x .text.cache
  7001acb0    7001acb0    000003c0   000003c0    r-x .text.mpu
  7001b070    7001b070    000001c0   000001c0    r-x .text.boot
7001b230    7001b230    000009e8   000009e8    rw-
  7001b230    7001b230    000009e8   000009e8    rw- .data
7001bc20    7001bc20    00001170   00001170    r--
  7001bc20    7001bc20    00001170   00001170    r-- .rodata
7001ce00    7001ce00    00017600   00000000    rw-
  7001ce00    7001ce00    00009300   00000000    rw- .bss
  70026100    70026100    00008000   00000000    rw- .sysmem
  7002e100    7002e100    00004000   00000000    rw- .stack
  70032100    70032100    00001000   00000000    rw- .irqstack
  70033100    70033100    00000100   00000000    rw- .fiqstack
  70033200    70033200    00001000   00000000    rw- .svcstack
  70034200    70034200    00000100   00000000    rw- .abortstack
  70034300    70034300    00000100   00000000    rw- .undefinedstack


SECTION ALLOCATION MAP

 output                                  attributes/
section   page    origin      length       input sections
--------  ----  ----------  ----------   ----------------
.sbl_init_code 
*          0    70002000    00000040     
                  70002000    00000040     nortos.am263px.r5f.ti-arm-clang.debug.lib : HwiP_armv7r_vectors_nortos_asm.obj (.vectors)

.text      0    70002100    000178c0     
                  70002100    00000b7a     drivers.am263px.r5f.ti-arm-clang.nortos.debug.lib : ospi_phy_am26x_lld.obj (.text.OSPI_lld_phyFindOTP1)
                  70002c7a    00000002     --HOLE-- [fill = 0]
                  70002c7c    00000004     libclang_rt.builtins.a : aeabi_div0.c.obj (.text.__aeabi_idiv0)
                  70002c80    00000a34     nortos.am263px.r5f.ti-arm-clang.debug.lib : printf.obj (.text._vsnprintf)
                  700036b4    0000000c     libc.a : aeabi_portable.c.obj (.text.__aeabi_errno_addr)
                  700036c0    000007a4     drivers.am263px.r5f.ti-arm-clang.nortos.debug.lib : i2c_v1_lld.obj (.text.I2C_lld_primeTransferPoll)
                  70003e64    0000000c     libclang_rt.builtins.a : aeabi_memset.S.obj (.text.__aeabi_memclr)
                  70003e70    00000678     drivers.am263px.r5f.ti-arm-clang.nortos.debug.lib : soc_rcm.obj (.text.SOC_rcmGetClkSrcAndDivReg)
                  700044e8    00000008     libsysbm.a : hostexit.c.obj (.text.HOSTexit)
                  700044f0    00000638     drivers.am263px.r5f.ti-arm-clang.nortos.debug.lib : soc_rcm.obj (.text.SOC_rcmEnablePeripheralClock)
                  70004b28    00000008     libc.a : exit.c.obj (.text:abort)
                  70004b30    000005e2     nortos.am263px.r5f.ti-arm-clang.debug.lib : printf.obj (.text._ftoa)
                  70005112    00000002     --HOLE-- [fill = 0]
                  70005114    0000000c     libc.a : memory.c.obj (.text.malloc)
                  70005120    000004b0     nortos.am263px.r5f.ti-arm-clang.debug.lib : printf.obj (.text._etoa)
                  700055d0    00000400     drivers.am263px.r5f.ti-arm-clang.nortos.debug.lib : uart_v0.obj (.text.UART_open)
                  700059d0    000003ea     main.obj (.text.sbl_jtag_uniflash_load_file)
                  70005dba    00000002     --HOLE-- [fill = 0]
                  70005dbc    00000004     libclang_rt.builtins.a : aeabi_div0.c.obj (.text.__aeabi_ldiv0)
                  70005dc0    00000390     libc.a : strcmp32.S.obj (.text:strcmp)
                  70006150    00000364     board.am263px.r5f.ti-arm-clang.nortos.debug.lib : flash_nor_ospi.obj (.text.Flash_setQeBit)
                  700064b4    0000000c     nortos.am263px.r5f.ti-arm-clang.debug.lib : CpuId_armv7r_asm.obj (.text)
                  700064c0    0000034a     drivers.am263px.r5f.ti-arm-clang.nortos.debug.lib : ospi_v0.obj (.text.OSPI_open)
                  7000680a    00000002     --HOLE-- [fill = 0]
                  7000680c    00000004     libclang_rt.builtins.a : aeabi_memcpy.S.obj (.text.__aeabi_memcpy)
                  70006810    00000348     drivers.am263px.r5f.ti-arm-clang.nortos.debug.lib : i2c_v1.obj (.text.I2C_open)
                  70006b58    00000004     libc.a : _lock.c.obj (.text._nop)
                  70006b5c    00000004            : fseek.c.obj (.text.fseek)
                  70006b60    00000338     drivers.am263px.r5f.ti-arm-clang.nortos.debug.lib : bootloader_uniflash.obj (.text.Bootloader_uniflashProcessFlashCommands)
                  70006e98    00000004     libc.a : ftell.c.obj (.text.ftell)
                  70006e9c    00000004     libsysbm.a : remove.c.obj (.text.remove)
                  70006ea0    00000336     drivers.am263px.r5f.ti-arm-clang.nortos.debug.lib : edma.obj (.text.EDMA_initialize)
                  700071d6    0000000a     --HOLE-- [fill = 0]
                  700071e0    00000336                                                       : i2c_v1_lld.obj (.text.I2C_lld_targetIsr)
                  70007516    0000000a     --HOLE-- [fill = 0]
                  70007520    00000302                                                       : soc.obj (.text.SOC_virtToPhy)
                  70007822    0000000e     --HOLE-- [fill = 0]
                  70007830    000002e6                                                       : ospi_edma_lld.obj (.text.OSPI_edmaCopy)
                  70007b16    0000000a     --HOLE-- [fill = 0]
                  70007b20    000002d2     board.am263px.r5f.ti-arm-clang.nortos.debug.lib : flash_nor_ospi.obj (.text.Flash_norOspiOpen)
                  70007df2    0000000e     --HOLE-- [fill = 0]
                  70007e00    000002ba     drivers.am263px.r5f.ti-arm-clang.nortos.debug.lib : i2c_v1_lld.obj (.text.I2C_lld_controllerIsr)
                  700080ba    00000006     --HOLE-- [fill = 0]
                  700080c0    00000294                                                       : ospi_v0_lld.obj (.text.OSPI_programInstance)
                  70008354    0000000c     --HOLE-- [fill = 0]
                  70008360    0000027e                                                       : uart_dma_edma.obj (.text.UART_edmaChInit)
                  700085de    00000002     --HOLE-- [fill = 0]
                  700085e0    0000026c     libc.a : fgets.c.obj (.text._dofgets)
                  7000884c    00000004     --HOLE-- [fill = 0]
                  70008850    00000250     drivers.am263px.r5f.ti-arm-clang.nortos.debug.lib : edma.obj (.text.Alloc_resource)
                  70008aa0    00000250     board.am263px.r5f.ti-arm-clang.nortos.debug.lib : flash_nor_ospi.obj (.text.Flash_set888mode)
                  70008cf0    00000242     drivers.am263px.r5f.ti-arm-clang.nortos.debug.lib : uart_v0_lld.obj (.text.UART_fifoConfig)
                  70008f32    0000000e     --HOLE-- [fill = 0]
                  70008f40    0000023e     nortos.am263px.r5f.ti-arm-clang.debug.lib : printf.obj (.text._ntoa_format)
                  7000917e    00000002     --HOLE-- [fill = 0]
                  70009180    0000023c     drivers.am263px.r5f.ti-arm-clang.nortos.debug.lib : edma.obj (.text.EDMA_open)
                  700093bc    00000004     --HOLE-- [fill = 0]
                  700093c0    00000226                                                       : uart_dma_edma.obj (.text.UART_lld_dmaDeInit)
                  700095e6    0000000a     --HOLE-- [fill = 0]
                  700095f0    00000218                                                       : ospi_v0_lld.obj (.text.OSPI_lld_isr)
                  70009808    00000008     --HOLE-- [fill = 0]
                  70009810    00000212                                                       : ospi_edma_lld.obj (.text.OSPI_edmaInit)
                  70009a22    00000002     --HOLE-- [fill = 0]
                  70009a24    000001f8     libc.a : strtol.c.obj (.text.strtol)
                  70009c1c    00000004     --HOLE-- [fill = 0]
                  70009c20    000001e8     drivers.am263px.r5f.ti-arm-clang.nortos.debug.lib : i2c_v1.obj (.text.I2C_transfer)
                  70009e08    00000008     --HOLE-- [fill = 0]
                  70009e10    000001d6     nortos.am263px.r5f.ti-arm-clang.debug.lib : TimerP_rti_priv.obj (.text.TimerP_setupPriv)
                  70009fe6    00000002     --HOLE-- [fill = 0]
                  70009fe8    000001d0     libclang_rt.builtins.a : udivsi3.S.obj (.text.__udivsi3)
                  7000a1b8    00000008     --HOLE-- [fill = 0]
                  7000a1c0    000001ca     drivers.am263px.r5f.ti-arm-clang.nortos.debug.lib : ospi_v0_lld.obj (.text.OSPI_lld_writeIndirect)
                  7000a38a    00000002     --HOLE-- [fill = 0]
                  7000a38c    000001c0     libc.a : fopen.c.obj (.text._openfile)
                  7000a54c    00000004     --HOLE-- [fill = 0]
                  7000a550    000001b6     drivers.am263px.r5f.ti-arm-clang.nortos.debug.lib : ospi_v0_lld.obj (.text.OSPI_lld_readDirectDma)
                  7000a706    0000000a     --HOLE-- [fill = 0]
                  7000a710    000001aa                                                       : uart_dma_edma.obj (.text.UART_lld_dmaWrite)
                  7000a8ba    00000006     --HOLE-- [fill = 0]
                  7000a8c0    000001a8                                                       : uart_v0.obj (.text.UART_close)
                  7000aa68    000001a8     libc.a : memory.c.obj (.text.free)
                  7000ac10    000001a4     middleware.am263px.r5f.ti-arm-clang.nortos.debug.lib : tielfup32.obj (.text.ELFUP_update)
                  7000adb4    000001a4     libc.a : memory.c.obj (.text.aligned_alloc)
                  7000af58    00000008     --HOLE-- [fill = 0]
                  7000af60    000001a0     drivers.am263px.r5f.ti-arm-clang.nortos.debug.lib : edma.obj (.text.EDMA_errorIsrFxn)
                  7000b100    0000019e                                                       : uart_v0.obj (.text.UART_write)
                  7000b29e    00000002     --HOLE-- [fill = 0]
                  7000b2a0    00000198                                                       : edma.obj (.text.EDMA_transferCompletionMasterIsrFxn)
                  7000b438    00000008     --HOLE-- [fill = 0]
                  7000b440    00000198                                                       : ospi_v0_lld.obj (.text.OSPI_lld_readCmd)
                  7000b5d8    00000008     --HOLE-- [fill = 0]
                  7000b5e0    00000198                                                       : uart_v0_lld.obj (.text.UART_lld_controllerIsr)
                  7000b778    00000008     --HOLE-- [fill = 0]
                  7000b780    00000194                                                       : bootloader_uniflash_mcelf.obj (.text.MCELF_flashVerifyXIPFile)
                  7000b914    0000000c     --HOLE-- [fill = 0]
                  7000b920    00000186                                                       : bootloader_uniflash_common.obj (.text.Bootloader_uniflashFlashFile)
                  7000baa6    0000000a     --HOLE-- [fill = 0]
                  7000bab0    00000184     board.am263px.r5f.ti-arm-clang.nortos.debug.lib : flash_nor_ospi.obj (.text.Flash_set444mode)
                  7000bc34    0000000c     --HOLE-- [fill = 0]
                  7000bc40    00000182     drivers.am263px.r5f.ti-arm-clang.nortos.debug.lib : bootloader_uniflash_common.obj (.text.Bootloader_uniflashFlashErase)
                  7000bdc2    0000000e     --HOLE-- [fill = 0]
                  7000bdd0    00000176                                                       : i2c_v1.obj (.text.I2C_primeTransfer)
                  7000bf46    0000000a     --HOLE-- [fill = 0]
                  7000bf50    00000176     main.obj (.text.main)
                  7000c0c6    0000000a     --HOLE-- [fill = 0]
                  7000c0d0    00000172     board.am263px.r5f.ti-arm-clang.nortos.debug.lib : eeprom_cat24m.obj (.text.EEPROM_CAT24M_write)
                  7000c242    0000000e     --HOLE-- [fill = 0]
                  7000c250    00000166     drivers.am263px.r5f.ti-arm-clang.nortos.debug.lib : i2c_v1_lld.obj (.text.I2C_lld_primeTransferIntr)
                  7000c3b6    0000000a     --HOLE-- [fill = 0]
                  7000c3c0    00000166                                                       : ospi_v0_lld.obj (.text.OSPI_lld_writeCmd)
                  7000c526    0000000a     --HOLE-- [fill = 0]
                  7000c530    00000162                                                       : edma.obj (.text.EDMA_unregisterIntr)
                  7000c692    0000000e     --HOLE-- [fill = 0]
                  7000c6a0    00000160                                                       : i2c_v1_lld.obj (.text.I2C_lld_init)
                  7000c800    00000158                                                       : soc.obj (.text.SOC_controlModuleUnlockMMR)
                  7000c958    00000008     --HOLE-- [fill = 0]
                  7000c960    00000152                                                       : uart_v0_lld.obj (.text.UART_lld_initDma)
                  7000cab2    0000000e     --HOLE-- [fill = 0]
                  7000cac0    00000148                                                       : ospi_v0_lld.obj (.text.OSPI_lld_initDma)
                  7000cc08    00000008     --HOLE-- [fill = 0]
                  7000cc10    00000144     board.am263px.r5f.ti-arm-clang.nortos.debug.lib : flash_nor_ospi.obj (.text.Flash_norOspiSetProtocol)
                  7000cd54    00000144     libc.a : setvbuf.c.obj (.text.setvbuf)
                  7000ce98    00000008     --HOLE-- [fill = 0]
                  7000cea0    00000142     drivers.am263px.r5f.ti-arm-clang.nortos.debug.lib : ospi_v0_lld.obj (.text.OSPI_flashExecCmd)
                  7000cfe2    0000000e     --HOLE-- [fill = 0]
                  7000cff0    00000140     board.am263px.r5f.ti-arm-clang.nortos.debug.lib : flash_nor_ospi.obj (.text.Flash_norOspiReadId)
                  7000d130    0000013a     drivers.am263px.r5f.ti-arm-clang.nortos.debug.lib : edma.obj (.text.EDMA_isDmaChannelAllocated)
                  7000d26a    00000006     --HOLE-- [fill = 0]
                  7000d270    0000013a                                                       : i2c_v1_lld.obj (.text.I2C_lld_mem_write)
                  7000d3aa    00000006     --HOLE-- [fill = 0]
                  7000d3b0    00000138     nortos.am263px.r5f.ti-arm-clang.debug.lib : printf.obj (.text._ntoa_long_long)
                  7000d4e8    00000138     libsysbm.a : open.c.obj (.text.open)
                  7000d620    00000136     nortos.am263px.r5f.ti-arm-clang.debug.lib : ClockP_nortos_r5.obj (.text.ClockP_init)
                  7000d756    0000000a     --HOLE-- [fill = 0]
                  7000d760    00000136     drivers.am263px.r5f.ti-arm-clang.nortos.debug.lib : uart_v0_lld.obj (.text.UART_procLineStatusErr)
                  7000d896    0000000a     --HOLE-- [fill = 0]
                  7000d8a0    00000134                                                       : edma.obj (.text.EDMA_registerIntr)
                  7000d9d4    0000000c     --HOLE-- [fill = 0]
                  7000d9e0    00000134                                                       : uart_v0_lld.obj (.text.UART_writePolling)
                  7000db14    0000000c     --HOLE-- [fill = 0]
                  7000db20    0000012e     board.am263px.r5f.ti-arm-clang.nortos.debug.lib : flash_nor_ospi.obj (.text.Flash_norOspiWaitReady)
                  7000dc4e    00000002     --HOLE-- [fill = 0]
                  7000dc50    0000012c     drivers.am263px.r5f.ti-arm-clang.nortos.debug.lib : i2c_v1_lld.obj (.text.I2C_lld_mem_read)
                  7000dd7c    00000004     --HOLE-- [fill = 0]
                  7000dd80    0000012c                                                       : uart_v0_lld.obj (.text.UART_lld_init)
                  7000deac    00000004     --HOLE-- [fill = 0]
                  7000deb0    00000128                                                       : i2c_v1_lld.obj (.text.I2C_lld_mem_writeIntr)
                  7000dfd8    00000008     --HOLE-- [fill = 0]
                  7000dfe0    00000126     board.am263px.r5f.ti-arm-clang.nortos.debug.lib : flash_nor_ospi.obj (.text.Flash_norOspiWrite)
                  7000e106    0000000a     --HOLE-- [fill = 0]
                  7000e110    00000126     drivers.am263px.r5f.ti-arm-clang.nortos.debug.lib : soc.obj (.text.SOC_controlModuleLockMMR)
                  7000e236    0000000a     --HOLE-- [fill = 0]
                  7000e240    00000122                                                       : i2c_v1.obj (.text.I2C_mem_primeTransfer)
                  7000e362    0000000e     --HOLE-- [fill = 0]
                  7000e370    00000120                                                       : soc_rcm.obj (.text.SOC_rcmGetPeripheralClockFrequency)
                  7000e490    00000120     board.am263px.r5f.ti-arm-clang.nortos.debug.lib : ioexp_tca6416.obj (.text.TCA6416_setOutput)
                  7000e5b0    00000120                                                     : ioexp_tca6424.obj (.text.TCA6424_setOutput)
                  7000e6d0    0000011e                                                     : ioexp_tca6416.obj (.text.TCA6416_config)
                  7000e7ee    00000002     --HOLE-- [fill = 0]
                  7000e7f0    0000011e                                                     : ioexp_tca6424.obj (.text.TCA6424_config)
                  7000e90e    00000002     --HOLE-- [fill = 0]
                  7000e910    0000011c                                                     : flash_nor_ospi.obj (.text.Flash_norOspiReset)
                  7000ea2c    00000004     --HOLE-- [fill = 0]
                  7000ea30    0000011c     drivers.am263px.r5f.ti-arm-clang.nortos.debug.lib : uart_dma_edma.obj (.text.UART_lld_dmaRead)
                  7000eb4c    00000004     --HOLE-- [fill = 0]
                  7000eb50    0000011a                                                       : i2c_v1_lld.obj (.text.I2C_lld_mem_readIntr)
                  7000ec6a    00000002     --HOLE-- [fill = 0]
                  7000ec6c    00000118     libclang_rt.builtins.a : udivmoddi4.S.obj (.text)
                  7000ed84    0000000c     --HOLE-- [fill = 0]
                  7000ed90    00000116     drivers.am263px.r5f.ti-arm-clang.nortos.debug.lib : edma.obj (.text.EDMA_isTccAllocated)
                  7000eea6    0000000a     --HOLE-- [fill = 0]
                  7000eeb0    00000116                                                       : ospi_v0_lld.obj (.text.OSPI_lld_init)
                  7000efc6    0000000a     --HOLE-- [fill = 0]
                  7000efd0    00000116                                                       : uart_v0_lld.obj (.text.UART_divisorLatchWrite)
                  7000f0e6    0000000a     --HOLE-- [fill = 0]
                  7000f0f0    00000114     nortos.am263px.r5f.ti-arm-clang.debug.lib : printf.obj (.text._ntoa_long)
                  7000f204    0000000c     --HOLE-- [fill = 0]
                  7000f210    0000010e     drivers.am263px.r5f.ti-arm-clang.nortos.debug.lib : soc_rcm.obj (.text.SOC_rcmADPLLJGetFOut)
                  7000f31e    00000002     --HOLE-- [fill = 0]
                  7000f320    00000104                                                       : uart_v0_lld.obj (.text.UART_configInstance)
                  7000f424    0000000c     --HOLE-- [fill = 0]
                  7000f430    00000102                                                       : i2c_v1.obj (.text.I2C_close)
                  7000f532    0000000e     --HOLE-- [fill = 0]
                  7000f540    00000102     nortos.am263px.r5f.ti-arm-clang.debug.lib : SemaphoreP_nortos.obj (.text.SemaphoreP_pend)
                  7000f642    0000000e     --HOLE-- [fill = 0]
                  7000f650    00000100     board.am263px.r5f.ti-arm-clang.nortos.debug.lib : flash_nor_ospi.obj (.text.Flash_norOspiErase)
                  7000f750    00000100                                                     : flash_nor_ospi.obj (.text.Flash_norOspiEraseSector)
                  7000f850    00000100     drivers.am263px.r5f.ti-arm-clang.nortos.debug.lib : ospi_v0_lld.obj (.text.OSPI_lld_setProtocol)
                  7000f950    000000fe                                                       : bootloader_uniflash_common.obj (.text.Bootloader_uniflashFlashFileSector)
                  7000fa4e    00000002     --HOLE-- [fill = 0]
                  7000fa50    000000fa                                                       : edma.obj (.text.EDMA_clearCcErrors)
                  7000fb4a    00000002     --HOLE-- [fill = 0]
                  7000fb4c    000000f0     libc.a : fputc.c.obj (.text.fputc)
                  7000fc3c    00000004     --HOLE-- [fill = 0]
                  7000fc40    000000ee     board.am263px.r5f.ti-arm-clang.nortos.debug.lib : flash_nor_ospi.obj (.text.Flash_norOspiSet4ByteAddrMode)
                  7000fd2e    00000002     --HOLE-- [fill = 0]
                  7000fd30    000000e8     libc.a : _bufread.c.obj (.text.__TI_buff_read)
                  7000fe18    00000008     --HOLE-- [fill = 0]
                  7000fe20    000000e6     drivers.am263px.r5f.ti-arm-clang.nortos.debug.lib : ospi_edma_lld.obj (.text.OSPI_edmaDeInit)
                  7000ff06    0000000a     --HOLE-- [fill = 0]
                  7000ff10    000000e6                                                       : soc_rcm.obj (.text.SOC_rcmGetCoreFout)
                  7000fff6    0000000a     --HOLE-- [fill = 0]
                  70010000    000000e6                                                       : soc_rcm.obj (.text.SOC_rcmGetPerFout)
                  700100e6    0000000a     --HOLE-- [fill = 0]
                  700100f0    000000e4                                                       : edma.obj (.text.EDMA_freeChannelRegion)
                  700101d4    0000000c     --HOLE-- [fill = 0]
                  700101e0    000000e2                                                       : bootloader_uniflash_common.obj (.text.Bootloader_uniflashFlashVerifyFile)
                  700102c2    0000000e     --HOLE-- [fill = 0]
                  700102d0    000000e2                                                       : edma.obj (.text.EDMA_freeParam)
                  700103b2    0000000e     --HOLE-- [fill = 0]
                  700103c0    000000e0                                                       : edma.obj (.text.EDMA_freeDmaChannel)
                  700104a0    000000e0                                                       : edma.obj (.text.EDMA_freeTcc)
                  70010580    000000de                                                       : uart_v0_lld.obj (.text.UART_intrEnable)
                  7001065e    00000002     --HOLE-- [fill = 0]
                  70010660    000000de     ti_board_config.obj (.text.board_flash_reset)
                  7001073e    00000002     --HOLE-- [fill = 0]
                  70010740    000000dc     drivers.am263px.r5f.ti-arm-clang.nortos.debug.lib : bootloader_uniflash_rprc.obj (.text.Bootloader_uniflashFlashOrVerifyXipFile)
                  7001081c    00000004     --HOLE-- [fill = 0]
                  70010820    000000da                                                       : uart_v0_lld.obj (.text.UART_intrDisable)
                  700108fa    00000006     --HOLE-- [fill = 0]
                  70010900    000000d8     board.am263px.r5f.ti-arm-clang.nortos.debug.lib : flash_nor_ospi.obj (.text.Flash_norOspiSetRegCfg)
                  700109d8    00000008     --HOLE-- [fill = 0]
                  700109e0    000000d8     drivers.am263px.r5f.ti-arm-clang.nortos.debug.lib : i2c_v1.obj (.text.I2C_LLD_targetTransferCompleteCallback)
                  70010ab8    00000008     --HOLE-- [fill = 0]
                  70010ac0    000000d6     board.am263px.r5f.ti-arm-clang.nortos.debug.lib : flash_nor_ospi.obj (.text.Flash_setOeBit)
                  70010b96    0000000a     --HOLE-- [fill = 0]
                  70010ba0    000000d2     drivers.am263px.r5f.ti-arm-clang.nortos.debug.lib : uart_v0_lld.obj (.text.UART_lld_write)
                  70010c72    0000000e     --HOLE-- [fill = 0]
                  70010c80    000000d0     nortos.am263px.r5f.ti-arm-clang.debug.lib : AddrTranslateP_32bit.obj (.text.AddrTranslateP_getLocalAddr)
                  70010d50    000000ce     drivers.am263px.r5f.ti-arm-clang.nortos.debug.lib : edma.obj (.text.EDMA_disableChInShadowRegRegion)
                  70010e1e    00000002     --HOLE-- [fill = 0]
                  70010e20    000000ce                                                       : uart_v0_lld.obj (.text.UART_lld_writeDma)
                  70010eee    00000002     --HOLE-- [fill = 0]
                  70010ef0    000000cc                                                       : edma.obj (.text.EDMA_enableChInShadowRegRegion)
                  70010fbc    000000c8     libc.a : getdevice.c.obj (.text.getdevice)
                  70011084    0000000c     --HOLE-- [fill = 0]
                  70011090    000000c6     drivers.am263px.r5f.ti-arm-clang.nortos.debug.lib : uart_v0_lld.obj (.text.UART_lld_writeIntr)
                  70011156    0000000a     --HOLE-- [fill = 0]
                  70011160    000000c4                                                       : edma.obj (.text.EDMA_mapChToEvtQ)
                  70011224    0000000c     --HOLE-- [fill = 0]
                  70011230    000000c4     board.am263px.r5f.ti-arm-clang.nortos.debug.lib : eeprom_cat24m.obj (.text.EEPROM_CAT24M_read)
                  700112f4    0000000c     --HOLE-- [fill = 0]
                  70011300    000000c4     drivers.am263px.r5f.ti-arm-clang.nortos.debug.lib : ospi_phy_am26x_lld.obj (.text.OSPI_lld_phyResyncDLL)
                  700113c4    0000000c     --HOLE-- [fill = 0]
                  700113d0    000000c2                                                       : edma.obj (.text.EDMA_close)
                  70011492    0000000e     --HOLE-- [fill = 0]
                  700114a0    000000c2     board.am263px.r5f.ti-arm-clang.nortos.debug.lib : flash.obj (.text.Flash_offsetToSectorPage)
                  70011562    0000000e     --HOLE-- [fill = 0]
                  70011570    000000c0     ti_board_open_close.obj (.text.Board_flashOpen)
                  70011630    000000c0     drivers.am263px.r5f.ti-arm-clang.nortos.debug.lib : edma.obj (.text.EDMA_configureChannelRegion)
                  700116f0    000000c0     board.am263px.r5f.ti-arm-clang.nortos.debug.lib : flash.obj (.text.Flash_offsetToBlkPage)
                  700117b0    000000c0     drivers.am263px.r5f.ti-arm-clang.nortos.debug.lib : soc_rcm.obj (.text.SOC_rcmGetPerHSDivOut)
                  70011870    000000c0                                                       : uart_v0.obj (.text.UART_flushTxFifo)
                  70011930    000000c0     nortos.am263px.r5f.ti-arm-clang.debug.lib : printf.obj (.text._out_rev)
                  700119f0    000000be                                               : ClockP_nortos.obj (.text.ClockP_timerTickIsr)
                  70011aae    00000002     --HOLE-- [fill = 0]
                  70011ab0    000000be     drivers.am263px.r5f.ti-arm-clang.nortos.debug.lib : ospi_v0.obj (.text.OSPI_readDirect)
                  70011b6e    00000002     --HOLE-- [fill = 0]
                  70011b70    000000ba     nortos.am263px.r5f.ti-arm-clang.debug.lib : ClockP_nortos.obj (.text.ClockP_stop)
                  70011c2a    00000006     --HOLE-- [fill = 0]
                  70011c30    000000b6     drivers.am263px.r5f.ti-arm-clang.nortos.debug.lib : bootloader_uniflash_rprc.obj (.text.Bootloader_uniflashFlashOrVerifyRprcXipFile)
                  70011ce6    0000000a     --HOLE-- [fill = 0]
                  70011cf0    000000b6                                                       : uart_v0_lld.obj (.text.UART_fifoWrite)
                  70011da6    00000002     --HOLE-- [fill = 0]
                  70011da8    000000b4     libc.a : fseek.c.obj (.text.fseeko)
                  70011e5c    000000b4            : ftell.c.obj (.text.ftello)
                  70011f10    000000b0     drivers.am263px.r5f.ti-arm-clang.nortos.debug.lib : soc_rcm.obj (.text.SOC_rcmSetPeripheralClock)
                  70011fc0    000000b0                                                       : uart_v0.obj (.text.UART_init)
                  70012070    000000b0     libc.a : fclose.c.obj (.text.__TI_closefile)
                  70012120    000000ac     ti_drivers_open_close.obj (.text.Drivers_i2cOpen)
                  700121cc    00000004     --HOLE-- [fill = 0]
                  700121d0    000000aa     ti_drivers_open_close.obj (.text.Drivers_uartOpen)
                  7001227a    00000006     --HOLE-- [fill = 0]
                  70012280    000000a8     ti_board_open_close.obj (.text.Board_eepromOpen)
                  70012328    00000008     --HOLE-- [fill = 0]
                  70012330    000000a8     nortos.am263px.r5f.ti-arm-clang.debug.lib : ClockP_nortos.obj (.text.ClockP_addToList)
                  700123d8    00000008     --HOLE-- [fill = 0]
                  700123e0    000000a8                                               : ClockP_nortos.obj (.text.ClockP_destruct)
                  70012488    00000008     --HOLE-- [fill = 0]
                  70012490    000000a6     ti_drivers_open_close.obj (.text.Drivers_edmaOpen)
                  70012536    0000000a     --HOLE-- [fill = 0]
                  70012540    000000a6     ti_drivers_open_close.obj (.text.Drivers_ospiOpen)
                  700125e6    00000002     --HOLE-- [fill = 0]
                  700125e8    000000a4     libc.a : memory.c.obj (.text.split)
                  7001268c    000000a0     libsysbm.a : hostrename.c.obj (.text.HOSTrename)
                  7001272c    00000004     --HOLE-- [fill = 0]
                  70012730    000000a0     drivers.am263px.r5f.ti-arm-clang.nortos.debug.lib : ospi_v0_lld.obj (.text.OSPI_lld_deInitDma)
                  700127d0    000000a0                                                       : ospi_v0_lld.obj (.text.OSPI_lld_setXferOpCodes)
                  70012870    000000a0                                                       : soc_rcm.obj (.text.SOC_rcmGetCoreHSDivOut)
                  70012910    0000009e     board.am263px.r5f.ti-arm-clang.nortos.debug.lib : flash_nor_ospi.obj (.text.Flash_norOspiSetModeDummy)
                  700129ae    00000002     --HOLE-- [fill = 0]
                  700129b0    0000009e     drivers.am263px.r5f.ti-arm-clang.nortos.debug.lib : ospi_v0_lld.obj (.text.OSPI_isProtocolValid)
                  70012a4e    00000002     --HOLE-- [fill = 0]
                  70012a50    0000009e                                                       : ospi_phy_am26x_lld.obj (.text.OSPI_lld_phyBasicConfig)
                  70012aee    00000002     --HOLE-- [fill = 0]
                  70012af0    0000009c     libc.a : _io_perm.c.obj (.text.__TI_wrt_ok)
                  70012b8c    00000098     libsysbm.a : hostlseek.c.obj (.text.HOSTlseek)
                  70012c24    0000000c     --HOLE-- [fill = 0]
                  70012c30    00000096     drivers.am263px.r5f.ti-arm-clang.nortos.debug.lib : uart_v0_lld.obj (.text.UART_subConfigTCRTLRModeEn)
                  70012cc6    00000002     --HOLE-- [fill = 0]
                  70012cc8    00000094     libsysbm.a : hostopen.c.obj (.text.HOSTopen)
                  70012d5c    00000004     --HOLE-- [fill = 0]
                  70012d60    00000094     drivers.am263px.r5f.ti-arm-clang.nortos.debug.lib : ospi_v0.obj (.text.OSPI_init)
                  70012df4    0000000c     --HOLE-- [fill = 0]
                  70012e00    00000092     nortos.am263px.r5f.ti-arm-clang.debug.lib : ClockP_nortos.obj (.text.ClockP_getTimeUsec)
                  70012e92    0000000e     --HOLE-- [fill = 0]
                  70012ea0    00000092     drivers.am263px.r5f.ti-arm-clang.nortos.debug.lib : edma.obj (.text.EDMA_unmapChToEvtQ)
                  70012f32    0000000e     --HOLE-- [fill = 0]
                  70012f40    00000092                                                       : i2c_v1_lld.obj (.text.I2CControllerInitExpClk)
                  70012fd2    0000000e     --HOLE-- [fill = 0]
                  70012fe0    00000092                                                       : ospi_v0_lld.obj (.text.OSPI_lld_deInit)
                  70013072    0000000e     --HOLE-- [fill = 0]
                  70013080    00000090                                                       : ospi_phy_am26x_lld.obj (.text.OSPI_lld_phyReadAttackVector)
                  70013110    0000008c                                                       : edma.obj (.text.EDMA_disableTransferRegion)
                  7001319c    00000004     --HOLE-- [fill = 0]
                  700131a0    0000008c                                                       : edma.obj (.text.EDMA_enableTransferRegion)
                  7001322c    00000004     --HOLE-- [fill = 0]
                  70013230    0000008c                                                       : edma.obj (.text.EDMA_init)
                  700132bc    00000004     --HOLE-- [fill = 0]
                  700132c0    0000008c     board.am263px.r5f.ti-arm-clang.nortos.debug.lib : flash_nor_ospi.obj (.text.Flash_norOspiSetAddressBytes)
                  7001334c    00000004     --HOLE-- [fill = 0]
                  70013350    0000008c     drivers.am263px.r5f.ti-arm-clang.nortos.debug.lib : uart_v0_lld.obj (.text.UART_writeCancelNoCB)
                  700133dc    0000008c     libsysbm.a : close.c.obj (.text.close)
                  70013468    00000008     --HOLE-- [fill = 0]
                  70013470    00000088     drivers.am263px.r5f.ti-arm-clang.nortos.debug.lib : uart_dma_edma.obj (.text.UART_edmaIsrRx)
                  700134f8    00000008     --HOLE-- [fill = 0]
                  70013500    00000088                                                       : uart_dma_edma.obj (.text.UART_edmaIsrTx)
                  70013588    00000088     libc.a : fflush.c.obj (.text.__TI_doflush)
                  70013610    00000086     board.am263px.r5f.ti-arm-clang.nortos.debug.lib : flash_nor_ospi.obj (.text.Flash_norOspiRead)
                  70013696    0000000a     --HOLE-- [fill = 0]
                  700136a0    00000086     drivers.am263px.r5f.ti-arm-clang.nortos.debug.lib : ospi_phy_am26x_lld.obj (.text.OSPI_lld_phyFindRxHigh)
                  70013726    0000000a     --HOLE-- [fill = 0]
                  70013730    00000086                                                       : ospi_phy_am26x_lld.obj (.text.OSPI_lld_phyFindRxLow)
                  700137b6    0000000a     --HOLE-- [fill = 0]
                  700137c0    00000086                                                       : ospi_phy_am26x_lld.obj (.text.OSPI_lld_phyFindTxHigh)
                  70013846    0000000a     --HOLE-- [fill = 0]
                  70013850    00000086                                                       : ospi_phy_am26x_lld.obj (.text.OSPI_lld_phyFindTxLow)
                  700138d6    0000000a     --HOLE-- [fill = 0]
                  700138e0    00000086                                                       : uart_v0_lld.obj (.text.UART_lld_flushTxFifo)
                  70013966    0000000a     --HOLE-- [fill = 0]
                  70013970    00000086                                                       : uart_v0_lld.obj (.text.UART_tcrTlrBitValRestore)
                  700139f6    0000000a     --HOLE-- [fill = 0]
                  70013a00    00000084     board.am263px.r5f.ti-arm-clang.nortos.debug.lib : flash_nor_ospi.obj (.text.Flash_norOspiRegWrite)
                  70013a84    00000084     libsysbm.a : hostread.c.obj (.text.HOSTread)
                  70013b08    00000084                : hostwrite.c.obj (.text.HOSTwrite)
                  70013b8c    00000004     --HOLE-- [fill = 0]
                  70013b90    00000084     drivers.am263px.r5f.ti-arm-clang.nortos.debug.lib : ospi_phy_am26x_lld.obj (.text.OSPI_lld_phySetRdDelayTxRxDLL)
                  70013c14    0000000c     --HOLE-- [fill = 0]
                  70013c20    00000082                                                       : edma.obj (.text.EDMA_allocDmaChannel)
                  70013ca2    0000000e     --HOLE-- [fill = 0]
                  70013cb0    00000082                                                       : edma.obj (.text.EDMA_allocParam)
                  70013d32    0000000e     --HOLE-- [fill = 0]
                  70013d40    00000082                                                       : edma.obj (.text.EDMA_allocTcc)
                  70013dc2    0000000e     --HOLE-- [fill = 0]
                  70013dd0    00000082                                                       : edma.obj (.text.EDMA_disableTccInShadowRegRegion)
                  70013e52    0000000e     --HOLE-- [fill = 0]
                  70013e60    00000082                                                       : edma.obj (.text.EDMA_enableTccInShadowRegRegion)
                  70013ee2    0000000e     --HOLE-- [fill = 0]
                  70013ef0    00000080     board.am263px.r5f.ti-arm-clang.nortos.debug.lib : eeprom_cat24m.obj (.text.EEPROM_CAT24M_open)
                  70013f70    00000080                                                     : flash_nor_ospi.obj (.text.Flash_norOspiRegRead)
                  70013ff0    00000080     ti_board_config.obj (.text.TCA6424_Flash_reset)
                  70014070    00000080     drivers.am263px.r5f.ti-arm-clang.nortos.debug.lib : uart_v0_lld.obj (.text.UART_moduleReset)
                  700140f0    00000080     libc.a : fopen.c.obj (.text._search_fp)
                  70014170    0000007e     drivers.am263px.r5f.ti-arm-clang.nortos.debug.lib : i2c_v1_lld.obj (.text.I2C_lld_transferInit)
                  700141ee    00000002     --HOLE-- [fill = 0]
                  700141f0    0000007e                                                       : uart_v0_lld.obj (.text.UART_readData)
                  7001426e    00000002     --HOLE-- [fill = 0]
                  70014270    0000007c     board.am263px.r5f.ti-arm-clang.nortos.debug.lib : ioexp_tca6416.obj (.text.TCA6416_open)
                  700142ec    00000004     --HOLE-- [fill = 0]
                  700142f0    0000007c                                                     : ioexp_tca6424.obj (.text.TCA6424_open)
                  7001436c    00000004     --HOLE-- [fill = 0]
                  70014370    0000007c     nortos.am263px.r5f.ti-arm-clang.debug.lib : DebugP_log.obj (.text._DebugP_assert)
                  700143ec    00000004     --HOLE-- [fill = 0]
                  700143f0    0000007a     drivers.am263px.r5f.ti-arm-clang.nortos.debug.lib : ospi_v0_lld.obj (.text.OSPI_lld_enablePhy)
                  7001446a    00000006     --HOLE-- [fill = 0]
                  70014470    0000007a     ti_board_config.obj (.text.TCA6416_Flash_reset)
                  700144ea    00000006     --HOLE-- [fill = 0]
                  700144f0    0000007a     drivers.am263px.r5f.ti-arm-clang.nortos.debug.lib : uart_v0.obj (.text.UART_Params_init)
                  7001456a    00000006     --HOLE-- [fill = 0]
                  70014570    00000078                                                       : edma.obj (.text.EDMA_linkChannel)
                  700145e8    00000008     --HOLE-- [fill = 0]
                  700145f0    00000078                                                       : i2c_v1_lld.obj (.text.I2C_lld_completeCurrTransfer)
                  70014668    00000008     --HOLE-- [fill = 0]
                  70014670    00000078                                                       : ospi_v0_lld.obj (.text.OSPI_waitIndWriteComplete)
                  700146e8    00000078     libc.a : _io_perm.c.obj (.text.__TI_rd_ok)
                  70014760    00000076     drivers.am263px.r5f.ti-arm-clang.nortos.debug.lib : ospi_v0_lld.obj (.text.OSPI_isDmaRestrictedRegion)
                  700147d6    0000000a     --HOLE-- [fill = 0]
                  700147e0    00000074                                                       : bootloader_uniflash_common.obj (.text.Bootloader_uniflashFlashPhyTuningData)
                  70014854    0000000c     --HOLE-- [fill = 0]
                  70014860    00000074                                                       : ospi_v0.obj (.text.OSPI_writeIndirect)
                  700148d4    0000000c     --HOLE-- [fill = 0]
                  700148e0    00000074                                                       : uart_v0_lld.obj (.text.UART_IsBaseAddrValid)
                  70014954    0000000c     --HOLE-- [fill = 0]
                  70014960    00000072     nortos.am263px.r5f.ti-arm-clang.debug.lib : ClockP_nortos.obj (.text.ClockP_usleep)
                  700149d2    0000000e     --HOLE-- [fill = 0]
                  700149e0    00000072     drivers.am263px.r5f.ti-arm-clang.nortos.debug.lib : edma.obj (.text.EDMA_clrMissEvtRegion)
                  70014a52    0000000e     --HOLE-- [fill = 0]
                  70014a60    00000072                                                       : edma.obj (.text.EDMA_getTcErrorInfo)
                  70014ad2    0000000e     --HOLE-- [fill = 0]
                  70014ae0    00000072                                                       : ospi_lld_dma.obj (.text.OSPI_dmaOpen)
                  70014b52    0000000e     --HOLE-- [fill = 0]
                  70014b60    00000070                                                       : ospi_v0_lld.obj (.text.OSPI_waitIdle)
                  70014bd0    0000006e                                                       : ospi_v0_lld.obj (.text.OSPI_lld_disablePhy)
                  70014c3e    00000002     --HOLE-- [fill = 0]
                  70014c40    0000006e                                                       : ospi_v0_lld.obj (.text.OSPI_lld_readDirect)
                  70014cae    00000002     --HOLE-- [fill = 0]
                  70014cb0    0000006c     libsysbm.a : hostunlink.c.obj (.text.HOSTunlink)
                  70014d1c    00000004     --HOLE-- [fill = 0]
                  70014d20    0000006c     drivers.am263px.r5f.ti-arm-clang.nortos.debug.lib : ospi_v0.obj (.text.OSPI_close)
                  70014d8c    00000004     --HOLE-- [fill = 0]
                  70014d90    0000006a     board.am263px.r5f.ti-arm-clang.nortos.debug.lib : flash_nor_ospi.obj (.text.Flash_quirkSpansionUNHYSADisable)
                  70014dfa    00000006     --HOLE-- [fill = 0]
                  70014e00    00000068     drivers.am263px.r5f.ti-arm-clang.nortos.debug.lib : edma.obj (.text.EDMA_getBaseAddr)
                  70014e68    00000008     --HOLE-- [fill = 0]
                  70014e70    00000068     board.am263px.r5f.ti-arm-clang.nortos.debug.lib : flash_nor_ospi.obj (.text.Flash_norOspiCmdRead)
                  70014ed8    00000008     --HOLE-- [fill = 0]
                  70014ee0    00000068     drivers.am263px.r5f.ti-arm-clang.nortos.debug.lib : ospi_v0_lld.obj (.text.OSPI_waitWriteSRAMLevel)
                  70014f48    00000008     --HOLE-- [fill = 0]
                  70014f50    00000068                                                       : uart_v0_lld.obj (.text.UART_divisorValCompute)
                  70014fb8    00000008     --HOLE-- [fill = 0]
                  70014fc0    00000066     board.am263px.r5f.ti-arm-clang.nortos.debug.lib : eeprom.obj (.text.EEPROM_open)
                  70015026    0000000a     --HOLE-- [fill = 0]
                  70015030    00000066                                                     : flash.obj (.text.Flash_open)
                  70015096    0000000a     --HOLE-- [fill = 0]
                  700150a0    00000066     drivers.am263px.r5f.ti-arm-clang.nortos.debug.lib : i2c_v1.obj (.text.I2C_init)
                  70015106    0000000a     --HOLE-- [fill = 0]
                  70015110    00000064                                                       : i2c_v1.obj (.text.I2C_completeCurrTransfer)
                  70015174    0000000c     --HOLE-- [fill = 0]
                  70015180    00000064                                                       : soc_rcm.obj (.text.SOC_rcmIsR5FInLockStepMode)
                  700151e4    0000000c     --HOLE-- [fill = 0]
                  700151f0    00000064                                                       : uart_v0_lld.obj (.text.UART_fifoRegisterWrite)
                  70015254    0000000c     --HOLE-- [fill = 0]
                  70015260    00000064                                                       : uart_v0_lld.obj (.text.UART_lld_deInitDma)
                  700152c4    0000000c     --HOLE-- [fill = 0]
                  700152d0    00000062                                                       : soc_rcm.obj (.text.SOC_rcmInsert16)
                  70015332    0000000e     --HOLE-- [fill = 0]
                  70015340    00000062     nortos.am263px.r5f.ti-arm-clang.debug.lib : SemaphoreP_nortos.obj (.text.SemaphoreP_post)
                  700153a2    0000000e     --HOLE-- [fill = 0]
                  700153b0    00000060     drivers.am263px.r5f.ti-arm-clang.nortos.debug.lib : edma.obj (.text.EDMA_chainChannel)
                  70015410    00000060     libsysbm.a : hostclose.c.obj (.text.HOSTclose)
                  70015470    00000060     drivers.am263px.r5f.ti-arm-clang.nortos.debug.lib : ospi_lld_dma.obj (.text.OSPI_dmaCopy)
                  700154d0    00000060                                                       : uart_v0_lld.obj (.text.UART_getChar)
                  70015530    00000060                                                       : uart_v0_lld.obj (.text.UART_writeData)
                  70015590    00000060     main.obj (.text.sbl_jtag_uniflash_erase_all)
                  700155f0    0000005c     ti_power_clock_config.obj (.text.Module_clockSetFrequency)
                  7001564c    00000004     --HOLE-- [fill = 0]
                  70015650    0000005c     drivers.am263px.r5f.ti-arm-clang.nortos.debug.lib : ospi_v0_lld.obj (.text.OSPI_utilLog2)
                  700156ac    00000004     --HOLE-- [fill = 0]
                  700156b0    0000005c                                                       : uart_v0_lld.obj (.text.UART_lld_deInit)
                  7001570c    00000004     --HOLE-- [fill = 0]
                  70015710    0000005a                                                       : uart_dma_edma.obj (.text.UART_lld_dmaDisableChannel)
                  7001576a    00000006     --HOLE-- [fill = 0]
                  70015770    0000005a                                                       : uart_v0_lld.obj (.text.UART_regConfigModeEnable)
                  700157ca    00000006     --HOLE-- [fill = 0]
                  700157d0    00000058     middleware.am263px.r5f.ti-arm-clang.nortos.debug.lib : tielfup32.obj (.text.ELFUP_init)
                  70015828    00000008     --HOLE-- [fill = 0]
                  70015830    00000058     board.am263px.r5f.ti-arm-clang.nortos.debug.lib : flash_nor_ospi.obj (.text.Flash_norOspiCmdWrite)
                  70015888    00000008     --HOLE-- [fill = 0]
                  70015890    00000058     drivers.am263px.r5f.ti-arm-clang.nortos.debug.lib : ospi_v0_lld.obj (.text.OSPI_writeFifoData)
                  700158e8    00000008     --HOLE-- [fill = 0]
                  700158f0    00000058                                                       : soc_rcm.obj (.text.SOC_rcmGetModuleClkDivVal)
                  70015948    00000008     --HOLE-- [fill = 0]
                  70015950    00000058                                                       : uart_v0.obj (.text.UART_getHandle)
                  700159a8    00000058     libc.a : fopen.c.obj (.text.__TI_cleanup)
                  70015a00    00000058     libsysbm.a : trgmsg.c.obj (.text.__TI_readmsg)
                  70015a58    00000058                : trgmsg.c.obj (.text.__TI_writemsg)
                  70015ab0    00000056     drivers.am263px.r5f.ti-arm-clang.nortos.debug.lib : edma.obj (.text.EDMA_getHandle)
                  70015b06    0000000a     --HOLE-- [fill = 0]
                  70015b10    00000056                                                       : i2c_v1.obj (.text.I2C_getHandle)
                  70015b66    0000000a     --HOLE-- [fill = 0]
                  70015b70    00000056                                                       : ospi_v0_lld.obj (.text.OSPI_getCmdExt)
                  70015bc6    0000000a     --HOLE-- [fill = 0]
                  70015bd0    00000056                                                       : ospi_v0_lld.obj (.text.OSPI_lld_configResetPin)
                  70015c26    0000000a     --HOLE-- [fill = 0]
                  70015c30    00000056                                                       : uart_v0.obj (.text.UART_lld_readCompleteCallback)
                  70015c86    0000000a     --HOLE-- [fill = 0]
                  70015c90    00000056                                                       : uart_v0.obj (.text.UART_lld_writeCompleteCallback)
                  70015ce6    0000000a     --HOLE-- [fill = 0]
                  70015cf0    00000054                                                       : edma.obj (.text.EDMA_setPaRAM)
                  70015d44    0000000c     --HOLE-- [fill = 0]
                  70015d50    00000054                                                       : ospi_v0_lld.obj (.text.OSPI_lld_configBaudrate)
                  70015da4    0000000c     --HOLE-- [fill = 0]
                  70015db0    00000054                                                       : ospi_v0_lld.obj (.text.OSPI_readFifoData)
                  70015e04    0000000c     --HOLE-- [fill = 0]
                  70015e10    00000054                                                       : uart_v0_lld.obj (.text.UART_OperModeValid)
                  70015e64    00000054     libc.a : exit.c.obj (.text.exit)
                  70015eb8    00000054            : getdevice.c.obj (.text.finddevice)
                  70015f0c    00000054            : autoinit.c.obj (.text:__TI_auto_init_nobinit_nopinit)
                  70015f60    00000052     ti_drivers_open_close.obj (.text.Drivers_i2cClose)
                  70015fb2    0000000e     --HOLE-- [fill = 0]
                  70015fc0    00000052     drivers.am263px.r5f.ti-arm-clang.nortos.debug.lib : edma.obj (.text.EDMA_readIntrStatusRegion)
                  70016012    0000000e     --HOLE-- [fill = 0]
                  70016020    00000052     board.am263px.r5f.ti-arm-clang.nortos.debug.lib : flash.obj (.text.Flash_read)
                  70016072    0000000e     --HOLE-- [fill = 0]
                  70016080    00000052                                                     : flash.obj (.text.Flash_write)
                  700160d2    0000000e     --HOLE-- [fill = 0]
                  700160e0    00000052     drivers.am263px.r5f.ti-arm-clang.nortos.debug.lib : i2c_v1_lld.obj (.text.I2C_lld_deInit)
                  70016132    0000000e     --HOLE-- [fill = 0]
                  70016140    00000050     ti_board_open_close.obj (.text.Board_eepromClose)
                  70016190    00000050     ti_board_open_close.obj (.text.Board_flashClose)
                  700161e0    00000050     ti_drivers_open_close.obj (.text.Drivers_edmaClose)
                  70016230    00000050     ti_drivers_open_close.obj (.text.Drivers_ospiClose)
                  70016280    00000050     ti_drivers_open_close.obj (.text.Drivers_uartClose)
                  700162d0    00000050     drivers.am263px.r5f.ti-arm-clang.nortos.debug.lib : pinmux.obj (.text.Pinmux_config)
                  70016320    00000050                                                       : uart_v0_lld.obj (.text.UART_checkCharsAvailInFifo)
                  70016370    0000004e                                                       : edma.obj (.text.EDMA_clrEvtRegion)
                  700163be    00000002     --HOLE-- [fill = 0]
                  700163c0    0000004e                                                       : edma.obj (.text.EDMA_clrIntrRegion)
                  7001640e    00000002     --HOLE-- [fill = 0]
                  70016410    0000004e                                                       : edma.obj (.text.EDMA_disableDmaEvtRegion)
                  7001645e    00000002     --HOLE-- [fill = 0]
                  70016460    0000004e                                                       : edma.obj (.text.EDMA_disableEvtIntrRegion)
                  700164ae    00000002     --HOLE-- [fill = 0]
                  700164b0    0000004e                                                       : edma.obj (.text.EDMA_enableDmaEvtRegion)
                  700164fe    00000002     --HOLE-- [fill = 0]
                  70016500    0000004e                                                       : edma.obj (.text.EDMA_enableEvtIntrRegion)
                  7001654e    00000002     --HOLE-- [fill = 0]
                  70016550    0000004e                                                       : edma.obj (.text.EDMA_getCcErrorInfo)
                  7001659e    00000002     --HOLE-- [fill = 0]
                  700165a0    0000004e                                                       : edma.obj (.text.EDMA_setEvtRegion)
                  700165ee    00000002     --HOLE-- [fill = 0]
                  700165f0    0000004e                                                       : ospi_v0.obj (.text.OSPI_readCmd)
                  7001663e    00000002     --HOLE-- [fill = 0]
                  70016640    0000004e                                                       : ospi_v0.obj (.text.OSPI_writeCmd)
                  7001668e    00000002     --HOLE-- [fill = 0]
                  70016690    0000004c     nortos.am263px.r5f.ti-arm-clang.debug.lib : ClockP_nortos.obj (.text.ClockP_construct)
                  700166dc    00000004     --HOLE-- [fill = 0]
                  700166e0    0000004c     drivers.am263px.r5f.ti-arm-clang.nortos.debug.lib : edma.obj (.text.EDMA_ccPaRAMEntry_init)
                  7001672c    00000004     --HOLE-- [fill = 0]
                  70016730    0000004c                                                       : edma.obj (.text.EDMA_mapQdmaChToPaRAM)
                  7001677c    00000004     --HOLE-- [fill = 0]
                  70016780    0000004c                                                       : edma.obj (.text.EDMA_readEventStatusRegion)
                  700167cc    00000004     --HOLE-- [fill = 0]
                  700167d0    0000004c     ti_power_clock_config.obj (.text.Module_clockEnable)
                  7001681c    00000004     --HOLE-- [fill = 0]
                  70016820    0000004c     drivers.am263px.r5f.ti-arm-clang.nortos.debug.lib : ospi_v0.obj (.text.OSPI_getHandle)
                  7001686c    00000004     --HOLE-- [fill = 0]
                  70016870    0000004c                                                       : ospi_v0_lld.obj (.text.OSPI_lld_readBaudRateDivFromReg)
                  700168bc    0000004c     libc.a : fclose.c.obj (.text.fclose)
                  70016908    0000004c            : fopen.c.obj (.text.fopen)
                  70016954    0000000c     --HOLE-- [fill = 0]
                  70016960    0000004a     drivers.am263px.r5f.ti-arm-clang.nortos.debug.lib : uart_v0_lld.obj (.text.UART_getIntrIdentityStatus)
                  700169aa    00000006     --HOLE-- [fill = 0]
                  700169b0    0000004a                                                       : uart_v0_lld.obj (.text.UART_lineCharConfig)
                  700169fa    00000006     --HOLE-- [fill = 0]
                  70016a00    00000048                                                       : edma.obj (.text.EDMA_clearTcErrors)
                  70016a48    00000008     --HOLE-- [fill = 0]
                  70016a50    00000048     board.am263px.r5f.ti-arm-clang.nortos.debug.lib : eeprom.obj (.text.EEPROM_read)
                  70016a98    00000008     --HOLE-- [fill = 0]
                  70016aa0    00000048     drivers.am263px.r5f.ti-arm-clang.nortos.debug.lib : ospi_v0_lld.obj (.text.OSPI_lld_enableDacMode)
                  70016ae8    00000008     --HOLE-- [fill = 0]
                  70016af0    00000048                                                       : ospi_v0_lld.obj (.text.OSPI_lld_setDeviceSize)
                  70016b38    00000008     --HOLE-- [fill = 0]
                  70016b40    00000048                                                       : ospi_v0_lld.obj (.text.OSPI_lld_setNumAddrBytes)
                  70016b88    00000008     --HOLE-- [fill = 0]
                  70016b90    00000048                                                       : uart_v0_lld.obj (.text.UART_resetModule)
                  70016bd8    00000048     libsysbm.a : unlink.c.obj (.text.unlink)
                  70016c20    00000046     nortos.am263px.r5f.ti-arm-clang.debug.lib : DebugP_uartLogWriter.obj (.text.DebugP_uartLogWriterPutChar)
                  70016c66    0000000a     --HOLE-- [fill = 0]
                  70016c70    00000046     drivers.am263px.r5f.ti-arm-clang.nortos.debug.lib : i2c_v1.obj (.text.I2C_hwiFxn)
                  70016cb6    0000000a     --HOLE-- [fill = 0]
                  70016cc0    00000046                                                       : ospi_v0_lld.obj (.text.OSPI_lld_disableDacMode)
                  70016d06    0000000a     --HOLE-- [fill = 0]
                  70016d10    00000046                                                       : ospi_phy_am26x_lld.obj (.text.OSPI_lld_phyTuneDDR)
                  70016d56    0000000a     --HOLE-- [fill = 0]
                  70016d60    00000046                                                       : uart_v0_lld.obj (.text.UART_i2310WA)
                  70016da6    0000000a     --HOLE-- [fill = 0]
                  70016db0    00000046                                                       : uart_v0_lld.obj (.text.UART_readLineStatus)
                  70016df6    0000000a     --HOLE-- [fill = 0]
                  70016e00    00000044     ti_dpl_config.obj (.text.Dpl_init)
                  70016e44    0000000c     --HOLE-- [fill = 0]
                  70016e50    00000044     drivers.am263px.r5f.ti-arm-clang.nortos.debug.lib : ospi_lld_dma.obj (.text.OSPI_dmaClose)
                  70016e94    0000000c     --HOLE-- [fill = 0]
                  70016ea0    00000044                                                       : ospi_lld_dma.obj (.text.OSPI_isDmaInterruptEnabled)
                  70016ee4    0000000c     --HOLE-- [fill = 0]
                  70016ef0    00000044                                                       : soc_rcm.obj (.text.SOC_rcmExtract8)
                  70016f34    0000000c     --HOLE-- [fill = 0]
                  70016f40    00000044                                                       : soc_rcm.obj (.text.SOC_rcmMake16)
                  70016f84    0000000c     --HOLE-- [fill = 0]
                  70016f90    00000044     nortos.am263px.r5f.ti-arm-clang.debug.lib : SemaphoreP_nortos.obj (.text.SemaphoreP_construct)
                  70016fd4    0000000c     --HOLE-- [fill = 0]
                  70016fe0    00000044                                               : DebugP_nortos.obj (.text._DebugP_logZone)
                  70017024    0000000c     --HOLE-- [fill = 0]
                  70017030    00000044                                               : printf.obj (.text._strnlen_s)
                  70017074    0000000c     --HOLE-- [fill = 0]
                  70017080    00000042                                               : ClockP_nortos.obj (.text.ClockP_start)
                  700170c2    0000000e     --HOLE-- [fill = 0]
                  700170d0    00000042     drivers.am263px.r5f.ti-arm-clang.nortos.debug.lib : uart_v0.obj (.text.UART_checkOpenParams)
                  70017112    0000000e     --HOLE-- [fill = 0]
                  70017120    00000040                                                       : i2c_v1_lld.obj (.text.I2C_lld_transferIntr)
                  70017160    00000040                                                       : i2c_v1_lld.obj (.text.I2C_lld_transferPoll)
                  700171a0    00000040     libc.a : memory.c.obj (.text.free_list_insert)
                  700171e0    00000040            : memcmp.c.obj (.text.memcmp)
                  70017220    0000003e     board.am263px.r5f.ti-arm-clang.nortos.debug.lib : flash.obj (.text.Flash_eraseBlk)
                  7001725e    00000002     --HOLE-- [fill = 0]
                  70017260    0000003e                                                     : flash.obj (.text.Flash_eraseSector)
                  7001729e    00000002     --HOLE-- [fill = 0]
                  700172a0    0000003e                                                     : flash.obj (.text.Flash_getAttrs)
                  700172de    00000002     --HOLE-- [fill = 0]
                  700172e0    0000003e     drivers.am263px.r5f.ti-arm-clang.nortos.debug.lib : pinmux.obj (.text.Pinmux_unlockMMR)
                  7001731e    00000002     --HOLE-- [fill = 0]
                  70017320    0000003e                                                       : uart_v0_lld.obj (.text.UART_IsHWFlowCtrlValid)
                  7001735e    00000002     --HOLE-- [fill = 0]
                  70017360    0000003e                                                       : uart_v0_lld.obj (.text.UART_spaceAvail)
                  7001739e    00000002     --HOLE-- [fill = 0]
                  700173a0    0000003c     board.am263px.r5f.ti-arm-clang.nortos.debug.lib : eeprom_cat24m.obj (.text.EEPROM_CAT24M_close)
                  700173dc    00000004     --HOLE-- [fill = 0]
                  700173e0    0000003c     drivers.am263px.r5f.ti-arm-clang.nortos.debug.lib : ospi_v0_lld.obj (.text.OSPI_lld_setRdDataCaptureDelay)
                  7001741c    00000004     --HOLE-- [fill = 0]
                  70017420    0000003c                                                       : uart_v0_lld.obj (.text.UART_IsParityTypeValid)
                  7001745c    00000004     --HOLE-- [fill = 0]
                  70017460    0000003c                                                       : uart_v0_lld.obj (.text.UART_IsTxRxFifoEmpty)
                  7001749c    00000004     --HOLE-- [fill = 0]
                  700174a0    0000003c                                                       : uart_v0_lld.obj (.text.UART_enhanFuncEnable)
                  700174dc    00000004     --HOLE-- [fill = 0]
                  700174e0    0000003a                                                       : ospi_edma_lld.obj (.text.OSPI_EdmaParams_init)
                  7001751a    00000006     --HOLE-- [fill = 0]
                  70017520    0000003a                                                       : ospi_v0.obj (.text.OSPI_enableSDR)
                  7001755a    00000006     --HOLE-- [fill = 0]
                  70017560    0000003a                                                       : soc.obj (.text.SOC_moduleSetClockFrequency)
                  7001759a    00000006     --HOLE-- [fill = 0]
                  700175a0    0000003a     nortos.am263px.r5f.ti-arm-clang.debug.lib : printf.obj (.text._atoi)
                  700175da    00000006     --HOLE-- [fill = 0]
                  700175e0    00000038     drivers.am263px.r5f.ti-arm-clang.nortos.debug.lib : ospi_phy_am26x_lld.obj (.text.CSL_REG32_FINS_RAW)
                  70017618    00000008     --HOLE-- [fill = 0]
                  70017620    00000038                                                       : ospi_v0_lld.obj (.text.CSL_REG32_FINS_RAW)
                  70017658    00000008     --HOLE-- [fill = 0]
                  70017660    00000038                                                       : edma.obj (.text.EDMA_qdmaClrMissEvtRegion)
                  70017698    00000008     --HOLE-- [fill = 0]
                  700176a0    00000038                                                       : i2c_v1.obj (.text.I2C_LLD_transferCompleteCallback)
                  700176d8    00000008     --HOLE-- [fill = 0]
                  700176e0    00000038                                                       : ospi_v0.obj (.text.OSPI_configBaudrate)
                  70017718    00000008     --HOLE-- [fill = 0]
                  70017720    00000038                                                       : ospi_v0.obj (.text.OSPI_getBaudRateDivFromObj)
                  70017758    00000008     --HOLE-- [fill = 0]
                  70017760    00000038                                                       : ospi_v0.obj (.text.OSPI_setRdDataCaptureDelay)
                  70017798    00000008     --HOLE-- [fill = 0]
                  700177a0    00000038                                                       : ospi_v0.obj (.text.OSPI_setResetPinStatus)
                  700177d8    00000008     --HOLE-- [fill = 0]
                  700177e0    00000038                                                       : uart_v0_lld.obj (.text.UART_writeDataPolling)
                  70017818    00000008     --HOLE-- [fill = 0]
                  70017820    00000036                                                       : edma.obj (.text.EDMA_getRegionId)
                  70017856    0000000a     --HOLE-- [fill = 0]
                  70017860    00000036     board.am263px.r5f.ti-arm-clang.nortos.debug.lib : flash.obj (.text.Flash_getHandle)
                  70017896    0000000a     --HOLE-- [fill = 0]
                  700178a0    00000036     drivers.am263px.r5f.ti-arm-clang.nortos.debug.lib : ospi_v0_lld.obj (.text.OSPI_lld_enableDdrRdCmds)
                  700178d6    0000000a     --HOLE-- [fill = 0]
                  700178e0    00000036                                                       : ospi_v0_lld.obj (.text.OSPI_lld_readCmdParams_init)
                  70017916    0000000a     --HOLE-- [fill = 0]
                  70017920    00000034                                                       : bootloader_uniflash_rprc.obj (.text.Bootloader_Uniflash_RPRC_flashVerifyXIPFile)
                  70017954    0000000c     --HOLE-- [fill = 0]
                  70017960    00000034                                                       : ospi_v0.obj (.text.OSPI_disableDacMode)
                  70017994    0000000c     --HOLE-- [fill = 0]
                  700179a0    00000034                                                       : ospi_v0.obj (.text.OSPI_disablePhy)
                  700179d4    0000000c     --HOLE-- [fill = 0]
                  700179e0    00000034                                                       : ospi_v0.obj (.text.OSPI_enableDacMode)
                  70017a14    0000000c     --HOLE-- [fill = 0]
                  70017a20    00000034                                                       : ospi_v0.obj (.text.OSPI_enablePhy)
                  70017a54    0000000c     --HOLE-- [fill = 0]
                  70017a60    00000034                                                       : ospi_v0_lld.obj (.text.OSPI_lld_disablePhyPipeline)
                  70017a94    0000000c     --HOLE-- [fill = 0]
                  70017aa0    00000034                                                       : ospi_v0_lld.obj (.text.OSPI_lld_enableDDR)
                  70017ad4    0000000c     --HOLE-- [fill = 0]
                  70017ae0    00000034                                                       : ospi_v0_lld.obj (.text.OSPI_lld_enableSDR)
                  70017b14    0000000c     --HOLE-- [fill = 0]
                  70017b20    00000034                                                       : ospi_v0_lld.obj (.text.OSPI_lld_isChipSelectValid)
                  70017b54    0000000c     --HOLE-- [fill = 0]
                  70017b60    00000034                                                       : ospi_v0_lld.obj (.text.OSPI_lld_isFrameFormatValid)
                  70017b94    0000000c     --HOLE-- [fill = 0]
                  70017ba0    00000034                                                       : ospi_v0_lld.obj (.text.OSPI_lld_setResetPinStatus)
                  70017bd4    0000000c     --HOLE-- [fill = 0]
                  70017be0    00000034                                                       : ospi_v0.obj (.text.OSPI_setXferOpCodes)
                  70017c14    0000000c     --HOLE-- [fill = 0]
                  70017c20    00000034                                                       : pinmux.obj (.text.Pinmux_lockMMR)
                  70017c54    0000000c     --HOLE-- [fill = 0]
                  70017c60    00000034     nortos.am263px.r5f.ti-arm-clang.debug.lib : TimerP_rti_priv.obj (.text.TimerP_Params_initPriv)
                  70017c94    0000000c     --HOLE-- [fill = 0]
                  70017ca0    00000034     drivers.am263px.r5f.ti-arm-clang.nortos.debug.lib : uart_v0_lld.obj (.text.UART_IsDataLengthValid)
                  70017cd4    0000000c     --HOLE-- [fill = 0]
                  70017ce0    00000034                                                       : uart_v0_lld.obj (.text.UART_checkTransaction)
                  70017d14    00000034     libc.a : memory.c.obj (.text.free_list_remove)
                  70017d48    00000034     libsysbm.a : lseek.c.obj (.text.lseek)
                  70017d7c    00000034                : read.c.obj (.text.read)
                  70017db0    00000034                : write.c.obj (.text.write)
                  70017de4    0000000c     --HOLE-- [fill = 0]
                  70017df0    00000032     drivers.am263px.r5f.ti-arm-clang.nortos.debug.lib : bootloader_uniflash.obj (.text.Bootloader_uniflashInitRespHeader)
                  70017e22    0000000e     --HOLE-- [fill = 0]
                  70017e30    00000032                                                       : edma.obj (.text.HW_WR_FIELD32_RAW)
                  70017e62    0000000e     --HOLE-- [fill = 0]
                  70017e70    00000032                                                       : uart_v0_lld.obj (.text.HW_WR_FIELD32_RAW)
                  70017ea2    0000000e     --HOLE-- [fill = 0]
                  70017eb0    00000032                                                       : i2c_v1_lld.obj (.text.I2C_lld_Message_init)
                  70017ee2    0000000e     --HOLE-- [fill = 0]
                  70017ef0    00000032                                                       : ospi_v0_lld.obj (.text.OSPI_lld_setCmdDummyCycles)
                  70017f22    0000000e     --HOLE-- [fill = 0]
                  70017f30    00000032                                                       : ospi_v0_lld.obj (.text.OSPI_lld_setReadDummyCycles)
                  70017f62    0000000e     --HOLE-- [fill = 0]
                  70017f70    00000032                                                       : ospi_v0_lld.obj (.text.OSPI_lld_writeCmdParams_init)
                  70017fa2    0000000e     --HOLE-- [fill = 0]
                  70017fb0    00000032     board.am263px.r5f.ti-arm-clang.nortos.debug.lib : ioexp_tca6416.obj (.text.TCA6416_close)
                  70017fe2    0000000e     --HOLE-- [fill = 0]
                  70017ff0    00000032                                                     : ioexp_tca6424.obj (.text.TCA6424_close)
                  70018022    0000000e     --HOLE-- [fill = 0]
                  70018030    00000032     nortos.am263px.r5f.ti-arm-clang.debug.lib : TimerP_rti_priv.obj (.text.TimerP_getCountPriv)
                  70018062    0000000e     --HOLE-- [fill = 0]
                  70018070    00000032     drivers.am263px.r5f.ti-arm-clang.nortos.debug.lib : uart_v0_lld.obj (.text.UART_enhanFuncBitValRestore)
                  700180a2    0000000e     --HOLE-- [fill = 0]
                  700180b0    00000032                                                       : uart_v0_lld.obj (.text.UART_hardwareFlowCtrlOptSet)
                  700180e2    0000000e     --HOLE-- [fill = 0]
                  700180f0    00000030     board.am263px.r5f.ti-arm-clang.nortos.debug.lib : eeprom.obj (.text.EEPROM_close)
                  70018120    00000030                                                     : flash.obj (.text.Flash_close)
                  70018150    00000030                                                     : flash_nor_ospi.obj (.text.Flash_norOspiDacModeDisable)
                  70018180    00000030                                                     : flash_nor_ospi.obj (.text.Flash_norOspiDacModeEnable)
                  700181b0    00000030     drivers.am263px.r5f.ti-arm-clang.nortos.debug.lib : i2c_v1_lld.obj (.text.I2CControllerControl)
                  700181e0    00000030                                                       : ospi_phy_am26x.obj (.text.OSPI_phyReadAttackVector)
                  70018210    00000030                                                       : ospi_phy_am26x.obj (.text.OSPI_phyTuneDDR)
                  70018240    00000030                                                       : uart_v0_lld.obj (.text.UART_flowCtrlTrigLvlConfig)
                  70018270    0000002e                                                       : ospi_v0_lld.obj (.text.OSPI_disableInterrupt)
                  7001829e    00000002     --HOLE-- [fill = 0]
                  700182a0    0000002e                                                       : ospi_v0_lld.obj (.text.OSPI_enableInterrupt)
                  700182ce    00000002     --HOLE-- [fill = 0]
                  700182d0    0000002e                                                       : uart_dma_edma.obj (.text.UART_lld_dmaInit)
                  700182fe    00000002     --HOLE-- [fill = 0]
                  70018300    0000002e     nortos.am263px.r5f.ti-arm-clang.debug.lib : printf.obj (.text._is_digit)
                  7001832e    00000002     --HOLE-- [fill = 0]
                  70018330    0000002c                                               : DebugP_log.obj (.text.DebugP_logZoneEnable)
                  7001835c    00000004     --HOLE-- [fill = 0]
                  70018360    0000002c     drivers.am263px.r5f.ti-arm-clang.nortos.debug.lib : i2c_v1_lld.obj (.text.I2CModeControl)
                  7001838c    00000004     --HOLE-- [fill = 0]
                  70018390    0000002c                                                       : ospi_v0.obj (.text.OSPI_isDacEnable)
                  700183bc    00000004     --HOLE-- [fill = 0]
                  700183c0    0000002c                                                       : ospi_v0.obj (.text.OSPI_isPhyEnable)
                  700183ec    00000004     --HOLE-- [fill = 0]
                  700183f0    0000002c                                                       : ospi_v0.obj (.text.OSPI_setDeviceSize)
                  7001841c    00000004     --HOLE-- [fill = 0]
                  70018420    0000002c     nortos.am263px.r5f.ti-arm-clang.debug.lib : SemaphoreP_nortos.obj (.text.SemaphoreP_constructBinary)
                  7001844c    00000004     --HOLE-- [fill = 0]
                  70018450    0000002a     ti_board_open_close.obj (.text.Board_driversOpen)
                  7001847a    00000006     --HOLE-- [fill = 0]
                  70018480    0000002a     drivers.am263px.r5f.ti-arm-clang.nortos.debug.lib : bootloader_uniflash_mcelf.obj (.text.Bootloader_Uniflash_MCELF_flashVerifyXIPFile)
                  700184aa    00000006     --HOLE-- [fill = 0]
                  700184b0    0000002a                                                       : bootloader_uniflash_rprc.obj (.text.Bootloader_Uniflash_RPRC_flashXIPFile)
                  700184da    00000006     --HOLE-- [fill = 0]
                  700184e0    0000002a     nortos.am263px.r5f.ti-arm-clang.debug.lib : ClockP_nortos.obj (.text.ClockP_sleepTicks)
                  7001850a    00000006     --HOLE-- [fill = 0]
                  70018510    0000002a     drivers.am263px.r5f.ti-arm-clang.nortos.debug.lib : i2c_v1_lld.obj (.text.I2C_lld_Transaction_init)
                  7001853a    00000006     --HOLE-- [fill = 0]
                  70018540    0000002a                                                       : i2c_v1.obj (.text.I2C_transferCallback)
                  7001856a    00000006     --HOLE-- [fill = 0]
                  70018570    0000002a                                                       : ospi_v0_lld.obj (.text.OSPI_lld_setModeBits)
                  7001859a    00000006     --HOLE-- [fill = 0]
                  700185a0    0000002a                                                       : uart_v0.obj (.text.UART_Transaction_init)
                  700185ca    00000006     --HOLE-- [fill = 0]
                  700185d0    0000002a                                                       : uart_v0_lld.obj (.text.UART_intr2Disable)
                  700185fa    00000006     --HOLE-- [fill = 0]
                  70018600    0000002a                                                       : uart_v0_lld.obj (.text.UART_lld_Transaction_init)
                  7001862a    00000006     --HOLE-- [fill = 0]
                  70018630    0000002a                                                       : uart_v0_lld.obj (.text.UART_operatingModeSelect)
                  7001865a    00000006     --HOLE-- [fill = 0]
                  70018660    0000002a     main.obj (.text.flashFixUpOspiBoot)
                  7001868a    00000006     --HOLE-- [fill = 0]
                  70018690    00000028     nortos.am263px.r5f.ti-arm-clang.debug.lib : CpuId_armv7r.obj (.text.CSL_armR5GetCpuID)
                  700186b8    00000008     --HOLE-- [fill = 0]
                  700186c0    00000028     drivers.am263px.r5f.ti-arm-clang.nortos.debug.lib : ospi_v0_lld.obj (.text.OSPI_lld_Transaction_init)
                  700186e8    00000008     --HOLE-- [fill = 0]
                  700186f0    00000028                                                       : ospi_v0_lld.obj (.text.OSPI_lld_clearDualOpCodeMode)
                  70018718    00000008     --HOLE-- [fill = 0]
                  70018720    00000028                                                       : ospi_v0_lld.obj (.text.OSPI_lld_enableModeBitsCmd)
                  70018748    00000008     --HOLE-- [fill = 0]
                  70018750    00000028                                                       : ospi_v0_lld.obj (.text.OSPI_lld_enableModeBitsRead)
                  70018778    00000008     --HOLE-- [fill = 0]
                  70018780    00000028                                                       : ospi_v0_lld.obj (.text.OSPI_lld_setDualOpCodeMode)
                  700187a8    00000008     --HOLE-- [fill = 0]
                  700187b0    00000028                                                       : ospi_v0.obj (.text.OSPI_setCmdDummyCycles)
                  700187d8    00000008     --HOLE-- [fill = 0]
                  700187e0    00000028                                                       : ospi_v0.obj (.text.OSPI_setCmdExtType)
                  70018808    00000008     --HOLE-- [fill = 0]
                  70018810    00000028                                                       : ospi_v0.obj (.text.OSPI_setModeBits)
                  70018838    00000008     --HOLE-- [fill = 0]
                  70018840    00000028                                                       : ospi_v0.obj (.text.OSPI_setNumAddrBytes)
                  70018868    00000008     --HOLE-- [fill = 0]
                  70018870    00000028                                                       : ospi_v0.obj (.text.OSPI_setPhyEnableSuccess)
                  70018898    00000008     --HOLE-- [fill = 0]
                  700188a0    00000028                                                       : ospi_v0.obj (.text.OSPI_setProtocol)
                  700188c8    00000008     --HOLE-- [fill = 0]
                  700188d0    00000028                                                       : ospi_v0.obj (.text.OSPI_setReadDummyCycles)
                  700188f8    00000008     --HOLE-- [fill = 0]
                  70018900    00000028     nortos.am263px.r5f.ti-arm-clang.debug.lib : printf.obj (.text.vprintf_)
                  70018928    00000008     --HOLE-- [fill = 0]
                  70018930    00000026     drivers.am263px.r5f.ti-arm-clang.nortos.debug.lib : edma.obj (.text.EDMA_disableQdmaEvtRegion)
                  70018956    0000000a     --HOLE-- [fill = 0]
                  70018960    00000026                                                       : edma.obj (.text.EDMA_enableQdmaEvtRegion)
                  70018986    0000000a     --HOLE-- [fill = 0]
                  70018990    00000026                                                       : edma.obj (.text.EDMA_getIntrStatusRegion)
                  700189b6    0000000a     --HOLE-- [fill = 0]
                  700189c0    00000026                                                       : edma.obj (.text.EDMA_intrStatusHighGetRegion)
                  700189e6    0000000a     --HOLE-- [fill = 0]
                  700189f0    00000026                                                       : edma.obj (.text.EDMA_validateIntrObject)
                  70018a16    0000000a     --HOLE-- [fill = 0]
                  70018a20    00000024                                                       : ospi_phy_am26x_lld.obj (.text.CSL_REG32_FEXT_RAW)
                  70018a44    0000000c     --HOLE-- [fill = 0]
                  70018a50    00000024                                                       : ospi_v0_lld.obj (.text.CSL_REG32_FEXT_RAW)
                  70018a74    0000000c     --HOLE-- [fill = 0]
                  70018a80    00000024     board.am263px.r5f.ti-arm-clang.nortos.debug.lib : flash.obj (.text.Flash_getPhyTuningOffset)
                  70018aa4    0000000c     --HOLE-- [fill = 0]
                  70018ab0    00000024                                                     : flash_nor_ospi.obj (.text.Flash_norOspiClose)
                  70018ad4    0000000c     --HOLE-- [fill = 0]
                  70018ae0    00000024     drivers.am263px.r5f.ti-arm-clang.nortos.debug.lib : i2c_v1_lld.obj (.text.I2CControllerBusBusy)
                  70018b04    0000000c     --HOLE-- [fill = 0]
                  70018b10    00000024                                                       : i2c_v1.obj (.text.I2C_Transaction_init)
                  70018b34    0000000c     --HOLE-- [fill = 0]
                  70018b40    00000024                                                       : ospi_v0.obj (.text.OSPI_clearDualOpCodeMode)
                  70018b64    0000000c     --HOLE-- [fill = 0]
                  70018b70    00000024                                                       : ospi_edma_lld.obj (.text.OSPI_edmaIsrFxn)
                  70018b94    0000000c     --HOLE-- [fill = 0]
                  70018ba0    00000024                                                       : ospi_v0.obj (.text.OSPI_enableModeBitsCmd)
                  70018bc4    0000000c     --HOLE-- [fill = 0]
                  70018bd0    00000024                                                       : ospi_v0.obj (.text.OSPI_enableModeBitsRead)
                  70018bf4    0000000c     --HOLE-- [fill = 0]
                  70018c00    00000024                                                       : ospi_v0_lld.obj (.text.OSPI_lld_isDecoderChipSelectValid)
                  70018c24    0000000c     --HOLE-- [fill = 0]
                  70018c30    00000024     nortos.am263px.r5f.ti-arm-clang.debug.lib : SemaphoreP_nortos.obj (.text.SemaphoreP_constructMutex)
                  70018c54    0000000c     --HOLE-- [fill = 0]
                  70018c60    00000024     drivers.am263px.r5f.ti-arm-clang.nortos.debug.lib : uart_v0_lld.obj (.text.UART_IsRxTrigLvlValid)
                  70018c84    0000000c     --HOLE-- [fill = 0]
                  70018c90    00000024                                                       : uart_v0_lld.obj (.text.UART_IsStopBitsValid)
                  70018cb4    0000000c     --HOLE-- [fill = 0]
                  70018cc0    00000024                                                       : uart_v0_lld.obj (.text.UART_IsTxTrigLvlValid)
                  70018ce4    00000024     libclang_rt.builtins.a : aeabi_uldivmod.S.obj (.text.__aeabi_uldivmod)
                  70018d08    00000008     --HOLE-- [fill = 0]
                  70018d10    00000024     nortos.am263px.r5f.ti-arm-clang.debug.lib : printf.obj (.text._out_char)
                  70018d34    0000000c     --HOLE-- [fill = 0]
                  70018d40    00000022     drivers.am263px.r5f.ti-arm-clang.nortos.debug.lib : edma.obj (.text.EDMA_channelToParamMap)
                  70018d62    0000000e     --HOLE-- [fill = 0]
                  70018d70    00000022                                                       : ospi_v0_lld.obj (.text.OSPI_lld_param_check)
                  70018d92    0000000e     --HOLE-- [fill = 0]
                  70018da0    00000022                                                       : i2c_v1_lld.obj (.text.lld_check_param)
                  70018dc2    0000000e     --HOLE-- [fill = 0]
                  70018dd0    00000020                                                       : bootloader_uniflash_mcelf.obj (.text.Bootloader_Uniflash_MCELF_flashXIPFile)
                  70018df0    00000020     nortos.am263px.r5f.ti-arm-clang.debug.lib : ClockP_nortos.obj (.text.ClockP_isActive)
                  70018e10    00000020                                               : ClockP_nortos.obj (.text.ClockP_usecToTicks)
                  70018e30    00000020     drivers.am263px.r5f.ti-arm-clang.nortos.debug.lib : uart_v0_lld.obj (.text.HW_RD_FIELD32_RAW)
                  70018e50    00000020                                                       : ospi_v0_lld.obj (.text.OSPI_lld_readCompleteCallback)
                  70018e70    00000020     ti_drivers_config.obj (.text.System_init)
                  70018e90    0000001e     nortos.am263px.r5f.ti-arm-clang.debug.lib : ClockP_nortos.obj (.text.ClockP_Params_init)
                  70018eae    00000002     --HOLE-- [fill = 0]
                  70018eb0    0000001e     drivers.am263px.r5f.ti-arm-clang.nortos.debug.lib : edma.obj (.text.EDMA_getEventStatusHigh)
                  70018ece    00000002     --HOLE-- [fill = 0]
                  70018ed0    0000001e                                                       : i2c_v1_lld.obj (.text.I2CControllerEnable)
                  70018eee    00000002     --HOLE-- [fill = 0]
                  70018ef0    0000001e                                                       : i2c_v1_lld.obj (.text.I2CTargetEnable)
                  70018f0e    00000002     --HOLE-- [fill = 0]
                  70018f10    0000001e                                                       : ospi_v0.obj (.text.OSPI_dmaInterruptCallback)
                  70018f2e    00000002     --HOLE-- [fill = 0]
                  70018f30    0000001e                                                       : ospi_v0_lld.obj (.text.OSPI_getSramLevel)
                  70018f4e    00000002     --HOLE-- [fill = 0]
                  70018f50    0000001e                                                       : ospi_v0_lld.obj (.text.OSPI_getWriteSramLevel)
                  70018f6e    00000002     --HOLE-- [fill = 0]
                  70018f70    0000001e                                                       : ospi_v0.obj (.text.OSPI_interruptCallback)
                  70018f8e    00000002     --HOLE-- [fill = 0]
                  70018f90    0000001e                                                       : ospi_v0_lld.obj (.text.OSPI_lld_getFlashDataBaseAddr)
                  70018fae    00000002     --HOLE-- [fill = 0]
                  70018fb0    0000001e                                                       : soc.obj (.text.SOC_moduleClockEnable)
                  70018fce    00000002     --HOLE-- [fill = 0]
                  70018fd0    0000001e                                                       : uart_v0_lld.obj (.text.UART_breakCtl)
                  70018fee    00000002     --HOLE-- [fill = 0]
                  70018ff0    0000001e                                                       : uart_v0_lld.obj (.text.UART_lld_Transaction_deInit)
                  7001900e    00000002     --HOLE-- [fill = 0]
                  70019010    0000001e                                                       : uart_v0_lld.obj (.text.UART_writeInterrupt)
                  7001902e    00000002     --HOLE-- [fill = 0]
                  70019030    0000001c                                                       : edma.obj (.text.EDMA_errIntrHighStatusGet)
                  7001904c    00000004     --HOLE-- [fill = 0]
                  70019050    0000001c                                                       : edma.obj (.text.EDMA_getCCErrStatus)
                  7001906c    00000004     --HOLE-- [fill = 0]
                  70019070    0000001c                                                       : edma.obj (.text.EDMA_getErrIntrStatus)
                  7001908c    00000004     --HOLE-- [fill = 0]
                  70019090    0000001c                                                       : edma.obj (.text.EDMA_getEventStatus)
                  700190ac    00000004     --HOLE-- [fill = 0]
                  700190b0    0000001c                                                       : edma.obj (.text.EDMA_qdmaGetErrIntrStatus)
                  700190cc    00000004     --HOLE-- [fill = 0]
                  700190d0    0000001c                                                       : ospi_v0_lld.obj (.text.OSPI_clearInterrupt)
                  700190ec    00000004     --HOLE-- [fill = 0]
                  700190f0    0000001c                                                       : ospi_phy_am26x_lld.obj (.text.OSPI_lld_phyGetTuningData)
                  7001910c    00000004     --HOLE-- [fill = 0]
                  70019110    0000001c     board.am263px.r5f.ti-arm-clang.nortos.debug.lib : ioexp_tca6416.obj (.text.TCA6416_Params_init)
                  7001912c    00000004     --HOLE-- [fill = 0]
                  70019130    0000001c                                                     : ioexp_tca6424.obj (.text.TCA6424_Params_init)
                  7001914c    00000004     --HOLE-- [fill = 0]
                  70019150    0000001c     drivers.am263px.r5f.ti-arm-clang.nortos.debug.lib : uart_v0_lld.obj (.text.UART_IsParameter)
                  7001916c    00000004     --HOLE-- [fill = 0]
                  70019170    0000001c     ti_dpl_config.obj (.text.putchar_)
                  7001918c    0000001c     libsysbm.a : hostrename.c.obj (.text.strcpy)
                  700191a8    0000001c                : hostrename.c.obj (.text.strlen)
                  700191c4    0000001c     libc.a : memcpy32.S.obj (.text:TI_memcpy_small)
                  700191e0    0000001a     drivers.am263px.r5f.ti-arm-clang.nortos.debug.lib : i2c_v1.obj (.text.I2C_Params_init)
                  700191fa    00000006     --HOLE-- [fill = 0]
                  70019200    0000001a                                                       : ospi_v0_lld.obj (.text.OSPI_lld_setCmdExtType)
                  7001921a    00000006     --HOLE-- [fill = 0]
                  70019220    0000001a                                                       : uart_v0_lld.obj (.text.UART_fifoCharGet)
                  7001923a    00000006     --HOLE-- [fill = 0]
                  70019240    0000001a                                                       : uart_v0_lld.obj (.text.UART_timeGuardConfig)
                  7001925a    00000006     --HOLE-- [fill = 0]
                  70019260    00000018                                                       : edma.obj (.text.EDMA_clrCCErr)
                  70019278    00000008     --HOLE-- [fill = 0]
                  70019280    00000018                                                       : edma.obj (.text.EDMA_isInterruptEnabled)
                  70019298    00000008     --HOLE-- [fill = 0]
                  700192a0    00000018                                                       : i2c_v1_lld.obj (.text.I2CControllerDataPut)
                  700192b8    00000008     --HOLE-- [fill = 0]
                  700192c0    00000018                                                       : i2c_v1_lld.obj (.text.I2CControllerErr)
                  700192d8    00000008     --HOLE-- [fill = 0]
                  700192e0    00000018                                                       : i2c_v1_lld.obj (.text.I2CControllerIntDisableEx)
                  700192f8    00000008     --HOLE-- [fill = 0]
                  70019300    00000018                                                       : i2c_v1_lld.obj (.text.I2CControllerIntEnableEx)
                  70019318    00000008     --HOLE-- [fill = 0]
                  70019320    00000018                                                       : ospi_v0.obj (.text.OSPI_ReadCmdParams_init)
                  70019338    00000008     --HOLE-- [fill = 0]
                  70019340    00000018                                                       : ospi_v0.obj (.text.OSPI_Transaction_init)
                  70019358    00000008     --HOLE-- [fill = 0]
                  70019360    00000018                                                       : ospi_v0.obj (.text.OSPI_WriteCmdParams_init)
                  70019378    00000008     --HOLE-- [fill = 0]
                  70019380    00000018                                                       : ospi_edma_lld.obj (.text.OSPI_edmaItrStatus)
                  70019398    00000008     --HOLE-- [fill = 0]
                  700193a0    00000018                                                       : ospi_v0_lld.obj (.text.OSPI_lld_setPhyEnableSuccess)
                  700193b8    00000008     --HOLE-- [fill = 0]
                  700193c0    00000018     nortos.am263px.r5f.ti-arm-clang.debug.lib : SemaphoreP_nortos.obj (.text.SemaphoreP_Params_init)
                  700193d8    00000008     --HOLE-- [fill = 0]
                  700193e0    00000018     board.am263px.r5f.ti-arm-clang.nortos.debug.lib : ioexp_tca6416.obj (.text.TCA6416_getAttrs)
                  700193f8    00000008     --HOLE-- [fill = 0]
                  70019400    00000018                                                     : ioexp_tca6424.obj (.text.TCA6424_getAttrs)
                  70019418    00000008     --HOLE-- [fill = 0]
                  70019420    00000018     nortos.am263px.r5f.ti-arm-clang.debug.lib : TimerP_rti_priv.obj (.text.TimerP_getReloadCountPriv)
                  70019438    00000008     --HOLE-- [fill = 0]
                  70019440    00000018     drivers.am263px.r5f.ti-arm-clang.nortos.debug.lib : uart_v0_lld.obj (.text.UART_divisorLatchDisable)
                  70019458    00000008     --HOLE-- [fill = 0]
                  70019460    00000018                                                       : uart_v0_lld.obj (.text.UART_modemControlReset)
                  70019478    00000008     --HOLE-- [fill = 0]
                  70019480    00000018                                                       : uart_v0_lld.obj (.text.UART_putChar)
                  70019498    00000018     libc.a : memset32.S.obj (.text:TI_memset_small)
                  700194b0    00000016     drivers.am263px.r5f.ti-arm-clang.nortos.debug.lib : i2c_v1_lld.obj (.text.I2CControllerDisable)
                  700194c6    0000000a     --HOLE-- [fill = 0]
                  700194d0    00000016                                                       : i2c_v1_lld.obj (.text.I2CControllerIntStatusEx)
                  700194e6    0000000a     --HOLE-- [fill = 0]
                  700194f0    00000016                                                       : i2c_v1_lld.obj (.text.I2CControllerStart)
                  70019506    0000000a     --HOLE-- [fill = 0]
                  70019510    00000016                                                       : i2c_v1_lld.obj (.text.I2CControllerStop)
                  70019526    0000000a     --HOLE-- [fill = 0]
                  70019530    00000016                                                       : ospi_v0_lld.obj (.text.OSPI_lld_isDacEnable)
                  70019546    0000000a     --HOLE-- [fill = 0]
                  70019550    00000016                                                       : ospi_v0_lld.obj (.text.OSPI_lld_isPhyEnable)
                  70019566    0000000a     --HOLE-- [fill = 0]
                  70019570    00000016     nortos.am263px.r5f.ti-arm-clang.debug.lib : TimerP_rti_priv.obj (.text.TimerP_startPriv)
                  70019586    0000000a     --HOLE-- [fill = 0]
                  70019590    00000016                                               : TimerP_rti_priv.obj (.text.TimerP_stopPriv)
                  700195a6    0000000a     --HOLE-- [fill = 0]
                  700195b0    00000016     drivers.am263px.r5f.ti-arm-clang.nortos.debug.lib : uart_v0_lld.obj (.text.UART_divideRoundCloset)
                  700195c6    0000000a     --HOLE-- [fill = 0]
                  700195d0    00000016                                                       : uart_v0_lld.obj (.text.UART_regConfModeRestore)
                  700195e6    0000000a     --HOLE-- [fill = 0]
                  700195f0    00000014     nortos.am263px.r5f.ti-arm-clang.debug.lib : DebugP_uartLogWriter.obj (.text.DebugP_uartSetDrvIndex)
                  70019604    0000000c     --HOLE-- [fill = 0]
                  70019610    00000014     ti_drivers_open_close.obj (.text.Drivers_close)
                  70019624    0000000c     --HOLE-- [fill = 0]
                  70019630    00000014     ti_drivers_open_close.obj (.text.Drivers_open)
                  70019644    0000000c     --HOLE-- [fill = 0]
                  70019650    00000014     drivers.am263px.r5f.ti-arm-clang.nortos.debug.lib : edma.obj (.text.HW_WR_REG16_RAW)
                  70019664    0000000c     --HOLE-- [fill = 0]
                  70019670    00000014                                                       : i2c_v1_lld.obj (.text.I2CControllerIntClearEx)
                  70019684    0000000c     --HOLE-- [fill = 0]
                  70019690    00000014                                                       : i2c_v1_lld.obj (.text.I2CControllerTargetAddrSet)
                  700196a4    0000000c     --HOLE-- [fill = 0]
                  700196b0    00000014                                                       : i2c_v1_lld.obj (.text.I2CIntVectGet)
                  700196c4    0000000c     --HOLE-- [fill = 0]
                  700196d0    00000014                                                       : i2c_v1_lld.obj (.text.I2COwnAddressSet)
                  700196e4    0000000c     --HOLE-- [fill = 0]
                  700196f0    00000014                                                       : i2c_v1_lld.obj (.text.I2CSetDataCount)
                  70019704    0000000c     --HOLE-- [fill = 0]
                  70019710    00000014                                                       : ospi_phy_am26x.obj (.text.OSPI_phyGetTuningData)
                  70019724    0000000c     --HOLE-- [fill = 0]
                  70019730    00000014     nortos.am263px.r5f.ti-arm-clang.debug.lib : TimerP_rti_priv.obj (.text.TimerP_clearOverflowIntPriv)
                  70019744    0000000c     --HOLE-- [fill = 0]
                  70019750    00000014                                               : TimerP_rti_nortos.obj (.text.TimerP_setup)
                  70019764    00000014     libc.a : fgets.c.obj (.text.gets)
                  70019778    00000008     --HOLE-- [fill = 0]
                  70019780    00000012     drivers.am263px.r5f.ti-arm-clang.nortos.debug.lib : i2c_v1_lld.obj (.text.I2CControllerDataGet)
                  70019792    0000000e     --HOLE-- [fill = 0]
                  700197a0    00000012     ti_pinmux_config.obj (.text.Pinmux_init)
                  700197b2    0000000e     --HOLE-- [fill = 0]
                  700197c0    00000010     drivers.am263px.r5f.ti-arm-clang.nortos.debug.lib : ospi_phy_am26x_lld.obj (.text.CSL_REG32_WR_RAW)
                  700197d0    00000010                                                       : ospi_v0_lld.obj (.text.CSL_REG32_WR_RAW)
                  700197e0    00000010                                                       : pinmux.obj (.text.CSL_REG32_WR_RAW)
                  700197f0    00000010                                                       : soc.obj (.text.CSL_REG32_WR_RAW)
                  70019800    00000010     nortos.am263px.r5f.ti-arm-clang.debug.lib : ClockP_nortos_r5.obj (.text.ClockP_getTimerCount)
                  70019810    00000010                                               : ClockP_nortos_r5.obj (.text.ClockP_timerClearOverflowInt)
                  70019820    00000010     drivers.am263px.r5f.ti-arm-clang.nortos.debug.lib : edma.obj (.text.HW_RD_REG32_RAW)
                  70019830    00000010                                                       : uart_v0_lld.obj (.text.HW_RD_REG32_RAW)
                  70019840    00000010                                                       : edma.obj (.text.HW_WR_REG32_RAW)
                  70019850    00000010                                                       : uart_v0_lld.obj (.text.HW_WR_REG32_RAW)
                  70019860    00000010     nortos.am263px.r5f.ti-arm-clang.debug.lib : TimerP_rti_nortos.obj (.text.TimerP_Params_init)
                  70019870    00000010                                               : TimerP_rti_nortos.obj (.text.TimerP_clearOverflowInt)
                  70019880    00000010                                               : TimerP_rti_nortos.obj (.text.TimerP_getCount)
                  70019890    00000010                                               : TimerP_rti_nortos.obj (.text.TimerP_getReloadCount)
                  700198a0    00000010                                               : TimerP_rti_nortos.obj (.text.TimerP_start)
                  700198b0    00000010     libclang_rt.builtins.a : aeabi_memset.S.obj (.text.__aeabi_memset)
                  700198c0    00000010     nortos.am263px.r5f.ti-arm-clang.debug.lib : printf.obj (.text._out_null)
                  700198d0    00000010     libc.a : fputc.c.obj (.text.putchar)
                  700198e0    0000000c     ti_board_open_close.obj (.text.Board_driversClose)
                  700198ec    00000004     --HOLE-- [fill = 0]
                  700198f0    0000000c     drivers.am263px.r5f.ti-arm-clang.nortos.debug.lib : ospi_phy_am26x_lld.obj (.text.CSL_REG32_RD_RAW)
                  700198fc    00000004     --HOLE-- [fill = 0]
                  70019900    0000000c                                                       : ospi_v0_lld.obj (.text.CSL_REG32_RD_RAW)
                  7001990c    00000004     --HOLE-- [fill = 0]
                  70019910    0000000c     nortos.am263px.r5f.ti-arm-clang.debug.lib : ClockP_nortos.obj (.text.ClockP_getTicks)
                  7001991c    00000004     --HOLE-- [fill = 0]
                  70019920    0000000c     ti_power_clock_config.obj (.text.PowerClock_init)
                  7001992c    00000004     --HOLE-- [fill = 0]
                  70019930    0000000a     nortos.am263px.r5f.ti-arm-clang.debug.lib : HwiP_armv7r_vim.obj (.text.Hwip_dataAndInstructionBarrier)
                  7001993a    00000006     --HOLE-- [fill = 0]
                  70019940    0000000c     libc.a : strcmp32.S.obj (.text)
                  7001994c    00000004     --HOLE-- [fill = 0]
                  70019950    0000000a     drivers.am263px.r5f.ti-arm-clang.nortos.debug.lib : soc_rcm.obj (.text.SOC_rcmGetBaseAddressMSSRCM)
                  7001995a    00000006     --HOLE-- [fill = 0]
                  70019960    0000000a                                                       : uart_dma_edma.obj (.text.UART_edmaDoNothing)
                  7001996a    00000006     --HOLE-- [fill = 0]
                  70019970    00000008     ti_drivers_config.obj (.text.Drivers_uartInit)
                  70019978    00000008     --HOLE-- [fill = 0]
                  70019980    00000008     drivers.am263px.r5f.ti-arm-clang.nortos.debug.lib : soc_rcm.obj (.text.SOC_rcmGetBaseAddressMSSCTRL)
                  70019988    00000008     --HOLE-- [fill = 0]
                  70019990    00000008                                                       : soc_rcm.obj (.text.SOC_rcmGetBaseAddressTOPRCM)
                  70019998    00000008     --HOLE-- [fill = 0]
                  700199a0    00000008     nortos.am263px.r5f.ti-arm-clang.debug.lib : SemaphoreP_nortos.obj (.text.SemaphoreP_destruct)
                  700199a8    00000008     --HOLE-- [fill = 0]
                  700199b0    00000002                                               : TaskP_nortos.obj (.text.TaskP_yield)
                  700199b2    0000000e     --HOLE-- [fill = 0]

.text.hwi 
*          0    700199c0    00000e50     
                  700199c0    000006c0     nortos.am263px.r5f.ti-arm-clang.debug.lib : HwiP_armv7r_vim.obj (.text.hwi)
                  7001a080    0000059a                                               : HwiP_armv7r_handlers_nortos.obj (.text.hwi)
                  7001a61a    00000002     --HOLE-- [fill = 0]
                  7001a61c    0000017c                                               : HwiP_armv7r_handlers_nortos_asm.obj (.text.hwi)
                  7001a798    00000070                                               : HwiP_armv7r_asm.obj (.text.hwi)
                  7001a808    00000008     --HOLE-- [fill = 0]

.text.cache 
*          0    7001a810    000004a0     
                  7001a810    00000340     nortos.am263px.r5f.ti-arm-clang.debug.lib : CacheP_armv7r_asm.obj (.text.cache)
                  7001ab50    00000158                                               : CacheP_armv7r.obj (.text.cache)
                  7001aca8    00000008     --HOLE-- [fill = 0]

.text.mpu 
*          0    7001acb0    000003c0     
                  7001acb0    00000340     nortos.am263px.r5f.ti-arm-clang.debug.lib : MpuP_armv7r.obj (.text.mpu)
                  7001aff0    00000078                                               : MpuP_armv7r_asm.obj (.text.mpu)
                  7001b068    00000008     --HOLE-- [fill = 0]

.text.boot 
*          0    7001b070    000001c0     
                  7001b070    00000144     nortos.am263px.r5f.ti-arm-clang.debug.lib : boot_armv7r_asm.obj (.text.boot)
                  7001b1b4    0000000c     --HOLE-- [fill = 0]
                  7001b1c0    00000024                                               : DebugP_log.obj (.text.boot)
                  7001b1e4    0000000c     --HOLE-- [fill = 0]
                  7001b1f0    00000024                                               : boot_armv7r.obj (.text.boot)
                  7001b214    0000000c     --HOLE-- [fill = 0]
                  7001b220    0000000c     ti_dpl_config.obj (.text.boot)
                  7001b22c    00000004     --HOLE-- [fill = 0]

.data      0    7001b230    000009e8     
                  7001b230    0000011e     main.obj (.data.gMainMenu)
                  7001b34e    00000001     drivers.am263px.r5f.ti-arm-clang.nortos.debug.lib : soc.obj (.data.isMapAvailable)
                  7001b34f    00000001     --HOLE-- [fill = 0]
                  7001b350    000000f0     libc.a : defs.c.obj (.data._ftable)
                  7001b440    00000098     ti_drivers_config.obj (.data.gOspiAttrs)
                  7001b4d8    00000098     ti_pinmux_config.obj (.data.gPinMuxMainDomainCfg)
                  7001b570    00000088     ti_drivers_config.obj (.data.gEdmaAttrs)
                  7001b5f8    00000084     ti_board_open_close.obj (.data.gFlashDevCfg_IS25LX256)
                  7001b67c    00000080     drivers.am263px.r5f.ti-arm-clang.nortos.debug.lib : ospi_phy_am26x_lld.obj (.data.gOspiFlashAttackVector)
                  7001b6fc    00000080                                                       : ospi_phy_am26x_lld.obj (.data.gReadBuf)
                  7001b77c    00000078     libsysbm.a : host_device.c.obj (.data._device)
                  7001b7f4    00000058     ti_drivers_open_close.obj (.data.gUartParams)
                  7001b84c    00000050     libsysbm.a : host_device.c.obj (.data._stream)
                  7001b89c    00000038     ti_board_open_close.obj (.data.gFlashAttrs_IS25LX256)
                  7001b8d4    00000030     ti_drivers_config.obj (.data.gI2cHwAttrs)
                  7001b904    00000030     ti_power_clock_config.obj (.data.gSocModulesClockFrequency)
                  7001b934    00000024     board.am263px.r5f.ti-arm-clang.nortos.debug.lib : flash_nor_ospi.obj (.data.gFlashNorOspiFxns)
                  7001b958    00000024                                                     : flash_nor_ospi.obj (.data.gFlashToSpiProtocolMap)
                  7001b97c    00000018     ti_dpl_config.obj (.data.gClockConfig)
                  7001b994    00000018     drivers.am263px.r5f.ti-arm-clang.nortos.debug.lib : soc_rcm.obj (.data.gControlssPllClkSrcValMap)
                  7001b9ac    00000018                                                       : soc_rcm.obj (.data.gCptsClkSrcValMap)
                  7001b9c4    00000018     ti_board_open_close.obj (.data.gFlashConfig)
                  7001b9dc    00000018     drivers.am263px.r5f.ti-arm-clang.nortos.debug.lib : soc_rcm.obj (.data.gI2cClkSrcValMap)
                  7001b9f4    00000018     ti_drivers_open_close.obj (.data.gI2cParams)
                  7001ba0c    00000018     drivers.am263px.r5f.ti-arm-clang.nortos.debug.lib : soc_rcm.obj (.data.gIcssmUartClkSrcValMap)
                  7001ba24    00000018                                                       : soc_rcm.obj (.data.gLinUartClkSrcValMap)
                  7001ba3c    00000018                                                       : soc_rcm.obj (.data.gMcSpiClkSrcValMap)
                  7001ba54    00000018                                                       : soc_rcm.obj (.data.gMcanClkSrcValMap)
                  7001ba6c    00000018                                                       : soc_rcm.obj (.data.gMmcClkSrcValMap)
                  7001ba84    00000018                                                       : soc_rcm.obj (.data.gOspiClkSrcValMap)
                  7001ba9c    00000018     ti_drivers_config.obj (.data.gOspiDmaRestrictRegions)
                  7001bab4    00000018     drivers.am263px.r5f.ti-arm-clang.nortos.debug.lib : soc_rcm.obj (.data.gRtiClkSrcValMap)
                  7001bacc    00000018                                                       : soc_rcm.obj (.data.gWdtClkSrcValMap)
                  7001bae4    00000014                                                       : i2c_v1.obj (.data.gI2cDrvObj)
                  7001baf8    00000014                                                       : ospi_v0.obj (.data.gOspiDrvObj)
                  7001bb0c    00000014                                                       : uart_v0.obj (.data.gUartDrvObj)
                  7001bb20    00000010     board.am263px.r5f.ti-arm-clang.nortos.debug.lib : eeprom_cat24m.obj (.data.gEepromFxns_CAT24M)
                  7001bb30    00000010     ti_drivers_config.obj (.data.gI2cConfig)
                  7001bb40    00000010     drivers.am263px.r5f.ti-arm-clang.nortos.debug.lib : ospi_edma_lld.obj (.data.gOspiDmaEdmaFxns)
                  7001bb50    00000010     ti_power_clock_config.obj (.data.gSocModules)
                  7001bb60    0000000c     nortos.am263px.r5f.ti-arm-clang.debug.lib : AddrTranslateP_32bit.obj (.data.gAddrTranslateConfig)
                  7001bb6c    0000000c     board.am263px.r5f.ti-arm-clang.nortos.debug.lib : eeprom_cat24m.obj (.data.gEepromAttrs_CAT24M)
                  7001bb78    0000000c     ti_board_open_close.obj (.data.gEepromConfig)
                  7001bb84    0000000c     ti_drivers_config.obj (.data.gOspiDmaConfig)
                  7001bb90    00000008     libc.a : exit.c.obj (.data..L_MergedGlobals)
                  7001bb98    00000008     ti_drivers_config.obj (.data.gEdmaConfig)
                  7001bba0    00000008     ti_drivers_open_close.obj (.data.gEdmaParams)
                  7001bba8    00000008     ti_board_open_close.obj (.data.gEepromParams)
                  7001bbb0    00000008     ti_board_open_close.obj (.data.gFlashParams)
                  7001bbb8    00000008     ti_drivers_config.obj (.data.gOspiConfig)
                  7001bbc0    00000008     ti_drivers_config.obj (.data.gUartAttrs)
                  7001bbc8    00000008     ti_drivers_config.obj (.data.gUartConfig)
                  7001bbd0    00000004     libc.a : defs.c.obj (.data.__TI_ft_end)
                  7001bbd4    00000004            : aeabi_portable.c.obj (.data.__aeabi_errno)
                  7001bbd8    00000004            : _lock.c.obj (.data._lock)
                  7001bbdc    00000004            : _lock.c.obj (.data._unlock)
                  7001bbe0    00000004     nortos.am263px.r5f.ti-arm-clang.debug.lib : DebugP_log.obj (.data.gDebugLogZone)
                  7001bbe4    00000004                                               : DebugP_uartLogWriter.obj (.data.gDebugP_uartDrvIndex)
                  7001bbe8    00000004     ti_drivers_config.obj (.data.gEdmaConfigNum)
                  7001bbec    00000004     ti_board_open_close.obj (.data.gEepromConfigNum)
                  7001bbf0    00000004     ti_board_open_close.obj (.data.gFlashConfigNum)
                  7001bbf4    00000004     ti_dpl_config.obj (.data.gHwiConfig)
                  7001bbf8    00000004     ti_drivers_config.obj (.data.gI2cConfigNum)
                  7001bbfc    00000004     ti_drivers_config.obj (.data.gOspiConfigNum)
                  7001bc00    00000004     ti_drivers_config.obj (.data.gOspiDmaConfigNum)
                  7001bc04    00000004     ti_drivers_open_close.obj (.data.gOspiParams)
                  7001bc08    00000004     ti_drivers_config.obj (.data.gUartConfigNum)
                  7001bc0c    00000004     ti_drivers_open_close.obj (.data.gUartDmaChConfig)
                  7001bc10    00000001     libc.a : memory.c.obj (.data.memory_is_initialized)
                  7001bc11    00000003     --HOLE-- [fill = 0]
                  7001bc14    00000001     libsysbm.a : open.c.obj (.data.open.stream_init)
                  7001bc15    00000003     --HOLE-- [fill = 0]

.rodata    0    7001bc20    00001170     
                  7001bc20    00000101     libc.a : aeabi_ctype.S.obj (.rodata:__aeabi_ctype_table_)
                  7001bd21    00000003     main.obj (.rodata.str1.15159059442110792349.1)
                  7001bd24    00000064     ti_dpl_config.obj (.rodata.cfg)
                  7001bd88    00000056     main.obj (.rodata.str1.2123964117280943167.1)
                  7001bdde    00000055     main.obj (.rodata.str1.11870794119293528247.1)
                  7001be33    00000053     main.obj (.rodata.str1.14112174005742061988.1)
                  7001be86    00000051     main.obj (.rodata.str1.16265332423659789559.1)
                  7001bed7    00000051     main.obj (.rodata.str1.7702501944640899365.1)
                  7001bf28    00000050     nortos.am263px.r5f.ti-arm-clang.debug.lib : printf.obj (.rodata._ftoa.pow10)
                  7001bf78    00000048     drivers.am263px.r5f.ti-arm-clang.nortos.debug.lib : soc_rcm.obj (.rodata.gADPLLJConfigTbl)
                  7001bfc0    00000046     board.am263px.r5f.ti-arm-clang.nortos.debug.lib : flash_nor_ospi.obj (.rodata.str1.13779914010620811852.1)
                  7001c006    00000041     main.obj (.rodata.str1.16631870348416990953.1)
                  7001c047    0000003d     nortos.am263px.r5f.ti-arm-clang.debug.lib : TimerP_rti_priv.obj (.rodata.str1.11388379688747141303.1)
                  7001c084    0000003a     main.obj (.rodata.str1.15996357275703397564.1)
                  7001c0be    00000039     main.obj (.rodata.str1.11702106008850790973.1)
                  7001c0f7    00000038     ti_drivers_open_close.obj (.rodata.str1.871795152488895636.1)
                  7001c12f    00000037     ti_board_open_close.obj (.rodata.str1.12245025114167949655.1)
                  7001c166    00000037     main.obj (.rodata.str1.13288086030101331538.1)
                  7001c19d    00000037     main.obj (.rodata.str1.8154729771448623357.1)
                  7001c1d4    00000036     ti_board_open_close.obj (.rodata.str1.6201324418384543622.1)
                  7001c20a    00000035     ti_drivers_open_close.obj (.rodata.str1.10252002122772422448.1)
                  7001c23f    00000035     ti_drivers_open_close.obj (.rodata.str1.2554706296470369595.1)
                  7001c274    00000035     ti_drivers_open_close.obj (.rodata.str1.7750254725308216577.1)
                  7001c2a9    00000033     main.obj (.rodata.str1.288608917962107522.1)
                  7001c2dc    00000032     main.obj (.rodata.str1.9059077390166914652.1)
                  7001c30e    00000031     main.obj (.rodata.str1.2846389346932560359.1)
                  7001c33f    00000030     main.obj (.rodata.str1.7784929982665794503.1)
                  7001c36f    0000002f     main.obj (.rodata.str1.3530083166107438000.1)
                  7001c39e    0000002e     main.obj (.rodata.str1.13782249893155712474.1)
                  7001c3cc    0000002e     main.obj (.rodata.str1.17376258722486336754.1)
                  7001c3fa    0000002d     main.obj (.rodata.str1.10313062130652730376.1)
                  7001c427    0000002d     main.obj (.rodata.str1.18227636981041470289.1)
                  7001c454    0000002c     drivers.am263px.r5f.ti-arm-clang.nortos.debug.lib : i2c_v1.obj (.rodata.I2C_defaultTransaction)
                  7001c480    0000002b     main.obj (.rodata.str1.10635229749459437609.1)
                  7001c4ab    0000002a     nortos.am263px.r5f.ti-arm-clang.debug.lib : DebugP_log.obj (.rodata.str1.227947788441500939.1)
                  7001c4d5    0000002a     main.obj (.rodata.str1.6891813955777630061.1)
                  7001c4ff    0000002a     main.obj (.rodata.str1.8076846746581808073.1)
                  7001c529    00000029     main.obj (.rodata.str1.18092426736022315238.1)
                  7001c552    00000029     main.obj (.rodata.str1.2763581881760962609.1)
                  7001c57b    00000028     main.obj (.rodata.str1.14402440632258215044.1)
                  7001c5a3    00000028     main.obj (.rodata.str1.16302215771116645891.1)
                  7001c5cb    00000028     main.obj (.rodata.str1.8108965883388295311.1)
                  7001c5f3    00000027     main.obj (.rodata.str1.12180500075719773345.1)
                  7001c61a    00000027     nortos.am263px.r5f.ti-arm-clang.debug.lib : ClockP_nortos_r5.obj (.rodata.str1.12743090444791882666.1)
                  7001c641    00000027     main.obj (.rodata.str1.1311392489248731986.1)
                  7001c668    00000026     main.obj (.rodata.str1.14079361385603432444.1)
                  7001c68e    00000024     drivers.am263px.r5f.ti-arm-clang.nortos.debug.lib : edma.obj (.rodata.str1.11535555375892780929.1)
                  7001c6b2    00000023                                                       : soc_rcm.obj (.rodata.str1.2078190104202520215.1)
                  7001c6d5    00000023     nortos.am263px.r5f.ti-arm-clang.debug.lib : ClockP_nortos_r5.obj (.rodata.str1.7689125538912326484.1)
                  7001c6f8    00000022     drivers.am263px.r5f.ti-arm-clang.nortos.debug.lib : edma.obj (.rodata.str1.12976018205622752890.1)
                  7001c71a    00000022     ti_board_config.obj (.rodata.str1.6632415607140922803.1)
                  7001c73c    00000021     nortos.am263px.r5f.ti-arm-clang.debug.lib : ClockP_nortos_r5.obj (.rodata.str1.8559540482768925367.1)
                  7001c75d    00000020     drivers.am263px.r5f.ti-arm-clang.nortos.debug.lib : ospi_v0_lld.obj (.rodata.gTable)
                  7001c77d    00000020                                                       : uart_v0.obj (.rodata.str1.16594507886308206351.1)
                  7001c79d    0000001f     nortos.am263px.r5f.ti-arm-clang.debug.lib : ClockP_nortos_r5.obj (.rodata.str1.2746619892315392655.1)
                  7001c7bc    0000001d                                               : TimerP_rti_priv.obj (.rodata.str1.1727973701797049581.1)
                  7001c7d9    0000001d                                               : TimerP_rti_priv.obj (.rodata.str1.4425773406285945039.1)
                  7001c7f6    0000001d     drivers.am263px.r5f.ti-arm-clang.nortos.debug.lib : uart_v0.obj (.rodata.str1.4697665093340446018.1)
                  7001c813    0000001d     nortos.am263px.r5f.ti-arm-clang.debug.lib : TimerP_rti_priv.obj (.rodata.str1.7297095892955669843.1)
                  7001c830    0000001d     drivers.am263px.r5f.ti-arm-clang.nortos.debug.lib : ospi_v0.obj (.rodata.str1.9709051275431913386.1)
                  7001c84d    0000001c     ti_board_config.obj (.rodata.str1.1163043902305149133.1)
                  7001c869    0000001b     drivers.am263px.r5f.ti-arm-clang.nortos.debug.lib : edma.obj (.rodata.str1.16672221102796607080.1)
                  7001c884    0000001b     main.obj (.rodata.str1.8096991282711418442.1)
                  7001c89f    0000001a     main.obj (.rodata.str1.14466178792657420020.1)
                  7001c8b9    0000001a     drivers.am263px.r5f.ti-arm-clang.nortos.debug.lib : soc_rcm.obj (.rodata.str1.16907879152045164286.1)
                  7001c8d3    0000001a     ti_board_config.obj (.rodata.str1.16921083087495105931.1)
                  7001c8ed    0000001a     drivers.am263px.r5f.ti-arm-clang.nortos.debug.lib : i2c_v1.obj (.rodata.str1.2708024660006642838.1)
                  7001c907    0000001a     nortos.am263px.r5f.ti-arm-clang.debug.lib : ClockP_nortos_r5.obj (.rodata.str1.3810757863367538396.1)
                  7001c921    0000001a     drivers.am263px.r5f.ti-arm-clang.nortos.debug.lib : edma.obj (.rodata.str1.7525109154754115535.1)
                  7001c93b    0000001a     main.obj (.rodata.str1.7996925722583989644.1)
                  7001c955    00000019     nortos.am263px.r5f.ti-arm-clang.debug.lib : TimerP_rti_priv.obj (.rodata.str1.5494506574634759136.1)
                  7001c96e    00000002     --HOLE-- [fill = 0]
                  7001c970    00000018     drivers.am263px.r5f.ti-arm-clang.nortos.debug.lib : i2c_v1_lld.obj (.rodata.I2C_lld_defaultMessage)
                  7001c988    00000018                                                       : soc_rcm.obj (.rodata.gPeripheralClkSrcInfoMap)
                  7001c9a0    00000018                                                       : i2c_v1.obj (.rodata.str1.16369086400766814308.1)
                  7001c9b8    00000018                                                       : uart_v0.obj (.rodata.str1.16507871919775359273.1)
                  7001c9d0    00000018                                                       : i2c_v1.obj (.rodata.str1.4713777613235169076.1)
                  7001c9e8    00000018                                                       : i2c_v1.obj (.rodata.str1.706085228479171695.1)
                  7001ca00    00000017                                                       : soc_rcm.obj (.rodata.str1.1263028196474875090.1)
                  7001ca17    00000016                                                       : ospi_v0.obj (.rodata.str1.11859302641611729341.1)
                  7001ca2d    00000016                                                       : soc_rcm.obj (.rodata.str1.15837709475095375462.1)
                  7001ca43    00000016                                                       : soc_rcm.obj (.rodata.str1.18101715471844446405.1)
                  7001ca59    00000016                                                       : soc_rcm.obj (.rodata.str1.503491203257075565.1)
                  7001ca6f    00000015                                                       : edma.obj (.rodata.str1.9771253703579349310.1)
                  7001ca84    00000014                                                       : edma.obj (.rodata.str1.14977302951450442404.1)
                  7001ca98    00000014                                                       : edma.obj (.rodata.str1.16586217098785273673.1)
                  7001caac    00000014                                                       : edma.obj (.rodata.str1.6479261940699871955.1)
                  7001cac0    00000013                                                       : soc_rcm.obj (.rodata.str1.1513614241493853460.1)
                  7001cad3    00000013                                                       : uart_v0.obj (.rodata.str1.8511823138002593779.1)
                  7001cae6    00000012                                                       : uart_v0.obj (.rodata.str1.10085477686273322470.1)
                  7001caf8    00000012                                                       : ospi_v0.obj (.rodata.str1.18098494674240039306.1)
                  7001cb0a    00000012                                                       : uart_v0.obj (.rodata.str1.1906408950570946892.1)
                  7001cb1c    00000012     ti_board_config.obj (.rodata.str1.2665699780754298233.1)
                  7001cb2e    00000012     board.am263px.r5f.ti-arm-clang.nortos.debug.lib : flash_nor_ospi.obj (.rodata.str1.4376659186122576720.1)
                  7001cb40    00000012     drivers.am263px.r5f.ti-arm-clang.nortos.debug.lib : soc_rcm.obj (.rodata.str1.6089483996110695684.1)
                  7001cb52    00000012                                                       : edma.obj (.rodata.str1.8988798825313313125.1)
                  7001cb64    00000011     ti_drivers_open_close.obj (.rodata.str1.12213835641041270557.1)
                  7001cb75    00000011     drivers.am263px.r5f.ti-arm-clang.nortos.debug.lib : edma.obj (.rodata.str1.13359792024450833872.1)
                  7001cb86    00000011     ti_drivers_open_close.obj (.rodata.str1.17021506947730909760.1)
                  7001cb97    00000011     drivers.am263px.r5f.ti-arm-clang.nortos.debug.lib : uart_v0.obj (.rodata.str1.18277465892467933209.1)
                  7001cba8    00000011     ti_board_open_close.obj (.rodata.str1.2235680336123228840.1)
                  7001cbb9    00000011     ti_drivers_open_close.obj (.rodata.str1.6292539624901818759.1)
                  7001cbca    00000011     drivers.am263px.r5f.ti-arm-clang.nortos.debug.lib : edma.obj (.rodata.str1.7198617623142260305.1)
                  7001cbdb    00000011     nortos.am263px.r5f.ti-arm-clang.debug.lib : TimerP_rti_priv.obj (.rodata.str1.7786169893402823657.1)
                  7001cbec    00000010     drivers.am263px.r5f.ti-arm-clang.nortos.debug.lib : i2c_v1.obj (.rodata.str1.15304174031418066064.1)
                  7001cbfc    00000010                                                       : edma.obj (.rodata.str1.16687974986316968853.1)
                  7001cc0c    00000010     ti_board_open_close.obj (.rodata.str1.1844215614325442070.1)
                  7001cc1c    00000010     ti_drivers_open_close.obj (.rodata.str1.6437641722977580707.1)
                  7001cc2c    0000000f     drivers.am263px.r5f.ti-arm-clang.nortos.debug.lib : i2c_v1.obj (.rodata.str1.11436736645546584573.1)
                  7001cc3b    0000000f                                                       : edma.obj (.rodata.str1.12381575634899622488.1)
                  7001cc4a    0000000f                                                       : edma.obj (.rodata.str1.15707078201242323249.1)
                  7001cc59    0000000f                                                       : edma.obj (.rodata.str1.2781376525681532154.1)
                  7001cc68    0000000f                                                       : edma.obj (.rodata.str1.4907917467944964367.1)
                  7001cc77    0000000e                                                       : edma.obj (.rodata.str1.1669868279207928169.1)
                  7001cc85    0000000e                                                       : edma.obj (.rodata.str1.6128441279204879358.1)
                  7001cc93    0000000e                                                       : edma.obj (.rodata.str1.6928588723460450634.1)
                  7001cca1    0000000d                                                       : edma.obj (.rodata.str1.14657363906792235350.1)
                  7001ccae    0000000d     nortos.am263px.r5f.ti-arm-clang.debug.lib : TimerP_rti_priv.obj (.rodata.str1.15140844044942405278.1)
                  7001ccbb    0000000c                                               : ClockP_nortos_r5.obj (.rodata.str1.13463193513887205357.1)
                  7001ccc7    0000000c     drivers.am263px.r5f.ti-arm-clang.nortos.debug.lib : ospi_v0.obj (.rodata.str1.1381366092953500863.1)
                  7001ccd3    0000000c                                                       : edma.obj (.rodata.str1.8587431144907355806.1)
                  7001ccdf    0000000b                                                       : uart_v0.obj (.rodata.str1.1151567497034493012.1)
                  7001ccea    0000000b                                                       : edma.obj (.rodata.str1.597652134494230196.1)
                  7001ccf5    0000000b                                                       : uart_v0.obj (.rodata.str1.6746041542798830823.1)
                  7001cd00    0000000a                                                       : edma.obj (.rodata.str1.1531866724018994888.1)
                  7001cd0a    0000000a                                                       : edma.obj (.rodata.str1.15529668034699970473.1)
                  7001cd14    0000000a                                                       : ospi_v0.obj (.rodata.str1.2522741049104592306.1)
                  7001cd1e    0000000a                                                       : i2c_v1.obj (.rodata.str1.3288561361854740495.1)
                  7001cd28    0000000a                                                       : soc_rcm.obj (.rodata.str1.3349473071634452315.1)
                  7001cd32    0000000a                                                       : ospi_v0.obj (.rodata.str1.6252689431402132518.1)
                  7001cd3c    0000000a     ti_board_open_close.obj (.rodata.str1.760704006985994805.1)
                  7001cd46    0000000a     drivers.am263px.r5f.ti-arm-clang.nortos.debug.lib : uart_v0.obj (.rodata.str1.7892831408302009747.1)
                  7001cd50    0000000a                                                       : uart_v0.obj (.rodata.str1.8477608605346433529.1)
                  7001cd5a    00000009                                                       : i2c_v1.obj (.rodata.str1.6120977755438783109.1)
                  7001cd63    00000001     --HOLE-- [fill = 0]
                  7001cd64    00000008                                                       : soc_rcm.obj (.rodata.gXTALInfo)
                  7001cd6c    00000006                                                       : soc_rcm.obj (.rodata.str1.12246138248821672736.1)
                  7001cd72    00000005     nortos.am263px.r5f.ti-arm-clang.debug.lib : printf.obj (.rodata.str1.8544352122861784523.1)
                  7001cd77    00000005                                               : printf.obj (.rodata.str1.8812429412984920041.1)
                  7001cd7c    00000004                                               : CacheP_armv7r.obj (.rodata.gCacheL1dCacheLineSize)
                  7001cd80    00000004                                               : CacheP_armv7r.obj (.rodata.gCacheL1pCacheLineSize)
                  7001cd84    00000004                                               : printf.obj (.rodata.str1.13278797451342649413.1)
                  7001cd88    00000004                                               : printf.obj (.rodata.str1.17155598869870286803.1)
                  7001cd8c    00000003     main.obj (.rodata.str1.17100691992556644108.1)
                  7001cd8f    00000001     --HOLE-- [fill = 0]

.bss       0    7001ce00    00009300     UNINITIALIZED
                  7001ce00    00008000     main.obj (.bss)
                  70024e00    0000080c     (.common:gHwiCtrl)
                  7002560c    000001d0     ti_drivers_config.obj (.bss.gI2cObjects)
                  700257dc    00000004     nortos.am263px.r5f.ti-arm-clang.debug.lib : HwiP_armv7r_vim.obj (.bss.gdummy)
                  700257e0    000001b0     ti_drivers_config.obj (.bss.gUartObjects)
                  70025990    00000180     main.obj (.bss.filename)
                  70025b10    00000144     ti_drivers_config.obj (.bss.gOspiObjects)
                  70025c54    00000124     (.common:gEepromObject_CAT24M)
                  70025d78    00000120     libsysbm.a : trgmsg.c.obj (.bss:_CIOBUF_)
                  70025e98    000000b0     ti_drivers_config.obj (.bss.gEdmaObjects)
                  70025f48    000000a0     libc.a : defs.c.obj (.bss.__TI_tmpnams)
                  70025fe8    00000038     (.common:gOspiEdmaArgs)
                  70026020    00000020     (.common:gClockCtrl)
                  70026040    00000014     (.common:gFlashObject_IS25LX256)
                  70026054    00000010     main.obj (.bss.inputStr)
                  70026064    00000010     (.common:virtToPhymap)
                  70026074    00000008     libsysbm.a : hostopen.c.obj (.bss.parmbuf)
                  7002607c    00000008     (.common:gI2cHandle)
                  70026084    00000004     libc.a : memory.c.obj (.bss.sys_free)
                  70026088    00000004     (.common:gEdmaHandle)
                  7002608c    00000004     (.common:gEepromHandle)
                  70026090    00000004     (.common:gFlashHandle)
                  70026094    00000004     (.common:gOspiHandle)
                  70026098    00000004     (.common:gUartHandle)
                  7002609c    00000064     --HOLE--

.sysmem    0    70026100    00008000     UNINITIALIZED
                  70026100    00000010     libc.a : memory.c.obj (.sysmem)
                  70026110    00007ff0     --HOLE--

.stack     0    7002e100    00004000     UNINITIALIZED
                  7002e100    00000004     nortos.am263px.r5f.ti-arm-clang.debug.lib : boot_armv7r_asm.obj (.stack)
                  7002e104    00003ffc     --HOLE--

.irqstack 
*          0    70032100    00001000     UNINITIALIZED
                  70032100    00001000     --HOLE--

.fiqstack 
*          0    70033100    00000100     UNINITIALIZED
                  70033100    00000100     --HOLE--

.svcstack 
*          0    70033200    00001000     UNINITIALIZED
                  70033200    00001000     --HOLE--

.abortstack 
*          0    70034200    00000100     UNINITIALIZED
                  70034200    00000100     --HOLE--

.undefinedstack 
*          0    70034300    00000100     UNINITIALIZED
                  70034300    00000100     --HOLE--

.bss.filebuf 
*          0    700c0000    001c0000     NOLOAD SECTION
                  700c0000    001c0000     main.obj (.bss.filebuf)

__llvm_prf_cnts 
*          0    70002100    00000000     UNINITIALIZED

__llvm_prf_bits 
*          0    70002100    00000000     UNINITIALIZED

MODULE SUMMARY

       Module                                code    ro data   rw data
       ------                                ----    -------   -------
    obj/debug/
       main.obj                              1514    1663      1868462
       ti_drivers_config.obj                 40      0         1892   
       ti_drivers_open_close.obj             1036    282       148    
       ti_board_open_close.obj               574     152       568    
       ti_board_config.obj                   472     106       0      
       ti_power_clock_config.obj             180     0         64     
       ti_dpl_config.obj                     108     100       28     
       ti_pinmux_config.obj                  18      0         152    
    +--+-------------------------------------+-------+---------+---------+
       Total:                                3942    2303      1871314
                                                                      
    /home/epswbld5/ti/ccs2030/ccs/tools/compiler/ti-cgt-armllvm_4.0.3.LTS/lib/armv7r-ti-none-eabihf/c/libc.a
       memory.c.obj                          1136    0         5      
       strcmp32.S.obj                        924     0         0      
       fopen.c.obj                           740     0         0      
       fgets.c.obj                           640     0         0      
       strtol.c.obj                          504     0         0      
       defs.c.obj                            0       0         404    
       setvbuf.c.obj                         324     0         0      
       getdevice.c.obj                       284     0         0      
       _io_perm.c.obj                        276     0         0      
       aeabi_ctype.S.obj                     0       257       0      
       fputc.c.obj                           256     0         0      
       fclose.c.obj                          252     0         0      
       _bufread.c.obj                        232     0         0      
       fseek.c.obj                           184     0         0      
       ftell.c.obj                           184     0         0      
       fflush.c.obj                          136     0         0      
       exit.c.obj                            92      0         8      
       autoinit.c.obj                        84      0         0      
       memcmp.c.obj                          64      0         0      
       memcpy32.S.obj                        28      0         0      
       memset32.S.obj                        24      0         0      
       aeabi_portable.c.obj                  12      0         4      
       _lock.c.obj                           4       0         8      
    +--+-------------------------------------+-------+---------+---------+
       Total:                                6380    257       429    
                                                                      
    /home/epswbld5/ti/ccs2030/ccs/tools/compiler/ti-cgt-armllvm_4.0.3.LTS/lib/armv7r-ti-none-eabihf/c/libsysbm.a
       trgmsg.c.obj                          176     0         288    
       open.c.obj                            312     0         1      
       hostrename.c.obj                      216     0         0      
       host_device.c.obj                     0       0         200    
       hostopen.c.obj                        148     0         8      
       hostlseek.c.obj                       152     0         0      
       close.c.obj                           140     0         0      
       hostread.c.obj                        132     0         0      
       hostwrite.c.obj                       132     0         0      
       hostunlink.c.obj                      108     0         0      
       hostclose.c.obj                       96      0         0      
       unlink.c.obj                          72      0         0      
       lseek.c.obj                           52      0         0      
       read.c.obj                            52      0         0      
       write.c.obj                           52      0         0      
       hostexit.c.obj                        8       0         0      
       remove.c.obj                          4       0         0      
    +--+-------------------------------------+-------+---------+---------+
       Total:                                1852    0         497    
                                                                      
    /home/epswbld5/ti/ccs2030/ccs/tools/compiler/ti-cgt-armllvm_4.0.3.LTS/lib/armv7r-ti-none-eabihf/libclang_rt.builtins.a
       udivsi3.S.obj                         464     0         0      
       udivmoddi4.S.obj                      280     0         0      
       aeabi_uldivmod.S.obj                  36      0         0      
       aeabi_memset.S.obj                    28      0         0      
       aeabi_div0.c.obj                      8       0         0      
       aeabi_memcpy.S.obj                    4       0         0      
    +--+-------------------------------------+-------+---------+---------+
       Total:                                820     0         0      
                                                                      
    /nightlybuilds/mcupsdk_internal/jenkins/mcu_plus_sdk_am263px_11_00_00_19/source/board/lib/board.am263px.r5f.ti-arm-clang.nortos.debug.lib
       flash_nor_ospi.obj                    6396    88        72     
       flash.obj                             976     0         0      
       ioexp_tca6416.obj                     800     0         0      
       ioexp_tca6424.obj                     800     0         0      
       eeprom_cat24m.obj                     754     0         28     
       eeprom.obj                            222     0         0      
    +--+-------------------------------------+-------+---------+---------+
       Total:                                9948    88        100    
                                                                      
    /nightlybuilds/mcupsdk_internal/jenkins/mcu_plus_sdk_am263px_11_00_00_19/source/drivers/lib/drivers.am263px.r5f.ti-arm-clang.nortos.debug.lib
       edma.obj                              9802    430       0      
       ospi_v0_lld.obj                       7742    32        0      
       uart_v0_lld.obj                       7392    0         0      
       i2c_v1_lld.obj                        6596    24        0      
       soc_rcm.obj                           5242    307       264    
       ospi_phy_am26x_lld.obj                4322    0         256    
       i2c_v1.obj                            2984    192       20     
       ospi_v0.obj                           2830    101       20     
       uart_v0.obj                           2720    199       20     
       uart_dma_edma.obj                     2316    0         0      
       ospi_edma_lld.obj                     1620    0         16     
       soc.obj                               1512    0         17     
       bootloader_uniflash_common.obj        1372    0         0      
       bootloader_uniflash.obj               874     0         0      
       bootloader_uniflash_rprc.obj          496     0         0      
       bootloader_uniflash_mcelf.obj         478     0         0      
       ospi_lld_dma.obj                      346     0         0      
       pinmux.obj                            210     0         0      
       ospi_phy_am26x.obj                    116     0         0      
    +--+-------------------------------------+-------+---------+---------+
       Total:                                58970   1285      613    
                                                                      
    /nightlybuilds/mcupsdk_internal/jenkins/mcu_plus_sdk_am263px_11_00_00_19/source/kernel/nortos/lib/nortos.am263px.r5f.ti-arm-clang.debug.lib
       printf.obj                            6936    98        0      
       HwiP_armv7r_vim.obj                   1738    0         2064   
       HwiP_armv7r_handlers_nortos.obj       1434    0         0      
       ClockP_nortos.obj                     1262    0         32     
       TimerP_rti_priv.obj                   660     203       0      
       CacheP_armv7r_asm.obj                 832     0         0      
       MpuP_armv7r.obj                       832     0         0      
       SemaphoreP_nortos.obj                 536     0         0      
       ClockP_nortos_r5.obj                  342     176       0      
       HwiP_armv7r_handlers_nortos_asm.obj   380     0         0      
       CacheP_armv7r.obj                     344     8         0      
       boot_armv7r_asm.obj                   324     0         0      
       DebugP_log.obj                        204     42        4      
       AddrTranslateP_32bit.obj              208     0         12     
       MpuP_armv7r_asm.obj                   120     0         0      
       HwiP_armv7r_asm.obj                   112     0         0      
       TimerP_rti_nortos.obj                 100     0         0      
       DebugP_uartLogWriter.obj              90      0         4      
       DebugP_nortos.obj                     68      0         0      
       HwiP_armv7r_vectors_nortos_asm.obj    64      0         0      
       CpuId_armv7r.obj                      40      0         0      
       boot_armv7r.obj                       36      0         0      
       CpuId_armv7r_asm.obj                  12      0         0      
       TaskP_nortos.obj                      2       0         0      
    +--+-------------------------------------+-------+---------+---------+
       Total:                                16676   527       2116   
                                                                      
    /nightlybuilds/mcupsdk_internal/jenkins/mcu_plus_sdk_am263px_11_00_00_19/source/middleware/lib/middleware.am263px.r5f.ti-arm-clang.nortos.debug.lib
       tielfup32.obj                         508     0         0      
    +--+-------------------------------------+-------+---------+---------+
       Total:                                508     0         0      
                                                                      
       Heap:                                 0       0         32768  
       Stack:                                0       0         16384  
    +--+-------------------------------------+-------+---------+---------+
       Grand Total:                          99096   4460      1924221


GLOBAL SYMBOLS: SORTED ALPHABETICALLY BY Name 

address   name                                        
-------   ----                                        
70010c81  AddrTranslateP_getLocalAddr                 
700198e1  Board_driversClose                          
70018451  Board_driversOpen                           
70016141  Board_eepromClose                           
70012281  Board_eepromOpen                            
70016191  Board_flashClose                            
70011571  Board_flashOpen                             
70018481  Bootloader_Uniflash_MCELF_flashVerifyXIPFile
70018dd1  Bootloader_Uniflash_MCELF_flashXIPFile      
70017921  Bootloader_Uniflash_RPRC_flashVerifyXIPFile 
700184b1  Bootloader_Uniflash_RPRC_flashXIPFile       
7000bc41  Bootloader_uniflashFlashErase               
7000b921  Bootloader_uniflashFlashFile                
7000f951  Bootloader_uniflashFlashFileSector          
700147e1  Bootloader_uniflashFlashPhyTuningData       
700101e1  Bootloader_uniflashFlashVerifyFile          
70006b61  Bootloader_uniflashProcessFlashCommands     
700044e8  C$$EXIT                                     
70015aa4  C$$IO$$                                     
70018691  CSL_armR5GetCpuID                           
700064b4  CSL_armR5ReadMpidrReg                       
7001ab20  CacheP_configForceWrThru                    
7001abe1  CacheP_disable                              
7001a810  CacheP_disableL1d                           
7001a838  CacheP_disableL1p                           
7001ac31  CacheP_enable                               
7001a850  CacheP_enableL1d                            
7001a868  CacheP_enableL1p                            
7001ab14  CacheP_getCacheLevelInfo                    
7001aadc  CacheP_getEnabled                           
7001ab51  CacheP_init                                 
7001ac71  CacheP_inv                                  
7001a880  CacheP_invL1d                               
7001a8f4  CacheP_invL1dAll                            
7001a8b8  CacheP_invL1p                               
7001a8fc  CacheP_invL1pAll                            
7001ab40  CacheP_setDLFO                              
7001a904  CacheP_wb                                   
7001a97c  CacheP_wbAll                                
7001a940  CacheP_wbInv                                
7001aa24  CacheP_wbInvAll                             
7001aa3c  CacheP_wbInvAllAsm                          
70018e91  ClockP_Params_init                          
70016691  ClockP_construct                            
700123e1  ClockP_destruct                             
70019911  ClockP_getTicks                             
70012e01  ClockP_getTimeUsec                          
70019801  ClockP_getTimerCount                        
7000d621  ClockP_init                                 
70018df1  ClockP_isActive                             
70017081  ClockP_start                                
70011b71  ClockP_stop                                 
70019811  ClockP_timerClearOverflowInt                
700119f1  ClockP_timerTickIsr                         
70018e11  ClockP_usecToTicks                          
70014961  ClockP_usleep                               
70018331  DebugP_logZoneEnable                        
70016c21  DebugP_uartLogWriterPutChar                 
700195f1  DebugP_uartSetDrvIndex                      
70016e01  Dpl_init                                    
70019611  Drivers_close                               
700161e1  Drivers_edmaClose                           
70012491  Drivers_edmaOpen                            
70015f61  Drivers_i2cClose                            
70012121  Drivers_i2cOpen                             
70019631  Drivers_open                                
70016231  Drivers_ospiClose                           
70012541  Drivers_ospiOpen                            
70016281  Drivers_uartClose                           
70019971  Drivers_uartInit                            
700121d1  Drivers_uartOpen                            
70013c21  EDMA_allocDmaChannel                        
70013cb1  EDMA_allocParam                             
70013d41  EDMA_allocTcc                               
700166e1  EDMA_ccPaRAMEntry_init                      
700153b1  EDMA_chainChannel                           
70018d41  EDMA_channelToParamMap                      
700113d1  EDMA_close                                  
70019261  EDMA_clrCCErr                               
70016371  EDMA_clrEvtRegion                           
700163c1  EDMA_clrIntrRegion                          
700149e1  EDMA_clrMissEvtRegion                       
70011631  EDMA_configureChannelRegion                 
70010d51  EDMA_disableChInShadowRegRegion             
70016411  EDMA_disableDmaEvtRegion                    
70016461  EDMA_disableEvtIntrRegion                   
70018931  EDMA_disableQdmaEvtRegion                   
70013111  EDMA_disableTransferRegion                  
70010ef1  EDMA_enableChInShadowRegRegion              
700164b1  EDMA_enableDmaEvtRegion                     
70016501  EDMA_enableEvtIntrRegion                    
70018961  EDMA_enableQdmaEvtRegion                    
700131a1  EDMA_enableTransferRegion                   
70019031  EDMA_errIntrHighStatusGet                   
700100f1  EDMA_freeChannelRegion                      
700103c1  EDMA_freeDmaChannel                         
700102d1  EDMA_freeParam                              
700104a1  EDMA_freeTcc                                
70014e01  EDMA_getBaseAddr                            
70019051  EDMA_getCCErrStatus                         
70019071  EDMA_getErrIntrStatus                       
70019091  EDMA_getEventStatus                         
70018eb1  EDMA_getEventStatusHigh                     
70015ab1  EDMA_getHandle                              
70018991  EDMA_getIntrStatusRegion                    
70017821  EDMA_getRegionId                            
70013231  EDMA_init                                   
700189c1  EDMA_intrStatusHighGetRegion                
70019281  EDMA_isInterruptEnabled                     
70014571  EDMA_linkChannel                            
70011161  EDMA_mapChToEvtQ                            
70016731  EDMA_mapQdmaChToPaRAM                       
70009181  EDMA_open                                   
70017661  EDMA_qdmaClrMissEvtRegion                   
700190b1  EDMA_qdmaGetErrIntrStatus                   
70016781  EDMA_readEventStatusRegion                  
70015fc1  EDMA_readIntrStatusRegion                   
7000d8a1  EDMA_registerIntr                           
700165a1  EDMA_setEvtRegion                           
70015cf1  EDMA_setPaRAM                               
70012ea1  EDMA_unmapChToEvtQ                          
7000c531  EDMA_unregisterIntr                         
700173a1  EEPROM_CAT24M_close                         
70013ef1  EEPROM_CAT24M_open                          
70011231  EEPROM_CAT24M_read                          
7000c0d1  EEPROM_CAT24M_write                         
700180f1  EEPROM_close                                
70014fc1  EEPROM_open                                 
70016a51  EEPROM_read                                 
700157d1  ELFUP_init                                  
7000ac11  ELFUP_update                                
70018121  Flash_close                                 
70017221  Flash_eraseBlk                              
70017261  Flash_eraseSector                           
700172a1  Flash_getAttrs                              
70017861  Flash_getHandle                             
70018a81  Flash_getPhyTuningOffset                    
700116f1  Flash_offsetToBlkPage                       
700114a1  Flash_offsetToSectorPage                    
70015031  Flash_open                                  
70014d91  Flash_quirkSpansionUNHYSADisable            
70016021  Flash_read                                  
70016081  Flash_write                                 
7001a758  GET_ADFSR                                   
7001a770  GET_AIFSR                                   
7001a760  GET_DFAR                                    
7001a750  GET_DFSR                                    
7001a778  GET_IFAR                                    
7001a768  GET_IFSR                                    
7001a780  GET_SPSR                                    
70015410  HOSTclose                                   
700044e8  HOSTexit                                    
70012b8c  HOSTlseek                                   
70012cc8  HOSTopen                                    
70013a84  HOSTread                                    
7001268c  HOSTrename                                  
70014cb0  HOSTunlink                                  
70013b08  HOSTwrite                                   
70019b11  HwiP_Params_init                            
70019a91  HwiP_clearInt                               
70019b41  HwiP_construct                              
7001a690  HwiP_data_abort_handler                     
7001a521  HwiP_data_abort_handler_c                   
70019d31  HwiP_destruct                               
7001a798  HwiP_disable                                
7001a7a8  HwiP_disableFIQ                             
70019a01  HwiP_disableInt                             
7001a7f0  HwiP_disableVIC                             
7001a7b8  HwiP_enable                                 
7001a7c8  HwiP_enableFIQ                              
700199c1  HwiP_enableInt                              
7001a7e0  HwiP_enableVIC                              
7001a221  HwiP_fiq_handler                            
7001a800  HwiP_getCPSR                                
70019f51  HwiP_inISR                                  
70019da1  HwiP_init                                   
7001a61c  HwiP_irq_handler                            
7001a081  HwiP_irq_handler_c                          
70019ad1  HwiP_post                                   
7001a6d4  HwiP_prefetch_abort_handler                 
7001a441  HwiP_prefetch_abort_handler_c               
7001a381  HwiP_reserved_handler                       
7001a7d8  HwiP_restore                                
70019a61  HwiP_restoreInt                             
7001a071  HwiP_restoreVimIrqPriMask                   
70019fd1  HwiP_setVimIrqPriMaskAtomic                 
70019f81  HwiP_setVimIrqPriMaskNonAtomic              
7001a401  HwiP_svc_handler                            
7001a720  HwiP_undefined_handler                      
7001a3c1  HwiP_undefined_handler_c                    
7001a5e1  HwiP_user_data_abort_handler_c              
7001a4e1  HwiP_user_prefetch_abort_handler_c          
7001a3e1  HwiP_user_undefined_handler_c               
700191e1  I2C_Params_init                             
70018b11  I2C_Transaction_init                        
7000f431  I2C_close                                   
7001c454  I2C_defaultTransaction                      
70015b11  I2C_getHandle                               
700150a1  I2C_init                                    
70017eb1  I2C_lld_Message_init                        
70018511  I2C_lld_Transaction_init                    
70007e01  I2C_lld_controllerIsr                       
700160e1  I2C_lld_deInit                              
7001c970  I2C_lld_defaultMessage                      
7000c6a1  I2C_lld_init                                
7000dc51  I2C_lld_mem_read                            
7000eb51  I2C_lld_mem_readIntr                        
7000d271  I2C_lld_mem_write                           
7000deb1  I2C_lld_mem_writeIntr                       
700071e1  I2C_lld_targetIsr                           
70017121  I2C_lld_transferIntr                        
70017161  I2C_lld_transferPoll                        
70006811  I2C_open                                    
70009c21  I2C_transfer                                
700167d1  Module_clockEnable                          
700155f1  Module_clockSetFrequency                    
7001ad11  MpuP_RegionAttrs_init                       
7001ade1  MpuP_disable                                
7001aff0  MpuP_disableAsm                             
7001b008  MpuP_disableBRAsm                           
7001ae21  MpuP_enable                                 
7001b018  MpuP_enableAsm                              
7001b030  MpuP_enableBRAsm                            
7001acb1  MpuP_getAttrs                               
7001ae71  MpuP_init                                   
7001add1  MpuP_isEnable                               
7001b040  MpuP_isEnableAsm                            
7001af11  MpuP_isUserAuthorizedToAccessMemory         
7001ad41  MpuP_setRegion                              
7001b054  MpuP_setRegionAsm                           
700174e1  OSPI_EdmaParams_init                        
70019321  OSPI_ReadCmdParams_init                     
70019341  OSPI_Transaction_init                       
70019361  OSPI_WriteCmdParams_init                    
70018b41  OSPI_clearDualOpCodeMode                    
70014d21  OSPI_close                                  
700176e1  OSPI_configBaudrate                         
70017961  OSPI_disableDacMode                         
700179a1  OSPI_disablePhy                             
70016e51  OSPI_dmaClose                               
70015471  OSPI_dmaCopy                                
70014ae1  OSPI_dmaOpen                                
70007831  OSPI_edmaCopy                               
7000fe21  OSPI_edmaDeInit                             
70009811  OSPI_edmaInit                               
70019381  OSPI_edmaItrStatus                          
700179e1  OSPI_enableDacMode                          
70018ba1  OSPI_enableModeBitsCmd                      
70018bd1  OSPI_enableModeBitsRead                     
70017a21  OSPI_enablePhy                              
70017521  OSPI_enableSDR                              
70017721  OSPI_getBaudRateDivFromObj                  
70016821  OSPI_getHandle                              
70012d61  OSPI_init                                   
70018391  OSPI_isDacEnable                            
70016ea1  OSPI_isDmaInterruptEnabled                  
700183c1  OSPI_isPhyEnable                            
700186c1  OSPI_lld_Transaction_init                   
700186f1  OSPI_lld_clearDualOpCodeMode                
70015d51  OSPI_lld_configBaudrate                     
70015bd1  OSPI_lld_configResetPin                     
70012fe1  OSPI_lld_deInit                             
70012731  OSPI_lld_deInitDma                          
70016cc1  OSPI_lld_disableDacMode                     
70014bd1  OSPI_lld_disablePhy                         
70017a61  OSPI_lld_disablePhyPipeline                 
70017aa1  OSPI_lld_enableDDR                          
70016aa1  OSPI_lld_enableDacMode                      
700178a1  OSPI_lld_enableDdrRdCmds                    
70018721  OSPI_lld_enableModeBitsCmd                  
70018751  OSPI_lld_enableModeBitsRead                 
700143f1  OSPI_lld_enablePhy                          
70017ae1  OSPI_lld_enableSDR                          
70018f91  OSPI_lld_getFlashDataBaseAddr               
7000eeb1  OSPI_lld_init                               
7000cac1  OSPI_lld_initDma                            
70019531  OSPI_lld_isDacEnable                        
70019551  OSPI_lld_isPhyEnable                        
700095f1  OSPI_lld_isr                                
70012a51  OSPI_lld_phyBasicConfig                     
70002101  OSPI_lld_phyFindOTP1                        
700136a1  OSPI_lld_phyFindRxHigh                      
70013731  OSPI_lld_phyFindRxLow                       
700137c1  OSPI_lld_phyFindTxHigh                      
70013851  OSPI_lld_phyFindTxLow                       
700190f1  OSPI_lld_phyGetTuningData                   
70013081  OSPI_lld_phyReadAttackVector                
70011301  OSPI_lld_phyResyncDLL                       
70013b91  OSPI_lld_phySetRdDelayTxRxDLL               
70016d11  OSPI_lld_phyTuneDDR                         
70016871  OSPI_lld_readBaudRateDivFromReg             
7000b441  OSPI_lld_readCmd                            
700178e1  OSPI_lld_readCmdParams_init                 
70018e51  OSPI_lld_readCompleteCallback               
70014c41  OSPI_lld_readDirect                         
7000a551  OSPI_lld_readDirectDma                      
70017ef1  OSPI_lld_setCmdDummyCycles                  
70019201  OSPI_lld_setCmdExtType                      
70016af1  OSPI_lld_setDeviceSize                      
70018781  OSPI_lld_setDualOpCodeMode                  
70018571  OSPI_lld_setModeBits                        
70016b41  OSPI_lld_setNumAddrBytes                    
700193a1  OSPI_lld_setPhyEnableSuccess                
7000f851  OSPI_lld_setProtocol                        
700173e1  OSPI_lld_setRdDataCaptureDelay              
70017f31  OSPI_lld_setReadDummyCycles                 
70017ba1  OSPI_lld_setResetPinStatus                  
700127d1  OSPI_lld_setXferOpCodes                     
7000c3c1  OSPI_lld_writeCmd                           
70017f71  OSPI_lld_writeCmdParams_init                
7000a1c1  OSPI_lld_writeIndirect                      
700064c1  OSPI_open                                   
70019711  OSPI_phyGetTuningData                       
700181e1  OSPI_phyReadAttackVector                    
70018211  OSPI_phyTuneDDR                             
700165f1  OSPI_readCmd                                
70011ab1  OSPI_readDirect                             
700187b1  OSPI_setCmdDummyCycles                      
700187e1  OSPI_setCmdExtType                          
700183f1  OSPI_setDeviceSize                          
70018811  OSPI_setModeBits                            
70018841  OSPI_setNumAddrBytes                        
70018871  OSPI_setPhyEnableSuccess                    
700188a1  OSPI_setProtocol                            
70017761  OSPI_setRdDataCaptureDelay                  
700188d1  OSPI_setReadDummyCycles                     
700177a1  OSPI_setResetPinStatus                      
70017be1  OSPI_setXferOpCodes                         
70016641  OSPI_writeCmd                               
70014861  OSPI_writeIndirect                          
700162d1  Pinmux_config                               
700197a1  Pinmux_init                                 
70019921  PowerClock_init                             
7000e111  SOC_controlModuleLockMMR                    
7000c801  SOC_controlModuleUnlockMMR                  
70018fb1  SOC_moduleClockEnable                       
70017561  SOC_moduleSetClockFrequency                 
700044f1  SOC_rcmEnablePeripheralClock                
7000e371  SOC_rcmGetPeripheralClockFrequency          
70015181  SOC_rcmIsR5FInLockStepMode                  
70011f11  SOC_rcmSetPeripheralClock                   
70007521  SOC_virtToPhy                               
700193c1  SemaphoreP_Params_init                      
70016f91  SemaphoreP_construct                        
70018421  SemaphoreP_constructBinary                  
70018c31  SemaphoreP_constructMutex                   
700199a1  SemaphoreP_destruct                         
7000f541  SemaphoreP_pend                             
70015341  SemaphoreP_post                             
70018e71  System_init                                 
70014471  TCA6416_Flash_reset                         
70019111  TCA6416_Params_init                         
70017fb1  TCA6416_close                               
7000e6d1  TCA6416_config                              
700193e1  TCA6416_getAttrs                            
70014271  TCA6416_open                                
7000e491  TCA6416_setOutput                           
70013ff1  TCA6424_Flash_reset                         
70019131  TCA6424_Params_init                         
70017ff1  TCA6424_close                               
7000e7f1  TCA6424_config                              
70019401  TCA6424_getAttrs                            
700142f1  TCA6424_open                                
7000e5b1  TCA6424_setOutput                           
700191c4  TI_memcpy_small                             
70019498  TI_memset_small                             
700199b1  TaskP_yield                                 
70019861  TimerP_Params_init                          
70017c61  TimerP_Params_initPriv                      
70019871  TimerP_clearOverflowInt                     
70019731  TimerP_clearOverflowIntPriv                 
70019881  TimerP_getCount                             
70018031  TimerP_getCountPriv                         
70019891  TimerP_getReloadCount                       
70019421  TimerP_getReloadCountPriv                   
70019751  TimerP_setup                                
70009e11  TimerP_setupPriv                            
700198a1  TimerP_start                                
70019571  TimerP_startPriv                            
70019591  TimerP_stopPriv                             
70017461  UART_IsTxRxFifoEmpty                        
700144f1  UART_Params_init                            
700185a1  UART_Transaction_init                       
70016321  UART_checkCharsAvailInFifo                  
7000a8c1  UART_close                                  
70011871  UART_flushTxFifo                            
700154d1  UART_getChar                                
70015951  UART_getHandle                              
70016961  UART_getIntrIdentityStatus                  
70011fc1  UART_init                                   
700185d1  UART_intr2Disable                           
70010821  UART_intrDisable                            
70010581  UART_intrEnable                             
70018ff1  UART_lld_Transaction_deInit                 
70018601  UART_lld_Transaction_init                   
7000b5e1  UART_lld_controllerIsr                      
700156b1  UART_lld_deInit                             
70015261  UART_lld_deInitDma                          
700093c1  UART_lld_dmaDeInit                          
70015711  UART_lld_dmaDisableChannel                  
700182d1  UART_lld_dmaInit                            
7000ea31  UART_lld_dmaRead                            
7000a711  UART_lld_dmaWrite                           
700138e1  UART_lld_flushTxFifo                        
7000dd81  UART_lld_init                               
7000c961  UART_lld_initDma                            
70010ba1  UART_lld_write                              
70010e21  UART_lld_writeDma                           
70011091  UART_lld_writeIntr                          
700055d1  UART_open                                   
70018631  UART_operatingModeSelect                    
7000d761  UART_procLineStatusErr                      
70019481  UART_putChar                                
70016db1  UART_readLineStatus                         
70017361  UART_spaceAvail                             
7000b101  UART_write                                  
70013351  UART_writeCancelNoCB                        
70025d78  _CIOBUF_                                    
70014371  _DebugP_assert                              
7001b1c1  _DebugP_assertNoLog                         
70016fe1  _DebugP_logZone                             
70034300  __ABORT_STACK_END                           
00000100  __ABORT_STACK_SIZE                          
70034200  __ABORT_STACK_START                         
70026100  __BSS_END                                   
7001ce00  __BSS_START                                 
70025d78  __CIOBUF_                                   
70033200  __FIQ_STACK_END                             
00000100  __FIQ_STACK_SIZE                            
70033100  __FIQ_STACK_START                           
70033100  __IRQ_STACK_END                             
00001000  __IRQ_STACK_SIZE                            
70032100  __IRQ_STACK_START                           
70032100  __STACK_END                                 
00004000  __STACK_SIZE                                
70034200  __SVC_STACK_END                             
00001000  __SVC_STACK_SIZE                            
70033200  __SVC_STACK_START                           
00008000  __SYSMEM_SIZE                               
00000000  __TI_ATRegion0_region_sz                    
00000000  __TI_ATRegion0_src_addr                     
00000000  __TI_ATRegion0_trg_addr                     
00000000  __TI_ATRegion1_region_sz                    
00000000  __TI_ATRegion1_src_addr                     
00000000  __TI_ATRegion1_trg_addr                     
00000000  __TI_ATRegion2_region_sz                    
00000000  __TI_ATRegion2_src_addr                     
00000000  __TI_ATRegion2_trg_addr                     
UNDEFED   __TI_CINIT_Base                             
UNDEFED   __TI_CINIT_Limit                            
UNDEFED   __TI_Handler_Table_Base                     
UNDEFED   __TI_Handler_Table_Limit                    
70015f0c  __TI_auto_init_nobinit_nopinit              
7000fd30  __TI_buff_read                              
700159a8  __TI_cleanup                                
7001bb90  __TI_cleanup_ptr                            
70012070  __TI_closefile                              
70013588  __TI_doflush                                
7001bb94  __TI_dtors_ptr                              
7001bbd0  __TI_ft_end                                 
ffffffff  __TI_pprof_out_hndl                         
ffffffff  __TI_prof_data_size                         
ffffffff  __TI_prof_data_start                        
700146e8  __TI_rd_ok                                  
70015a00  __TI_readmsg                                
70002000  __TI_static_base__                          
70025f48  __TI_tmpnams                                
70015a58  __TI_writemsg                               
70012af0  __TI_wrt_ok                                 
70034400  __UNDEFINED_STACK_END                       
00000100  __UNDEFINED_STACK_SIZE                      
70034300  __UNDEFINED_STACK_START                     
7001bc20  __aeabi_ctype_table_                        
7001bc20  __aeabi_ctype_table_C                       
7001bbd4  __aeabi_errno                               
700036b4  __aeabi_errno_addr                          
70002c7c  __aeabi_idiv0                               
70005dbc  __aeabi_ldiv0                               
70003e64  __aeabi_memclr                              
70003e64  __aeabi_memclr4                             
70003e64  __aeabi_memclr8                             
7000680c  __aeabi_memcpy                              
7000680c  __aeabi_memcpy4                             
7000680c  __aeabi_memcpy8                             
700198b0  __aeabi_memset                              
700198b0  __aeabi_memset4                             
700198b0  __aeabi_memset8                             
70009fe8  __aeabi_uidiv                               
70018ce4  __aeabi_uldivmod                            
ffffffff  __binit__                                   
7001b221  __mpu_init                                  
7002e100  __stack                                     
70002100  __start___llvm_prf_bits                     
70002100  __start___llvm_prf_cnts                     
70002100  __stop___llvm_prf_bits                      
70002100  __stop___llvm_prf_cnts                      
7000ec6c  __udivmoddi4                                
70009fe8  __udivsi3                                   
7001b094  _c_int00                                    
7001b070  _c_int00_sbl                                
7001b77c  _device                                     
7001b350  _ftable                                     
7001bbd8  _lock                                       
70006b58  _nop                                        
7001b84c  _stream                                     
70026100  _sys_memory                                 
UNDEFED   _system_post_cinit                          
7001b1f1  _system_pre_init                            
7001bbdc  _unlock                                     
70002000  _vectors                                    
70004b28  abort                                       
7000adb4  aligned_alloc                               
ffffffff  binit                                       
70010661  board_flash_reset                           
700133dc  close                                       
70015e64  exit                                        
700168bc  fclose                                      
70015eb8  finddevice                                  
70018661  flashFixUpOspiBoot                          
70016908  fopen                                       
7000fb4c  fputc                                       
7000aa68  free                                        
70006b5c  fseek                                       
70011da8  fseeko                                      
70006e98  ftell                                       
70011e5c  ftello                                      
7001bf78  gADPLLJConfigTbl                            
7001bb60  gAddrTranslateConfig                        
7001bd24  gCacheConfig                                
7001cd7c  gCacheL1dCacheLineSize                      
7001cd80  gCacheL1pCacheLineSize                      
7001b97c  gClockConfig                                
70026020  gClockCtrl                                  
7001bbe0  gDebugLogZone                               
7001bbe4  gDebugP_uartDrvIndex                        
7001bb98  gEdmaConfig                                 
7001bbe8  gEdmaConfigNum                              
70026088  gEdmaHandle                                 
7001bba0  gEdmaParams                                 
7001bb6c  gEepromAttrs_CAT24M                         
7001bb78  gEepromConfig                               
7001bbec  gEepromConfigNum                            
7001bb20  gEepromFxns_CAT24M                          
7002608c  gEepromHandle                               
70025c54  gEepromObject_CAT24M                        
7001bba8  gEepromParams                               
700c0000  gFileBuf                                    
7001b89c  gFlashAttrs_IS25LX256                       
7001b9c4  gFlashConfig                                
7001bbf0  gFlashConfigNum                             
7001b5f8  gFlashDevCfg_IS25LX256                      
70026090  gFlashHandle                                
7001b934  gFlashNorOspiFxns                           
70026040  gFlashObject_IS25LX256                      
7001bbb0  gFlashParams                                
7001b958  gFlashToSpiProtocolMap                      
7001bbf4  gHwiConfig                                  
70024e00  gHwiCtrl                                    
7001bb30  gI2cConfig                                  
7001bbf8  gI2cConfigNum                               
7002607c  gI2cHandle                                  
7001b9f4  gI2cParams                                  
7001b230  gMainMenu                                   
7001bd2c  gMpuConfig                                  
7001bd38  gMpuRegionConfig                            
7001bbb8  gOspiConfig                                 
7001bbfc  gOspiConfigNum                              
7001bb84  gOspiDmaConfig                              
7001bc00  gOspiDmaConfigNum                           
7001bb40  gOspiDmaEdmaFxns                            
70025fe8  gOspiEdmaArgs                               
70026094  gOspiHandle                                 
7001bc04  gOspiParams                                 
7001c988  gPeripheralClkSrcInfoMap                    
7001bb50  gSocModules                                 
7001b904  gSocModulesClockFrequency                   
7001bbc8  gUartConfig                                 
7001bc08  gUartConfigNum                              
7001bc0c  gUartDmaChConfig                            
7001b230  gUartDmaHandle                              
70026098  gUartHandle                                 
7001b7f4  gUartParams                                 
7001ce00  gVerifyBuf                                  
7001cd64  gXTALInfo                                   
70010fbc  getdevice                                   
70019764  gets                                        
7001b34e  isMapAvailable                              
70017d48  lseek                                       
7000bf51  main                                        
70005114  malloc                                      
7000adb4  memalign                                    
700171e0  memcmp                                      
7000d4e8  open                                        
70026074  parmbuf                                     
700198d0  putchar                                     
70019171  putchar_                                    
70017d7c  read                                        
70006e9c  remove                                      
70015591  sbl_jtag_uniflash_erase_all                 
700059d1  sbl_jtag_uniflash_load_file                 
7000cd54  setvbuf                                     
70005dc0  strcmp                                      
70009a24  strtol                                      
70016bd8  unlink                                      
70026064  virtToPhymap                                
70018901  vprintf_                                    
70017db0  write                                       


GLOBAL SYMBOLS: SORTED BY Symbol Address 

address   name                                        
-------   ----                                        
00000000  __TI_ATRegion0_region_sz                    
00000000  __TI_ATRegion0_src_addr                     
00000000  __TI_ATRegion0_trg_addr                     
00000000  __TI_ATRegion1_region_sz                    
00000000  __TI_ATRegion1_src_addr                     
00000000  __TI_ATRegion1_trg_addr                     
00000000  __TI_ATRegion2_region_sz                    
00000000  __TI_ATRegion2_src_addr                     
00000000  __TI_ATRegion2_trg_addr                     
00000100  __ABORT_STACK_SIZE                          
00000100  __FIQ_STACK_SIZE                            
00000100  __UNDEFINED_STACK_SIZE                      
00001000  __IRQ_STACK_SIZE                            
00001000  __SVC_STACK_SIZE                            
00004000  __STACK_SIZE                                
00008000  __SYSMEM_SIZE                               
70002000  __TI_static_base__                          
70002000  _vectors                                    
70002100  __start___llvm_prf_bits                     
70002100  __start___llvm_prf_cnts                     
70002100  __stop___llvm_prf_bits                      
70002100  __stop___llvm_prf_cnts                      
70002101  OSPI_lld_phyFindOTP1                        
70002c7c  __aeabi_idiv0                               
700036b4  __aeabi_errno_addr                          
70003e64  __aeabi_memclr                              
70003e64  __aeabi_memclr4                             
70003e64  __aeabi_memclr8                             
700044e8  C$$EXIT                                     
700044e8  HOSTexit                                    
700044f1  SOC_rcmEnablePeripheralClock                
70004b28  abort                                       
70005114  malloc                                      
700055d1  UART_open                                   
700059d1  sbl_jtag_uniflash_load_file                 
70005dbc  __aeabi_ldiv0                               
70005dc0  strcmp                                      
700064b4  CSL_armR5ReadMpidrReg                       
700064c1  OSPI_open                                   
7000680c  __aeabi_memcpy                              
7000680c  __aeabi_memcpy4                             
7000680c  __aeabi_memcpy8                             
70006811  I2C_open                                    
70006b58  _nop                                        
70006b5c  fseek                                       
70006b61  Bootloader_uniflashProcessFlashCommands     
70006e98  ftell                                       
70006e9c  remove                                      
700071e1  I2C_lld_targetIsr                           
70007521  SOC_virtToPhy                               
70007831  OSPI_edmaCopy                               
70007e01  I2C_lld_controllerIsr                       
70009181  EDMA_open                                   
700093c1  UART_lld_dmaDeInit                          
700095f1  OSPI_lld_isr                                
70009811  OSPI_edmaInit                               
70009a24  strtol                                      
70009c21  I2C_transfer                                
70009e11  TimerP_setupPriv                            
70009fe8  __aeabi_uidiv                               
70009fe8  __udivsi3                                   
7000a1c1  OSPI_lld_writeIndirect                      
7000a551  OSPI_lld_readDirectDma                      
7000a711  UART_lld_dmaWrite                           
7000a8c1  UART_close                                  
7000aa68  free                                        
7000ac11  ELFUP_update                                
7000adb4  aligned_alloc                               
7000adb4  memalign                                    
7000b101  UART_write                                  
7000b441  OSPI_lld_readCmd                            
7000b5e1  UART_lld_controllerIsr                      
7000b921  Bootloader_uniflashFlashFile                
7000bc41  Bootloader_uniflashFlashErase               
7000bf51  main                                        
7000c0d1  EEPROM_CAT24M_write                         
7000c3c1  OSPI_lld_writeCmd                           
7000c531  EDMA_unregisterIntr                         
7000c6a1  I2C_lld_init                                
7000c801  SOC_controlModuleUnlockMMR                  
7000c961  UART_lld_initDma                            
7000cac1  OSPI_lld_initDma                            
7000cd54  setvbuf                                     
7000d271  I2C_lld_mem_write                           
7000d4e8  open                                        
7000d621  ClockP_init                                 
7000d761  UART_procLineStatusErr                      
7000d8a1  EDMA_registerIntr                           
7000dc51  I2C_lld_mem_read                            
7000dd81  UART_lld_init                               
7000deb1  I2C_lld_mem_writeIntr                       
7000e111  SOC_controlModuleLockMMR                    
7000e371  SOC_rcmGetPeripheralClockFrequency          
7000e491  TCA6416_setOutput                           
7000e5b1  TCA6424_setOutput                           
7000e6d1  TCA6416_config                              
7000e7f1  TCA6424_config                              
7000ea31  UART_lld_dmaRead                            
7000eb51  I2C_lld_mem_readIntr                        
7000ec6c  __udivmoddi4                                
7000eeb1  OSPI_lld_init                               
7000f431  I2C_close                                   
7000f541  SemaphoreP_pend                             
7000f851  OSPI_lld_setProtocol                        
7000f951  Bootloader_uniflashFlashFileSector          
7000fb4c  fputc                                       
7000fd30  __TI_buff_read                              
7000fe21  OSPI_edmaDeInit                             
700100f1  EDMA_freeChannelRegion                      
700101e1  Bootloader_uniflashFlashVerifyFile          
700102d1  EDMA_freeParam                              
700103c1  EDMA_freeDmaChannel                         
700104a1  EDMA_freeTcc                                
70010581  UART_intrEnable                             
70010661  board_flash_reset                           
70010821  UART_intrDisable                            
70010ba1  UART_lld_write                              
70010c81  AddrTranslateP_getLocalAddr                 
70010d51  EDMA_disableChInShadowRegRegion             
70010e21  UART_lld_writeDma                           
70010ef1  EDMA_enableChInShadowRegRegion              
70010fbc  getdevice                                   
70011091  UART_lld_writeIntr                          
70011161  EDMA_mapChToEvtQ                            
70011231  EEPROM_CAT24M_read                          
70011301  OSPI_lld_phyResyncDLL                       
700113d1  EDMA_close                                  
700114a1  Flash_offsetToSectorPage                    
70011571  Board_flashOpen                             
70011631  EDMA_configureChannelRegion                 
700116f1  Flash_offsetToBlkPage                       
70011871  UART_flushTxFifo                            
700119f1  ClockP_timerTickIsr                         
70011ab1  OSPI_readDirect                             
70011b71  ClockP_stop                                 
70011da8  fseeko                                      
70011e5c  ftello                                      
70011f11  SOC_rcmSetPeripheralClock                   
70011fc1  UART_init                                   
70012070  __TI_closefile                              
70012121  Drivers_i2cOpen                             
700121d1  Drivers_uartOpen                            
70012281  Board_eepromOpen                            
700123e1  ClockP_destruct                             
70012491  Drivers_edmaOpen                            
70012541  Drivers_ospiOpen                            
7001268c  HOSTrename                                  
70012731  OSPI_lld_deInitDma                          
700127d1  OSPI_lld_setXferOpCodes                     
70012a51  OSPI_lld_phyBasicConfig                     
70012af0  __TI_wrt_ok                                 
70012b8c  HOSTlseek                                   
70012cc8  HOSTopen                                    
70012d61  OSPI_init                                   
70012e01  ClockP_getTimeUsec                          
70012ea1  EDMA_unmapChToEvtQ                          
70012fe1  OSPI_lld_deInit                             
70013081  OSPI_lld_phyReadAttackVector                
70013111  EDMA_disableTransferRegion                  
700131a1  EDMA_enableTransferRegion                   
70013231  EDMA_init                                   
70013351  UART_writeCancelNoCB                        
700133dc  close                                       
70013588  __TI_doflush                                
700136a1  OSPI_lld_phyFindRxHigh                      
70013731  OSPI_lld_phyFindRxLow                       
700137c1  OSPI_lld_phyFindTxHigh                      
70013851  OSPI_lld_phyFindTxLow                       
700138e1  UART_lld_flushTxFifo                        
70013a84  HOSTread                                    
70013b08  HOSTwrite                                   
70013b91  OSPI_lld_phySetRdDelayTxRxDLL               
70013c21  EDMA_allocDmaChannel                        
70013cb1  EDMA_allocParam                             
70013d41  EDMA_allocTcc                               
70013ef1  EEPROM_CAT24M_open                          
70013ff1  TCA6424_Flash_reset                         
70014271  TCA6416_open                                
700142f1  TCA6424_open                                
70014371  _DebugP_assert                              
700143f1  OSPI_lld_enablePhy                          
70014471  TCA6416_Flash_reset                         
700144f1  UART_Params_init                            
70014571  EDMA_linkChannel                            
700146e8  __TI_rd_ok                                  
700147e1  Bootloader_uniflashFlashPhyTuningData       
70014861  OSPI_writeIndirect                          
70014961  ClockP_usleep                               
700149e1  EDMA_clrMissEvtRegion                       
70014ae1  OSPI_dmaOpen                                
70014bd1  OSPI_lld_disablePhy                         
70014c41  OSPI_lld_readDirect                         
70014cb0  HOSTunlink                                  
70014d21  OSPI_close                                  
70014d91  Flash_quirkSpansionUNHYSADisable            
70014e01  EDMA_getBaseAddr                            
70014fc1  EEPROM_open                                 
70015031  Flash_open                                  
700150a1  I2C_init                                    
70015181  SOC_rcmIsR5FInLockStepMode                  
70015261  UART_lld_deInitDma                          
70015341  SemaphoreP_post                             
700153b1  EDMA_chainChannel                           
70015410  HOSTclose                                   
70015471  OSPI_dmaCopy                                
700154d1  UART_getChar                                
70015591  sbl_jtag_uniflash_erase_all                 
700155f1  Module_clockSetFrequency                    
700156b1  UART_lld_deInit                             
70015711  UART_lld_dmaDisableChannel                  
700157d1  ELFUP_init                                  
70015951  UART_getHandle                              
700159a8  __TI_cleanup                                
70015a00  __TI_readmsg                                
70015a58  __TI_writemsg                               
70015aa4  C$$IO$$                                     
70015ab1  EDMA_getHandle                              
70015b11  I2C_getHandle                               
70015bd1  OSPI_lld_configResetPin                     
70015cf1  EDMA_setPaRAM                               
70015d51  OSPI_lld_configBaudrate                     
70015e64  exit                                        
70015eb8  finddevice                                  
70015f0c  __TI_auto_init_nobinit_nopinit              
70015f61  Drivers_i2cClose                            
70015fc1  EDMA_readIntrStatusRegion                   
70016021  Flash_read                                  
70016081  Flash_write                                 
700160e1  I2C_lld_deInit                              
70016141  Board_eepromClose                           
70016191  Board_flashClose                            
700161e1  Drivers_edmaClose                           
70016231  Drivers_ospiClose                           
70016281  Drivers_uartClose                           
700162d1  Pinmux_config                               
70016321  UART_checkCharsAvailInFifo                  
70016371  EDMA_clrEvtRegion                           
700163c1  EDMA_clrIntrRegion                          
70016411  EDMA_disableDmaEvtRegion                    
70016461  EDMA_disableEvtIntrRegion                   
700164b1  EDMA_enableDmaEvtRegion                     
70016501  EDMA_enableEvtIntrRegion                    
700165a1  EDMA_setEvtRegion                           
700165f1  OSPI_readCmd                                
70016641  OSPI_writeCmd                               
70016691  ClockP_construct                            
700166e1  EDMA_ccPaRAMEntry_init                      
70016731  EDMA_mapQdmaChToPaRAM                       
70016781  EDMA_readEventStatusRegion                  
700167d1  Module_clockEnable                          
70016821  OSPI_getHandle                              
70016871  OSPI_lld_readBaudRateDivFromReg             
700168bc  fclose                                      
70016908  fopen                                       
70016961  UART_getIntrIdentityStatus                  
70016a51  EEPROM_read                                 
70016aa1  OSPI_lld_enableDacMode                      
70016af1  OSPI_lld_setDeviceSize                      
70016b41  OSPI_lld_setNumAddrBytes                    
70016bd8  unlink                                      
70016c21  DebugP_uartLogWriterPutChar                 
70016cc1  OSPI_lld_disableDacMode                     
70016d11  OSPI_lld_phyTuneDDR                         
70016db1  UART_readLineStatus                         
70016e01  Dpl_init                                    
70016e51  OSPI_dmaClose                               
70016ea1  OSPI_isDmaInterruptEnabled                  
70016f91  SemaphoreP_construct                        
70016fe1  _DebugP_logZone                             
70017081  ClockP_start                                
70017121  I2C_lld_transferIntr                        
70017161  I2C_lld_transferPoll                        
700171e0  memcmp                                      
70017221  Flash_eraseBlk                              
70017261  Flash_eraseSector                           
700172a1  Flash_getAttrs                              
70017361  UART_spaceAvail                             
700173a1  EEPROM_CAT24M_close                         
700173e1  OSPI_lld_setRdDataCaptureDelay              
70017461  UART_IsTxRxFifoEmpty                        
700174e1  OSPI_EdmaParams_init                        
70017521  OSPI_enableSDR                              
70017561  SOC_moduleSetClockFrequency                 
70017661  EDMA_qdmaClrMissEvtRegion                   
700176e1  OSPI_configBaudrate                         
70017721  OSPI_getBaudRateDivFromObj                  
70017761  OSPI_setRdDataCaptureDelay                  
700177a1  OSPI_setResetPinStatus                      
70017821  EDMA_getRegionId                            
70017861  Flash_getHandle                             
700178a1  OSPI_lld_enableDdrRdCmds                    
700178e1  OSPI_lld_readCmdParams_init                 
70017921  Bootloader_Uniflash_RPRC_flashVerifyXIPFile 
70017961  OSPI_disableDacMode                         
700179a1  OSPI_disablePhy                             
700179e1  OSPI_enableDacMode                          
70017a21  OSPI_enablePhy                              
70017a61  OSPI_lld_disablePhyPipeline                 
70017aa1  OSPI_lld_enableDDR                          
70017ae1  OSPI_lld_enableSDR                          
70017ba1  OSPI_lld_setResetPinStatus                  
70017be1  OSPI_setXferOpCodes                         
70017c61  TimerP_Params_initPriv                      
70017d48  lseek                                       
70017d7c  read                                        
70017db0  write                                       
70017eb1  I2C_lld_Message_init                        
70017ef1  OSPI_lld_setCmdDummyCycles                  
70017f31  OSPI_lld_setReadDummyCycles                 
70017f71  OSPI_lld_writeCmdParams_init                
70017fb1  TCA6416_close                               
70017ff1  TCA6424_close                               
70018031  TimerP_getCountPriv                         
700180f1  EEPROM_close                                
70018121  Flash_close                                 
700181e1  OSPI_phyReadAttackVector                    
70018211  OSPI_phyTuneDDR                             
700182d1  UART_lld_dmaInit                            
70018331  DebugP_logZoneEnable                        
70018391  OSPI_isDacEnable                            
700183c1  OSPI_isPhyEnable                            
700183f1  OSPI_setDeviceSize                          
70018421  SemaphoreP_constructBinary                  
70018451  Board_driversOpen                           
70018481  Bootloader_Uniflash_MCELF_flashVerifyXIPFile
700184b1  Bootloader_Uniflash_RPRC_flashXIPFile       
70018511  I2C_lld_Transaction_init                    
70018571  OSPI_lld_setModeBits                        
700185a1  UART_Transaction_init                       
700185d1  UART_intr2Disable                           
70018601  UART_lld_Transaction_init                   
70018631  UART_operatingModeSelect                    
70018661  flashFixUpOspiBoot                          
70018691  CSL_armR5GetCpuID                           
700186c1  OSPI_lld_Transaction_init                   
700186f1  OSPI_lld_clearDualOpCodeMode                
70018721  OSPI_lld_enableModeBitsCmd                  
70018751  OSPI_lld_enableModeBitsRead                 
70018781  OSPI_lld_setDualOpCodeMode                  
700187b1  OSPI_setCmdDummyCycles                      
700187e1  OSPI_setCmdExtType                          
70018811  OSPI_setModeBits                            
70018841  OSPI_setNumAddrBytes                        
70018871  OSPI_setPhyEnableSuccess                    
700188a1  OSPI_setProtocol                            
700188d1  OSPI_setReadDummyCycles                     
70018901  vprintf_                                    
70018931  EDMA_disableQdmaEvtRegion                   
70018961  EDMA_enableQdmaEvtRegion                    
70018991  EDMA_getIntrStatusRegion                    
700189c1  EDMA_intrStatusHighGetRegion                
70018a81  Flash_getPhyTuningOffset                    
70018b11  I2C_Transaction_init                        
70018b41  OSPI_clearDualOpCodeMode                    
70018ba1  OSPI_enableModeBitsCmd                      
70018bd1  OSPI_enableModeBitsRead                     
70018c31  SemaphoreP_constructMutex                   
70018ce4  __aeabi_uldivmod                            
70018d41  EDMA_channelToParamMap                      
70018dd1  Bootloader_Uniflash_MCELF_flashXIPFile      
70018df1  ClockP_isActive                             
70018e11  ClockP_usecToTicks                          
70018e51  OSPI_lld_readCompleteCallback               
70018e71  System_init                                 
70018e91  ClockP_Params_init                          
70018eb1  EDMA_getEventStatusHigh                     
70018f91  OSPI_lld_getFlashDataBaseAddr               
70018fb1  SOC_moduleClockEnable                       
70018ff1  UART_lld_Transaction_deInit                 
70019031  EDMA_errIntrHighStatusGet                   
70019051  EDMA_getCCErrStatus                         
70019071  EDMA_getErrIntrStatus                       
70019091  EDMA_getEventStatus                         
700190b1  EDMA_qdmaGetErrIntrStatus                   
700190f1  OSPI_lld_phyGetTuningData                   
70019111  TCA6416_Params_init                         
70019131  TCA6424_Params_init                         
70019171  putchar_                                    
700191c4  TI_memcpy_small                             
700191e1  I2C_Params_init                             
70019201  OSPI_lld_setCmdExtType                      
70019261  EDMA_clrCCErr                               
70019281  EDMA_isInterruptEnabled                     
70019321  OSPI_ReadCmdParams_init                     
70019341  OSPI_Transaction_init                       
70019361  OSPI_WriteCmdParams_init                    
70019381  OSPI_edmaItrStatus                          
700193a1  OSPI_lld_setPhyEnableSuccess                
700193c1  SemaphoreP_Params_init                      
700193e1  TCA6416_getAttrs                            
70019401  TCA6424_getAttrs                            
70019421  TimerP_getReloadCountPriv                   
70019481  UART_putChar                                
70019498  TI_memset_small                             
70019531  OSPI_lld_isDacEnable                        
70019551  OSPI_lld_isPhyEnable                        
70019571  TimerP_startPriv                            
70019591  TimerP_stopPriv                             
700195f1  DebugP_uartSetDrvIndex                      
70019611  Drivers_close                               
70019631  Drivers_open                                
70019711  OSPI_phyGetTuningData                       
70019731  TimerP_clearOverflowIntPriv                 
70019751  TimerP_setup                                
70019764  gets                                        
700197a1  Pinmux_init                                 
70019801  ClockP_getTimerCount                        
70019811  ClockP_timerClearOverflowInt                
70019861  TimerP_Params_init                          
70019871  TimerP_clearOverflowInt                     
70019881  TimerP_getCount                             
70019891  TimerP_getReloadCount                       
700198a1  TimerP_start                                
700198b0  __aeabi_memset                              
700198b0  __aeabi_memset4                             
700198b0  __aeabi_memset8                             
700198d0  putchar                                     
700198e1  Board_driversClose                          
70019911  ClockP_getTicks                             
70019921  PowerClock_init                             
70019971  Drivers_uartInit                            
700199a1  SemaphoreP_destruct                         
700199b1  TaskP_yield                                 
700199c1  HwiP_enableInt                              
70019a01  HwiP_disableInt                             
70019a61  HwiP_restoreInt                             
70019a91  HwiP_clearInt                               
70019ad1  HwiP_post                                   
70019b11  HwiP_Params_init                            
70019b41  HwiP_construct                              
70019d31  HwiP_destruct                               
70019da1  HwiP_init                                   
70019f51  HwiP_inISR                                  
70019f81  HwiP_setVimIrqPriMaskNonAtomic              
70019fd1  HwiP_setVimIrqPriMaskAtomic                 
7001a071  HwiP_restoreVimIrqPriMask                   
7001a081  HwiP_irq_handler_c                          
7001a221  HwiP_fiq_handler                            
7001a381  HwiP_reserved_handler                       
7001a3c1  HwiP_undefined_handler_c                    
7001a3e1  HwiP_user_undefined_handler_c               
7001a401  HwiP_svc_handler                            
7001a441  HwiP_prefetch_abort_handler_c               
7001a4e1  HwiP_user_prefetch_abort_handler_c          
7001a521  HwiP_data_abort_handler_c                   
7001a5e1  HwiP_user_data_abort_handler_c              
7001a61c  HwiP_irq_handler                            
7001a690  HwiP_data_abort_handler                     
7001a6d4  HwiP_prefetch_abort_handler                 
7001a720  HwiP_undefined_handler                      
7001a750  GET_DFSR                                    
7001a758  GET_ADFSR                                   
7001a760  GET_DFAR                                    
7001a768  GET_IFSR                                    
7001a770  GET_AIFSR                                   
7001a778  GET_IFAR                                    
7001a780  GET_SPSR                                    
7001a798  HwiP_disable                                
7001a7a8  HwiP_disableFIQ                             
7001a7b8  HwiP_enable                                 
7001a7c8  HwiP_enableFIQ                              
7001a7d8  HwiP_restore                                
7001a7e0  HwiP_enableVIC                              
7001a7f0  HwiP_disableVIC                             
7001a800  HwiP_getCPSR                                
7001a810  CacheP_disableL1d                           
7001a838  CacheP_disableL1p                           
7001a850  CacheP_enableL1d                            
7001a868  CacheP_enableL1p                            
7001a880  CacheP_invL1d                               
7001a8b8  CacheP_invL1p                               
7001a8f4  CacheP_invL1dAll                            
7001a8fc  CacheP_invL1pAll                            
7001a904  CacheP_wb                                   
7001a940  CacheP_wbInv                                
7001a97c  CacheP_wbAll                                
7001aa24  CacheP_wbInvAll                             
7001aa3c  CacheP_wbInvAllAsm                          
7001aadc  CacheP_getEnabled                           
7001ab14  CacheP_getCacheLevelInfo                    
7001ab20  CacheP_configForceWrThru                    
7001ab40  CacheP_setDLFO                              
7001ab51  CacheP_init                                 
7001abe1  CacheP_disable                              
7001ac31  CacheP_enable                               
7001ac71  CacheP_inv                                  
7001acb1  MpuP_getAttrs                               
7001ad11  MpuP_RegionAttrs_init                       
7001ad41  MpuP_setRegion                              
7001add1  MpuP_isEnable                               
7001ade1  MpuP_disable                                
7001ae21  MpuP_enable                                 
7001ae71  MpuP_init                                   
7001af11  MpuP_isUserAuthorizedToAccessMemory         
7001aff0  MpuP_disableAsm                             
7001b008  MpuP_disableBRAsm                           
7001b018  MpuP_enableAsm                              
7001b030  MpuP_enableBRAsm                            
7001b040  MpuP_isEnableAsm                            
7001b054  MpuP_setRegionAsm                           
7001b070  _c_int00_sbl                                
7001b094  _c_int00                                    
7001b1c1  _DebugP_assertNoLog                         
7001b1f1  _system_pre_init                            
7001b221  __mpu_init                                  
7001b230  gMainMenu                                   
7001b230  gUartDmaHandle                              
7001b34e  isMapAvailable                              
7001b350  _ftable                                     
7001b5f8  gFlashDevCfg_IS25LX256                      
7001b77c  _device                                     
7001b7f4  gUartParams                                 
7001b84c  _stream                                     
7001b89c  gFlashAttrs_IS25LX256                       
7001b904  gSocModulesClockFrequency                   
7001b934  gFlashNorOspiFxns                           
7001b958  gFlashToSpiProtocolMap                      
7001b97c  gClockConfig                                
7001b9c4  gFlashConfig                                
7001b9f4  gI2cParams                                  
7001bb20  gEepromFxns_CAT24M                          
7001bb30  gI2cConfig                                  
7001bb40  gOspiDmaEdmaFxns                            
7001bb50  gSocModules                                 
7001bb60  gAddrTranslateConfig                        
7001bb6c  gEepromAttrs_CAT24M                         
7001bb78  gEepromConfig                               
7001bb84  gOspiDmaConfig                              
7001bb90  __TI_cleanup_ptr                            
7001bb94  __TI_dtors_ptr                              
7001bb98  gEdmaConfig                                 
7001bba0  gEdmaParams                                 
7001bba8  gEepromParams                               
7001bbb0  gFlashParams                                
7001bbb8  gOspiConfig                                 
7001bbc8  gUartConfig                                 
7001bbd0  __TI_ft_end                                 
7001bbd4  __aeabi_errno                               
7001bbd8  _lock                                       
7001bbdc  _unlock                                     
7001bbe0  gDebugLogZone                               
7001bbe4  gDebugP_uartDrvIndex                        
7001bbe8  gEdmaConfigNum                              
7001bbec  gEepromConfigNum                            
7001bbf0  gFlashConfigNum                             
7001bbf4  gHwiConfig                                  
7001bbf8  gI2cConfigNum                               
7001bbfc  gOspiConfigNum                              
7001bc00  gOspiDmaConfigNum                           
7001bc04  gOspiParams                                 
7001bc08  gUartConfigNum                              
7001bc0c  gUartDmaChConfig                            
7001bc20  __aeabi_ctype_table_                        
7001bc20  __aeabi_ctype_table_C                       
7001bd24  gCacheConfig                                
7001bd2c  gMpuConfig                                  
7001bd38  gMpuRegionConfig                            
7001bf78  gADPLLJConfigTbl                            
7001c454  I2C_defaultTransaction                      
7001c970  I2C_lld_defaultMessage                      
7001c988  gPeripheralClkSrcInfoMap                    
7001cd64  gXTALInfo                                   
7001cd7c  gCacheL1dCacheLineSize                      
7001cd80  gCacheL1pCacheLineSize                      
7001ce00  __BSS_START                                 
7001ce00  gVerifyBuf                                  
70024e00  gHwiCtrl                                    
70025c54  gEepromObject_CAT24M                        
70025d78  _CIOBUF_                                    
70025d78  __CIOBUF_                                   
70025f48  __TI_tmpnams                                
70025fe8  gOspiEdmaArgs                               
70026020  gClockCtrl                                  
70026040  gFlashObject_IS25LX256                      
70026064  virtToPhymap                                
70026074  parmbuf                                     
7002607c  gI2cHandle                                  
70026088  gEdmaHandle                                 
7002608c  gEepromHandle                               
70026090  gFlashHandle                                
70026094  gOspiHandle                                 
70026098  gUartHandle                                 
70026100  __BSS_END                                   
70026100  _sys_memory                                 
7002e100  __stack                                     
70032100  __IRQ_STACK_START                           
70032100  __STACK_END                                 
70033100  __FIQ_STACK_START                           
70033100  __IRQ_STACK_END                             
70033200  __FIQ_STACK_END                             
70033200  __SVC_STACK_START                           
70034200  __ABORT_STACK_START                         
70034200  __SVC_STACK_END                             
70034300  __ABORT_STACK_END                           
70034300  __UNDEFINED_STACK_START                     
70034400  __UNDEFINED_STACK_END                       
700c0000  gFileBuf                                    
ffffffff  __TI_pprof_out_hndl                         
ffffffff  __TI_prof_data_size                         
ffffffff  __TI_prof_data_start                        
ffffffff  __binit__                                   
ffffffff  binit                                       
UNDEFED   __TI_CINIT_Base                             
UNDEFED   __TI_CINIT_Limit                            
UNDEFED   __TI_Handler_Table_Base                     
UNDEFED   __TI_Handler_Table_Limit                    
UNDEFED   _system_post_cinit                          

[607 symbols]
