******************************************************************************
            TI ARM Clang Linker Unix v4.0.3                    
******************************************************************************
>> Linked Mon Sep 15 15:45:13 2025

OUTPUT FILE NAME:   <sbl_can_uniflash_multicore_elf.release.out>
ENTRY POINT SYMBOL: "_vectors"  address: 00000000


MEMORY CONFIGURATION

         name            origin    length      used     unused   attr    fill
----------------------  --------  ---------  --------  --------  ----  --------
  R5F_VECS              00000000   00000100  00000040  000000c0  RWIX
  R5F_TCMA              00000100   00007f00  00000000  00007f00  RWIX
  R5F_TCMB              00080000   00008000  00000000  00008000  RWIX
  MSRAM_VECS            70002000   00000100  00000040  000000c0  RWIX
  MSRAM_0               70002100   0004df00  00034d18  000191e8  RWIX
  MSRAM_HSMRT           70050000   00040000  0000a6e4  0003591c  RWIX
  MSRAM_1               70090000   00170000  00170000  00000000  RWIX


SEGMENT ALLOCATION MAP

run origin  load origin   length   init length attrs members
----------  ----------- ---------- ----------- ----- -------
00000000    70002000    00000040   00000040    r-x
  00000000    70002000    00000040   00000040    r-x .sbl_init_code
70002100    70002100    00019980   00000000    rw-
  70002100    70002100    00019980   00000000    rw- .bss
7001ba80    7001ba80    00013b88   00013b88    r-x
  7001ba80    7001ba80    000129c0   000129c0    r-x .text
  7002e440    7002e440    00000974   00000974    r-x .text.hwi
  7002edb8    7002edb8    00000430   00000430    r-x .text.cache
  7002f1e8    7002f1e8    00000290   00000290    r-x .text.mpu
  7002f478    7002f478    00000190   00000190    r-x .text.boot
7002f608    7002f608    00000b40   00000b40    rw-
  7002f608    7002f608    00000b40   00000b40    rw- .data
70030148    70030148    000018d0   000018d0    r--
  70030148    70030148    000018d0   000018d0    r-- .rodata
70031a18    70031a18    00005400   00000000    rw-
  70031a18    70031a18    00002000   00000000    rw- .stack
  70033a18    70033a18    00002000   00000000    rw- .sysmem
  70035a18    70035a18    00001000   00000000    rw- .irqstack
  70036a18    70036a18    00000100   00000000    rw- .fiqstack
  70036b18    70036b18    00000100   00000000    rw- .svcstack
  70036c18    70036c18    00000100   00000000    rw- .abortstack
  70036d18    70036d18    00000100   00000000    rw- .undefinedstack
70050000    70050000    0000a6e4   0000a6e4    r--
  70050000    70050000    0000a6e4   0000a6e4    r-- .rodata.hsmrt


SECTION ALLOCATION MAP

 output                                  attributes/
section   page    origin      length       input sections
--------  ----  ----------  ----------   ----------------
.sbl_init_code 
*          0    70002000    00000040     RUN ADDR = 00000000
                  70002000    00000040     nortos.am263px.r5f.ti-arm-clang.release.lib : HwiP_armv7r_vectors_nortos_asm.obj (.vectors)

.bss       0    70002100    00019980     UNINITIALIZED
                  70002100    0000e080     (.common:gPHTBuffer)
                  70010180    00008000     main.obj (.bss)
                  70018180    00001000     (.common:gX509Cert)
                  70019180    0000080c     (.common:gHwiCtrl)
                  7001998c    00000004     nortos.am263px.r5f.ti-arm-clang.release.lib : HwiP_armv7r_vim.obj (.bss.gdummy)
                  70019990    00000340     ti_drivers_config.obj (.bss.sipc_hsm_queue_mem)
                  70019cd0    00000340     ti_drivers_config.obj (.bss.sipc_secure_host_queue_mem)
                  7001a010    00000340     (.common:gHsmClientMsgQueue)
                  7001a350    00000314     ti_drivers_config.obj (.bss.gMcspiObjects)
                  7001a664    00000014     (.common:gFlashObject_IS25LX256)
                  7001a678    00000008     libsysbm.a : hostopen.c.obj (.bss.parmbuf)
                  7001a680    00000300     (.common:vec_addrs)
                  7001a980    00000280     (.common:gNoteSegBuffer)
                  7001ac00    00000240     (.common:gSecureBootStreamArray)
                  7001ae40    000001d0     ti_drivers_config.obj (.bss.gI2cObjects)
                  7001b010    000001b0     ti_drivers_config.obj (.bss.gUartObjects)
                  7001b1c0    00000144     ti_drivers_config.obj (.bss.gOspiObjects)
                  7001b304    00000124     (.common:gEepromObject_CAT24M)
                  7001b428    00000120     libsysbm.a : trgmsg.c.obj (.bss:_CIOBUF_)
                  7001b548    00000118     (.common:gProfileObj)
                  7001b660    000000b0     ti_drivers_config.obj (.bss.gEdmaObjects)
                  7001b710    000000a0     libc.a : defs.c.obj (.bss.__TI_tmpnams)
                  7001b7b0    00000044     (.common:gSIPC_ctrl)
                  7001b7f4    0000000c     (.common:gPmicObject)
                  7001b800    00000080     (.common:gElfHBuffer)
                  7001b880    00000068     (.common:grxMsg)
                  7001b8e8    00000064     (.common:gtxMsg)
                  7001b94c    00000038     (.common:gOspiEdmaArgs)
                  7001b984    0000002c     (.common:gHSMClient)
                  7001b9b0    00000024     board.obj (.bss.gTCA6424_Config)
                  7001b9d4    00000004     libc.a : memory.c.obj (.bss.sys_free)
                  7001b9d8    00000020     (.common:gClockCtrl)
                  7001b9f8    00000010     (.common:gPmicCoreObj)
                  7001ba08    00000010     (.common:virtToPhymap)
                  7001ba18    00000008     (.common:gI2cHandle)
                  7001ba20    00000004     (.common:gEdmaHandle)
                  7001ba24    00000004     (.common:gEepromHandle)
                  7001ba28    00000004     (.common:gFlashHandle)
                  7001ba2c    00000004     (.common:gMcanBaseAddr)
                  7001ba30    00000004     (.common:gMcspiHandle)
                  7001ba34    00000004     (.common:gOspiHandle)
                  7001ba38    00000004     (.common:gPmicHandle)
                  7001ba3c    00000004     (.common:gPmicMcspiRxBuffer)
                  7001ba40    00000004     (.common:gPmicMcspiTxBuffer)
                  7001ba44    00000004     (.common:gRunApp)
                  7001ba48    00000004     (.common:gUartHandle)
                  7001ba4c    00000034     --HOLE--

.text      0    7001ba80    000129c0     
                  7001ba80    000006f0     board.am263px.r5f.ti-arm-clang.nortos.release.lib : flash_nor_ospi.obj (.text.Flash_norOspiOpen)
                  7001c170    000006ea     drivers.am263px.r5f.ti-arm-clang.nortos.release.lib : ospi_phy_am26x_lld.obj (.text.OSPI_lld_phyFindOTP1)
                  7001c85a    00000002     ti_dpl_config.obj (.text.Dpl_deinit)
                  7001c85c    00000694     drivers.am263px.r5f.ti-arm-clang.nortos.release.lib : bootloader.obj (.text.Bootloader_parseAndLoadMultiCoreELF)
                  7001cef0    00000580     nortos.am263px.r5f.ti-arm-clang.release.lib : printf.obj (.text._vsnprintf)
                  7001d470    000004cc     drivers.am263px.r5f.ti-arm-clang.nortos.release.lib : soc_rcm.obj (.text.SOC_rcmEnablePeripheralClock)
                  7001d93c    00000444                                                         : i2c_v1_lld.obj (.text.I2C_lld_primeTransferPoll)
                  7001dd80    00000400     nortos.am263px.r5f.ti-arm-clang.release.lib : printf.obj (.text._ftoa)
                  7001e180    000003c0     drivers.am263px.r5f.ti-arm-clang.nortos.release.lib : bootloader_can.obj (.text.Bootloader_CANReceiveFile)
                  7001e540    00000390     libc.a : strcmp32.S.obj (.text:strcmp)
                  7001e8d0    00000386     main.obj (.text.main)
                  7001ec56    0000034c     pmic_blackbird.am263px.r5f.ti-arm-clang.nortos.release.lib : pmic_power.obj (.text.Pmic_pwrSetLdoCfg)
                  7001efa2    00000002     drivers.am263px.r5f.ti-arm-clang.nortos.release.lib : bootloader_flash.obj (.text.Flash_imgClose)
                  7001efa4    00000342     board.am263px.r5f.ti-arm-clang.nortos.release.lib : flash_nor_ospi.obj (.text.Flash_setQeBit)
                  7001f2e6    00000002     nortos.am263px.r5f.ti-arm-clang.release.lib : SemaphoreP_nortos.obj (.text.SemaphoreP_destruct)
                  7001f2e8    00000310                                                 : printf.obj (.text._etoa)
                  7001f5f8    000002a0     drivers.am263px.r5f.ti-arm-clang.nortos.release.lib : uart_v0.obj (.text.UART_open)
                  7001f898    00000298                                                         : mcspi_v0.obj (.text.MCSPI_open)
                  7001fb30    0000027c                                                         : edma.obj (.text.EDMA_init)
                  7001fdac    00000250                                                         : soc_rcm.obj (.text.SOC_rcmSetPeripheralClock)
                  7001fffc    0000023c                                                         : uart_v0_lld.obj (.text.UART_configInstance)
                  70020238    00000234                                                         : ospi_v0.obj (.text.OSPI_open)
                  7002046c    0000022a     security.am263px.r5f.ti-arm-clang.nortos.release.lib : sipc_notify_src.obj (.text.SIPC_init)
                  70020696    00000002     nortos.am263px.r5f.ti-arm-clang.release.lib : TaskP_nortos.obj (.text.TaskP_yield)
                  70020698    00000224     drivers.am263px.r5f.ti-arm-clang.nortos.release.lib : mcspi_dma_edma.obj (.text.MCSPI_lld_dmaTransfer)
                  700208bc    0000020c                                                         : i2c_v1.obj (.text.I2C_open)
                  70020ac8    0000020c                                                         : mcspi_v0_lld.obj (.text.MCSPI_transferControllerPoll)
                  70020cd4    00000204                                                         : edma.obj (.text.EDMA_freeChannelRegion)
                  70020ed8    000001f0                                                         : edma.obj (.text.EDMA_errorIsrFxn)
                  700210c8    000001e8                                                         : mcspi_v0_lld.obj (.text.MCSPI_lld_controllerIsr)
                  700212b0    000001e4                                                         : ospi_edma_lld.obj (.text.OSPI_edmaCopy)
                  70021494    000001dc                                                         : mcan.obj (.text.MCAN_msgRAMConfig)
                  70021670    000001d0     libclang_rt.builtins.a : udivsi3.S.obj (.text.__udivsi3)
                  70021840    000001cc     drivers.am263px.r5f.ti-arm-clang.nortos.release.lib : soc_rcm.obj (.text.SOC_rcmPerApllConfig)
                  70021a0c    000001c0                                                         : mcspi_dma_edma.obj (.text.MCSPI_lld_dmaChInit)
                  70021bcc    000001b4                                                         : i2c_v1_lld.obj (.text.I2C_lld_targetIsr)
                  70021d80    000001ae                                                         : i2c_v1_lld.obj (.text.I2C_lld_controllerIsr)
                  70021f2e    00000002                                                         : uart_dma_edma.obj (.text.UART_edmaDoNothing)
                  70021f30    000001a8                                                         : mcspi_v0_lld.obj (.text.MCSPI_lld_chConfig)
                  700220d8    000001a8     libc.a : memory.c.obj (.text.free)
                  70022280    000001a4            : memory.c.obj (.text.aligned_alloc)
                  70022424    00000194     drivers.am263px.r5f.ti-arm-clang.nortos.release.lib : mcspi_v0.obj (.text.MCSPI_transfer)
                  700225b8    00000194                                                         : uart_dma_edma.obj (.text.UART_lld_dmaInit)
                  7002274c    00000190                                                         : ospi_v0_lld.obj (.text.OSPI_programInstance)
                  700228dc    00000186     security.am263px.r5f.ti-arm-clang.nortos.release.lib : hsmclient.obj (.text.HsmClient_procAuthBootFinish)
                  70022a62    00000180     drivers.am263px.r5f.ti-arm-clang.nortos.release.lib : i2c_v1.obj (.text.I2C_transfer)
                  70022be2    00000002     nortos.am263px.r5f.ti-arm-clang.release.lib : printf.obj (.text._out_null)
                  70022be4    0000017c     drivers.am263px.r5f.ti-arm-clang.nortos.release.lib : soc.obj (.text.SOC_phyToVirt)
                  70022d60    00000166     security.am263px.r5f.ti-arm-clang.nortos.release.lib : sipc_notify_src.obj (.text.SIPC_isr)
                  70022ec6    00000002     --HOLE-- [fill = 0]
                  70022ec8    00000164     drivers.am263px.r5f.ti-arm-clang.nortos.release.lib : edma.obj (.text.EDMA_open)
                  7002302c    00000160                                                         : edma.obj (.text.EDMA_deinit)
                  7002318c    00000150                                                         : ospi_edma_lld.obj (.text.OSPI_edmaInit)
                  700232dc    0000014e                                                         : uart_dma_edma.obj (.text.UART_lld_dmaDeInit)
                  7002342a    00000002     --HOLE-- [fill = 0]
                  7002342c    0000014c                                                         : bootloader_uniflash.obj (.text.Bootloader_uniflashProcessFlashCommands)
                  70023578    0000014c                                                         : mcspi_dma_edma.obj (.text.MCSPI_lld_dmaDeInit)
                  700236c4    0000014a                                                         : uart_v0_lld.obj (.text.UART_lld_controllerIsr)
                  7002380e    00000002     --HOLE-- [fill = 0]
                  70023810    00000148                                                         : soc_rcm.obj (.text.SOC_rcmCoreApllHSDivConfig)
                  70023958    00000144     libc.a : setvbuf.c.obj (.text.setvbuf)
                  70023a9c    00000140     nortos.am263px.r5f.ti-arm-clang.release.lib : TimerP_rti_priv.obj (.text.TimerP_setupPriv)
                  70023bdc    00000004     drivers.am263px.r5f.ti-arm-clang.nortos.release.lib : bootloader_soc.obj (.text.Bootloader_socCpuRelease)
                  70023be0    0000013c                                                         : bootloader_profile.obj (.text.Bootloader_profilePrintProfileLog)
                  70023d1c    0000013c                                                         : soc.obj (.text.SOC_virtToPhy)
                  70023e58    00000138                                                         : uart_v0.obj (.text.UART_close)
                  70023f90    00000134                                                         : mcspi_v0_lld.obj (.text.MCSPI_lld_readWrite)
                  700240c4    00000132     nortos.am263px.r5f.ti-arm-clang.release.lib : printf.obj (.text._ntoa_format)
                  700241f6    0000012c     security.am263px.r5f.ti-arm-clang.nortos.release.lib : hsmclient_loadhsmrt.obj (.text.Hsmclient_loadHSMRtFirmware)
                  70024322    0000011e     board.am263px.r5f.ti-arm-clang.nortos.release.lib : flash_nor_ospi.obj (.text.Flash_norOspiReset)
                  70024440    0000011e     security.am263px.r5f.ti-arm-clang.nortos.release.lib : hsmclient.obj (.text.HsmClient_EnqueueAndSendMsg)
                  7002455e    0000011c     drivers.am263px.r5f.ti-arm-clang.nortos.release.lib : mcspi_v0_lld.obj (.text.MCSPI_lld_readWriteIntr)
                  7002467a    00000002     --HOLE-- [fill = 0]
                  7002467c    00000118                                                         : edma.obj (.text.Alloc_resource)
                  70024794    00000118                                                         : mcan.obj (.text.MCAN_readMsgRam)
                  700248ac    00000118     libclang_rt.builtins.a : udivmoddi4.S.obj (.text)
                  700249c4    00000114     drivers.am263px.r5f.ti-arm-clang.nortos.release.lib : soc_rcm.obj (.text.SOC_rcmCoreApllConfig)
                  70024ad8    00000114                                                         : soc_rcm.obj (.text.SOC_rcmGetPeripheralClockFrequency)
                  70024bec    0000010e                                                         : ospi_v0_lld.obj (.text.OSPI_lld_isr)
                  70024cfa    0000010e                                                         : uart_v0_lld.obj (.text.UART_lld_write)
                  70024e08    0000010c     pmic_blackbird.am263px.r5f.ti-arm-clang.nortos.release.lib : pmic.obj (.text.Pmic_init)
                  70024f14    00000108     drivers.am263px.r5f.ti-arm-clang.nortos.release.lib : edma.obj (.text.EDMA_transferCompletionMasterIsrFxn)
                  7002501c    00000106                                                         : mcspi_v0_lld.obj (.text.MCSPI_continuePeripheralTxRx)
                  70025122    00000104     nortos.am263px.r5f.ti-arm-clang.release.lib : ClockP_nortos_r5.obj (.text.ClockP_init)
                  70025226    00000002     --HOLE-- [fill = 0]
                  70025228    00000104     drivers.am263px.r5f.ti-arm-clang.nortos.release.lib : uart_dma_edma.obj (.text.UART_lld_dmaWrite)
                  7002532c    00000100                                                         : mcspi_v0.obj (.text.MCSPI_close)
                  7002542c    00000100     security.am263px.r5f.ti-arm-clang.nortos.release.lib : sipc_notify_src.obj (.text.SIPC_sendMsg)
                  7002552c    000000fc     drivers.am263px.r5f.ti-arm-clang.nortos.release.lib : bootloader_can.obj (.text.Bootloader_CANInit)
                  70025628    000000fc                                                         : uart_v0.obj (.text.UART_write)
                  70025724    000000f8                                                         : ospi_v0_lld.obj (.text.OSPI_lld_readCmd)
                  7002581c    000000f8                                                         : ospi_v0_lld.obj (.text.OSPI_lld_readDirectDma)
                  70025914    000000f8                                                         : ospi_v0_lld.obj (.text.OSPI_lld_writeIndirect)
                  70025a0c    000000f4                                                         : mcspi_v0_lld.obj (.text.MCSPI_lld_initDma)
                  70025b00    000000f2     board.am263px.r5f.ti-arm-clang.nortos.release.lib : eeprom_cat24m.obj (.text.EEPROM_CAT24M_write)
                  70025bf2    000000f2     drivers.am263px.r5f.ti-arm-clang.nortos.release.lib : bootloader_uniflash_mcelf.obj (.text.MCELF_flashVerifyXIPFile)
                  70025ce4    000000f0     libc.a : fputc.c.obj (.text.fputc)
                  70025dd4    000000ec     drivers.am263px.r5f.ti-arm-clang.nortos.release.lib : ospi_v0_lld.obj (.text.OSPI_lld_setProtocol)
                  70025ec0    000000e6                                                         : mcspi_v0_lld.obj (.text.MCSPI_lld_readWriteDma)
                  70025fa6    000000e6     board.obj (.text.TCA6424_Mcan_Transceiver)
                  7002608c    000000e4     drivers.am263px.r5f.ti-arm-clang.nortos.release.lib : mcan.obj (.text.MCAN_writeMsgRam)
                  70026170    000000de                                                         : ospi_v0_lld.obj (.text.OSPI_lld_writeCmd)
                  7002624e    00000002     --HOLE-- [fill = 0]
                  70026250    000000dc                                                         : mcan.obj (.text.MCAN_init)
                  7002632c    000000d8                                                         : bootloader_uniflash_rprc.obj (.text.Bootloader_uniflashFlashOrVerifyXipFile)
                  70026404    000000d6     middleware.am263px.r5f.ti-arm-clang.nortos.release.lib : tielfup32.obj (.text.ELFUP_update)
                  700264da    00000002     --HOLE-- [fill = 0]
                  700264dc    000000d0     drivers.am263px.r5f.ti-arm-clang.nortos.release.lib : edma.obj (.text.EDMA_unregisterIntr)
                  700265ac    000000d0                                                         : mcan.obj (.text.MCAN_config)
                  7002667c    000000ce     board.am263px.r5f.ti-arm-clang.nortos.release.lib : flash_nor_ospi.obj (.text.Flash_norOspiWaitReady)
                  7002674a    00000002     --HOLE-- [fill = 0]
                  7002674c    000000cc     drivers.am263px.r5f.ti-arm-clang.nortos.release.lib : uart_v0_lld.obj (.text.UART_lld_initDma)
                  70026818    000000ca                                                         : mcspi_dma_edma.obj (.text.MCSPI_edmaIsrTx)
                  700268e2    00000002     --HOLE-- [fill = 0]
                  700268e4    000000c8     libc.a : getdevice.c.obj (.text.getdevice)
                  700269ac    000000c6     board.am263px.r5f.ti-arm-clang.nortos.release.lib : flash_nor_ospi.obj (.text.Flash_norOspiWrite)
                  70026a72    000000c6                                                       : flash_nor_ospi.obj (.text.Flash_setOeBit)
                  70026b38    000000c4                                                       : flash_nor_ospi.obj (.text.Flash_norOspiReadId)
                  70026bfc    000000c4     drivers.am263px.r5f.ti-arm-clang.nortos.release.lib : i2c_v1_lld.obj (.text.I2C_lld_mem_write)
                  70026cc0    000000c4                                                         : i2c_v1_lld.obj (.text.I2C_lld_primeTransferIntr)
                  70026d84    000000c4                                                         : mcan.obj (.text.MCAN_setBitTime)
                  70026e48    000000c4                                                         : mcspi_v0_lld.obj (.text.MCSPI_lld_init)
                  70026f0c    000000c4                                                         : uart_v0_lld.obj (.text.UART_lld_init)
                  70026fd0    000000c0                                                         : i2c_v1_lld.obj (.text.I2C_lld_mem_read)
                  70027090    000000c0     board.am263px.r5f.ti-arm-clang.nortos.release.lib : ioexp_tca6416.obj (.text.TCA6416_setOutput)
                  70027150    000000be                                                       : ioexp_tca6416.obj (.text.TCA6416_config)
                  7002720e    000000be                                                       : ioexp_tca6424.obj (.text.TCA6424_config)
                  700272cc    000000be                                                       : ioexp_tca6424.obj (.text.TCA6424_setOutput)
                  7002738a    00000002     --HOLE-- [fill = 0]
                  7002738c    000000bc     drivers.am263px.r5f.ti-arm-clang.nortos.release.lib : edma.obj (.text.EDMA_registerIntr)
                  70027448    000000bc     security.am263px.r5f.ti-arm-clang.nortos.release.lib : hsmclient.obj (.text.HsmClient_procAuthBootStart)
                  70027504    000000ba     drivers.am263px.r5f.ti-arm-clang.nortos.release.lib : mcspi_dma_edma.obj (.text.MCSPI_edmaIsrRx)
                  700275be    000000b6     board.am263px.r5f.ti-arm-clang.nortos.release.lib : flash_nor_ospi.obj (.text.Flash_norOspiErase)
                  70027674    000000b6                                                       : flash_nor_ospi.obj (.text.Flash_norOspiEraseSector)
                  7002772a    000000b4     drivers.am263px.r5f.ti-arm-clang.nortos.release.lib : bootloader_uniflash_common.obj (.text.Bootloader_uniflashFlashFile)
                  700277de    00000002     --HOLE-- [fill = 0]
                  700277e0    000000b4     libc.a : fseek.c.obj (.text.fseeko)
                  70027894    000000b0            : fclose.c.obj (.text.__TI_closefile)
                  70027944    000000b0     nortos.am263px.r5f.ti-arm-clang.release.lib : printf.obj (.text._ntoa_long_long)
                  700279f4    000000ac     drivers.am263px.r5f.ti-arm-clang.nortos.release.lib : soc_rcm.obj (.text.SOC_rcmGetCoreHSDivOut)
                  70027aa0    000000ac                                                         : uart_v0_lld.obj (.text.UART_divisorLatchWrite)
                  70027b4c    000000a8                                                         : bootloader_uniflash_common.obj (.text.Bootloader_uniflashFlashErase)
                  70027bf4    000000a8                                                         : mcan.obj (.text.MCAN_calcMsgRamParamsStartAddr)
                  70027c9c    000000a8     pmic_blackbird.am263px.r5f.ti-arm-clang.nortos.release.lib : pmic_tps653860xx.obj (.text.PMIC_tps653860xxOpen)
                  70027d44    000000a6                                                                : pmic_tps653860xx.obj (.text.PMIC_mcspiReadRegister)
                  70027dea    000000a6     nortos.am263px.r5f.ti-arm-clang.release.lib : printf.obj (.text._out_rev)
                  70027e90    000000a4     drivers.am263px.r5f.ti-arm-clang.nortos.release.lib : i2c_v1_lld.obj (.text.I2C_lld_mem_readIntr)
                  70027f34    000000a4                                                         : i2c_v1_lld.obj (.text.I2C_lld_mem_writeIntr)
                  70027fd8    000000a4                                                         : ospi_v0_lld.obj (.text.OSPI_lld_initDma)
                  7002807c    000000a4     libc.a : memory.c.obj (.text.split)
                  70028120    000000a0     drivers.am263px.r5f.ti-arm-clang.nortos.release.lib : bootloader_hsmRt_load.obj (.text.Bootloader_socLoadHsmRtFw)
                  700281c0    000000a0                                                         : edma.obj (.text.EDMA_freeDmaChannel)
                  70028260    000000a0                                                         : edma.obj (.text.EDMA_freeParam)
                  70028300    000000a0                                                         : edma.obj (.text.EDMA_freeTcc)
                  700283a0    000000a0     libsysbm.a : hostrename.c.obj (.text.HOSTrename)
                  70028440    000000a0     drivers.am263px.r5f.ti-arm-clang.nortos.release.lib : i2c_v1.obj (.text.I2C_close)
                  700284e0    000000a0                                                         : uart_dma_edma.obj (.text.UART_lld_dmaRead)
                  70028580    000000a0     ti_board_config.obj (.text.board_flash_reset)
                  70028620    0000009e     drivers.am263px.r5f.ti-arm-clang.nortos.release.lib : bootloader.obj (.text.Bootloader_getMsgLen)
                  700286be    0000009e     nortos.am263px.r5f.ti-arm-clang.release.lib : SemaphoreP_nortos.obj (.text.SemaphoreP_pend)
                  7002875c    0000009c     drivers.am263px.r5f.ti-arm-clang.nortos.release.lib : bootloader_soc.obj (.text.Bootloader_socCpuPowerOnReset)
                  700287f8    0000009c                                                         : soc_rcm.obj (.text.SOC_rcmsetR5SysClock)
                  70028894    0000009c     libc.a : _io_perm.c.obj (.text.__TI_wrt_ok)
                  70028930    0000009a     ti_drivers_config.obj (.text.HsmClient_config)
                  700289ca    0000009a     drivers.am263px.r5f.ti-arm-clang.nortos.release.lib : mcspi_dma_edma.obj (.text.MCSPI_edmaUpdateTransferParams)
                  70028a64    0000009a     pmic_blackbird.am263px.r5f.ti-arm-clang.nortos.release.lib : pmic_tps653860xx.obj (.text.PMIC_mcspiWriteRegister)
                  70028afe    00000002     --HOLE-- [fill = 0]
                  70028b00    00000098     libsysbm.a : hostlseek.c.obj (.text.HOSTlseek)
                  70028b98    00000096     security.am263px.r5f.ti-arm-clang.nortos.release.lib : hsmclient.obj (.text.HsmClient_isr)
                  70028c2e    00000094     drivers.am263px.r5f.ti-arm-clang.nortos.release.lib : edma.obj (.text.EDMA_configureChannelRegion)
                  70028cc2    00000002     --HOLE-- [fill = 0]
                  70028cc4    00000094     libsysbm.a : hostopen.c.obj (.text.HOSTopen)
                  70028d58    00000094     drivers.am263px.r5f.ti-arm-clang.nortos.release.lib : i2c_v1_lld.obj (.text.I2C_lld_init)
                  70028dec    00000094                                                         : ospi_v0_lld.obj (.text.OSPI_flashExecCmd)
                  70028e80    00000092                                                         : mcspi_v0_lld.obj (.text.MCSPI_setFifoConfig)
                  70028f12    00000090                                                         : i2c_v1.obj (.text.I2C_primeTransfer)
                  70028fa2    0000008e     nortos.am263px.r5f.ti-arm-clang.release.lib : printf.obj (.text._ntoa_long)
                  70029030    0000008c     drivers.am263px.r5f.ti-arm-clang.nortos.release.lib : bootloader_uniflash_common.obj (.text.Bootloader_uniflashFlashVerifyFile)
                  700290bc    0000008c                                                         : mcspi_v0_lld.obj (.text.MCSPI_lld_peripheralIsr)
                  70029148    0000008c                                                         : ospi_v0_lld.obj (.text.OSPI_lld_init)
                  700291d4    0000008c     libsysbm.a : close.c.obj (.text.close)
                  70029260    0000008a     drivers.am263px.r5f.ti-arm-clang.nortos.release.lib : ospi_edma_lld.obj (.text.OSPI_edmaDeInit)
                  700292ea    00000002     --HOLE-- [fill = 0]
                  700292ec    00000088                                                         : uart_v0.obj (.text.UART_init)
                  70029374    00000088     libc.a : fflush.c.obj (.text.__TI_doflush)
                  700293fc    00000084     drivers.am263px.r5f.ti-arm-clang.nortos.release.lib : bootloader_uniflash_common.obj (.text.Bootloader_uniflashFlashFileSector)
                  70029480    00000084     libsysbm.a : hostread.c.obj (.text.HOSTread)
                  70029504    00000084                : hostwrite.c.obj (.text.HOSTwrite)
                  70029588    00000084     drivers.am263px.r5f.ti-arm-clang.nortos.release.lib : mcspi_v0_lld.obj (.text.MCSPI_setPeripheralFifoConfig)
                  7002960c    00000080     ti_drivers_open_close.obj (.text.Drivers_close)
                  7002968c    00000080     drivers.am263px.r5f.ti-arm-clang.nortos.release.lib : edma.obj (.text.EDMA_close)
                  7002970c    00000080     board.am263px.r5f.ti-arm-clang.nortos.release.lib : flash_nor_ospi.obj (.text.Flash_norOspiRegWrite)
                  7002978c    00000080     drivers.am263px.r5f.ti-arm-clang.nortos.release.lib : ospi_v0.obj (.text.OSPI_readDirect)
                  7002980c    00000080                                                         : uart_v0.obj (.text.UART_flushTxFifo)
                  7002988c    0000007e     security.am263px.r5f.ti-arm-clang.nortos.release.lib : hsmclient.obj (.text.HsmClient_procAuthBootUpdate)
                  7002990a    0000007e     drivers.am263px.r5f.ti-arm-clang.nortos.release.lib : mcspi_v0_lld.obj (.text.MCSPI_fifoRead)
                  70029988    0000007e                                                         : mcspi_v0_lld.obj (.text.MCSPI_transferPeripheralPoll)
                  70029a06    00000002     --HOLE-- [fill = 0]
                  70029a08    0000007c                                                         : bootloader_can.obj (.text.Bootloader_CANTransmitResp)
                  70029a84    0000007c     ti_drivers_open_close.obj (.text.Drivers_i2cOpen)
                  70029b00    0000007a     ti_board_open_close.obj (.text.Board_pmicOpen)
                  70029b7a    0000007a     drivers.am263px.r5f.ti-arm-clang.nortos.release.lib : mcspi_v0_lld.obj (.text.MCSPI_initiateLastChunkTransfer)
                  70029bf4    00000078                                                         : mcspi_v0.obj (.text.MCSPI_init)
                  70029c6c    00000078                                                         : ospi_v0.obj (.text.OSPI_init)
                  70029ce4    00000072     board.am263px.r5f.ti-arm-clang.nortos.release.lib : eeprom_cat24m.obj (.text.EEPROM_CAT24M_read)
                  70029d56    00000072     drivers.am263px.r5f.ti-arm-clang.nortos.release.lib : mcspi_v0_lld.obj (.text.MCSPI_fifoWrite)
                  70029dc8    00000072                                                         : mcspi_v0_lld.obj (.text.MCSPI_stop)
                  70029e3a    00000070     ti_board_open_close.obj (.text.Board_flashOpen)
                  70029eaa    00000070     board.am263px.r5f.ti-arm-clang.nortos.release.lib : flash.obj (.text.Flash_offsetToSectorPage)
                  70029f1a    00000070     drivers.am263px.r5f.ti-arm-clang.nortos.release.lib : mcspi_dma_edma.obj (.text.MCSPI_lld_dmaStop)
                  70029f8a    00000070     pmic_blackbird.am263px.r5f.ti-arm-clang.nortos.release.lib : pmic_tps653860xx.obj (.text.PMIC_tps653860xxConfigure)
                  70029ffa    00000070                                                                : pmic_io.obj (.text.Pmic_ioTxByte)
                  7002a06a    0000006e     drivers.am263px.r5f.ti-arm-clang.nortos.release.lib : edma.obj (.text.EDMA_disableTransferRegion)
                  7002a0d8    0000006e                                                         : edma.obj (.text.EDMA_enableTransferRegion)
                  7002a146    0000006e     board.obj (.text.mcanEnableTransceiver)
                  7002a1b4    0000006c     board.am263px.r5f.ti-arm-clang.nortos.release.lib : flash.obj (.text.Flash_offsetToBlkPage)
                  7002a220    0000006c     libsysbm.a : hostunlink.c.obj (.text.HOSTunlink)
                  7002a28c    0000006c     drivers.am263px.r5f.ti-arm-clang.nortos.release.lib : ospi_phy_am26x_lld.obj (.text.OSPI_lld_phyResyncDLL)
                  7002a2f8    0000006c                                                         : uart_v0_lld.obj (.text.UART_lld_writeDma)
                  7002a364    00000068     board.am263px.r5f.ti-arm-clang.nortos.release.lib : flash_nor_ospi.obj (.text.Flash_norOspiSetRegCfg)
                  7002a3cc    00000068     drivers.am263px.r5f.ti-arm-clang.nortos.release.lib : uart_v0_lld.obj (.text.UART_lld_writeIntr)
                  7002a434    00000066     board.am263px.r5f.ti-arm-clang.nortos.release.lib : flash_nor_ospi.obj (.text.Flash_norOspiRegRead)
                  7002a49a    00000066     nortos.am263px.r5f.ti-arm-clang.release.lib : PmuP_armv7r.obj (.text.pmu)
                  7002a500    00000064     drivers.am263px.r5f.ti-arm-clang.nortos.release.lib : soc.obj (.text.SOC_controlModuleUnlockMMR)
                  7002a564    00000064                                                         : soc_rcm.obj (.text.SOC_rcmStartMemInitTCMA)
                  7002a5c8    00000064                                                         : soc_rcm.obj (.text.SOC_rcmStartMemInitTCMB)
                  7002a62c    00000064                                                         : uart_v0_lld.obj (.text.UART_procLineStatusErr)
                  7002a690    00000062     security.am263px.r5f.ti-arm-clang.nortos.release.lib : hsmclient.obj (.text.HsmClient_register)
                  7002a6f2    00000002     --HOLE-- [fill = 0]
                  7002a6f4    00000060     libsysbm.a : hostclose.c.obj (.text.HOSTclose)
                  7002a754    00000060     drivers.am263px.r5f.ti-arm-clang.nortos.release.lib : mcan.obj (.text.MCAN_getProtocolStatus)
                  7002a7b4    00000060                                                         : ospi_phy_am26x_lld.obj (.text.OSPI_lld_phyBasicConfig)
                  7002a814    00000060                                                         : soc_rcm.obj (.text.SOC_rcmMemInitL2Memory)
                  7002a874    00000060                                                         : soc_rcm.obj (.text.SOC_rcmR5ConfigDualCore)
                  7002a8d4    00000060                                                         : soc_rcm.obj (.text.SOC_rcmWaitMemInitTCMA)
                  7002a934    00000060                                                         : soc_rcm.obj (.text.SOC_rcmWaitMemInitTCMB)
                  7002a994    00000060     libc.a : memory.c.obj (.text.calloc)
                  7002a9f4    0000005e     nortos.am263px.r5f.ti-arm-clang.release.lib : ClockP_nortos.obj (.text.ClockP_timerTickIsr)
                  7002aa52    0000005e     drivers.am263px.r5f.ti-arm-clang.nortos.release.lib : mcspi_v0_lld.obj (.text.MCSPI_setChDataSize)
                  7002aab0    0000005e     ti_board_config.obj (.text.TCA6424_Flash_reset)
                  7002ab0e    00000002     --HOLE-- [fill = 0]
                  7002ab10    0000005c     drivers.am263px.r5f.ti-arm-clang.nortos.release.lib : bootloader_soc.obj (.text.Bootloader_socSetAutoClock)
                  7002ab6c    0000005c                                                         : mcan.obj (.text.MCAN_writeRxFIFOAck)
                  7002abc8    0000005c                                                         : mcspi_v0_lld.obj (.text.MCSPI_configInstance)
                  7002ac24    0000005c     pmic_blackbird.am263px.r5f.ti-arm-clang.nortos.release.lib : pmic_core.obj (.text.Pmic_setRegLockState)
                  7002ac80    0000005c     drivers.am263px.r5f.ti-arm-clang.nortos.release.lib : soc.obj (.text.SOC_controlModuleLockMMR)
                  7002acdc    0000005c     nortos.am263px.r5f.ti-arm-clang.release.lib : DebugP_log.obj (.text._DebugP_assert)
                  7002ad38    0000005a     drivers.am263px.r5f.ti-arm-clang.nortos.release.lib : ospi_v0_lld.obj (.text.OSPI_lld_setXferOpCodes)
                  7002ad92    00000058     ti_board_open_close.obj (.text.Board_eepromOpen)
                  7002adea    00000002     --HOLE-- [fill = 0]
                  7002adec    00000058     drivers.am263px.r5f.ti-arm-clang.nortos.release.lib : bootloader.obj (.text.Bootloader_parseNoteSegment)
                  7002ae44    00000058                                                         : bootloader.obj (.text.Bootloader_runCpu)
                  7002ae9c    00000058     ti_clocktree_pll_config.obj (.text.Bootloader_socConfigurePll)
                  7002aef4    00000058     ti_board_config.obj (.text.TCA6416_Flash_reset)
                  7002af4c    00000058     libc.a : fopen.c.obj (.text.__TI_cleanup)
                  7002afa4    00000058     libsysbm.a : trgmsg.c.obj (.text.__TI_readmsg)
                  7002affc    00000058                : trgmsg.c.obj (.text.__TI_writemsg)
                  7002b054    00000056     nortos.am263px.r5f.ti-arm-clang.release.lib : ClockP_nortos.obj (.text.ClockP_getTimeUsec)
                  7002b0aa    00000056     pmic_blackbird.am263px.r5f.ti-arm-clang.nortos.release.lib : pmic_tps653860xx.obj (.text.PMIC_regRead)
                  7002b100    00000056                                                                : pmic_tps653860xx.obj (.text.PMIC_regWrite)
                  7002b156    00000056     drivers.am263px.r5f.ti-arm-clang.nortos.release.lib : uart_v0_lld.obj (.text.UART_intrDisable)
                  7002b1ac    00000056                                                         : uart_v0_lld.obj (.text.UART_writeCancelNoCB)
                  7002b202    00000054     board.am263px.r5f.ti-arm-clang.nortos.release.lib : flash_nor_ospi.obj (.text.Flash_norOspiRead)
                  7002b256    00000002     --HOLE-- [fill = 0]
                  7002b258    00000054     libc.a : exit.c.obj (.text.exit)
                  7002b2ac    00000054            : getdevice.c.obj (.text.finddevice)
                  7002b300    00000054            : autoinit.c.obj (.text:__TI_auto_init_nobinit_nopinit)
                  7002b354    00000052     nortos.am263px.r5f.ti-arm-clang.release.lib : AddrTranslateP_32bit.obj (.text.AddrTranslateP_getLocalAddr)
                  7002b3a6    00000052     drivers.am263px.r5f.ti-arm-clang.nortos.release.lib : bootloader_uniflash_common.obj (.text.Bootloader_uniflashFlashPhyTuningData)
                  7002b3f8    00000052     security.am263px.r5f.ti-arm-clang.nortos.release.lib : hsmclient.obj (.text.HsmClient_checkAndWaitForBootNotification)
                  7002b44a    00000052     drivers.am263px.r5f.ti-arm-clang.nortos.release.lib : mcspi_v0_lld.obj (.text.MCSPI_lld_deInitDma)
                  7002b49c    00000050                                                         : edma.obj (.text.EDMA_allocDmaChannel)
                  7002b4ec    00000050                                                         : edma.obj (.text.EDMA_allocParam)
                  7002b53c    00000050                                                         : edma.obj (.text.EDMA_allocTcc)
                  7002b58c    00000050                                                         : mcan.obj (.text.MCAN_getRxFIFOStatus)
                  7002b5dc    00000050                                                         : mcan.obj (.text.MCAN_setExtIDAndMask)
                  7002b62c    00000050                                                         : soc_rcm.obj (.text.SBL_rcmIsDualCoreSwitchSupported)
                  7002b67c    0000004e     nortos.am263px.r5f.ti-arm-clang.release.lib : ClockP_nortos.obj (.text.ClockP_addToList)
                  7002b6ca    0000004e     ti_drivers_open_close.obj (.text.Drivers_edmaOpen)
                  7002b718    0000004e     ti_drivers_open_close.obj (.text.Drivers_mcspiOpen)
                  7002b766    0000004e     ti_drivers_open_close.obj (.text.Drivers_uartOpen)
                  7002b7b4    0000004e     drivers.am263px.r5f.ti-arm-clang.nortos.release.lib : edma.obj (.text.EDMA_disableChInShadowRegRegion)
                  7002b802    00000002     --HOLE-- [fill = 0]
                  7002b804    0000004c                                                         : bootloader_soc.obj (.text.Bootloader_socCpuGetClock)
                  7002b850    0000004c     ti_drivers_open_close.obj (.text.Drivers_ospiOpen)
                  7002b89c    0000004c     drivers.am263px.r5f.ti-arm-clang.nortos.release.lib : bootloader_flash.obj (.text.Flash_imgRead)
                  7002b8e8    0000004c                                                         : i2c_v1.obj (.text.I2C_LLD_targetTransferCompleteCallback)
                  7002b934    0000004c                                                         : mcspi_v0.obj (.text.MCSPI_transferCallback)
                  7002b980    0000004c                                                         : mcspi_v0_lld.obj (.text.MCSPI_transferControllerIntr)
                  7002b9cc    0000004c                                                         : ospi_v0.obj (.text.OSPI_close)
                  7002ba18    0000004c                                                         : ospi_v0_lld.obj (.text.OSPI_lld_deInit)
                  7002ba64    0000004c                                                         : soc_rcm.obj (.text.SOC_rcmCoreR5FUnhalt)
                  7002bab0    00000048                                                         : ospi_v0_lld.obj (.text.OSPI_lld_deInitDma)
                  7002baf8    00000048                                                         : ospi_phy_am26x_lld.obj (.text.OSPI_lld_phyFindTxHigh)
                  7002bb40    00000048                                                         : uart_dma_edma.obj (.text.UART_edmaIsrRx)
                  7002bb88    00000048     libsysbm.a : unlink.c.obj (.text.unlink)
                  7002bbd0    00000046     drivers.am263px.r5f.ti-arm-clang.nortos.release.lib : ospi_phy_am26x_lld.obj (.text.OSPI_lld_phyFindRxHigh)
                  7002bc16    00000046                                                         : ospi_phy_am26x_lld.obj (.text.OSPI_lld_phyFindRxLow)
                  7002bc5c    00000046                                                         : ospi_phy_am26x_lld.obj (.text.OSPI_lld_phyFindTxLow)
                  7002bca2    00000046                                                         : ospi_phy_am26x_lld.obj (.text.OSPI_lld_phySetRdDelayTxRxDLL)
                  7002bce8    00000046                                                         : uart_dma_edma.obj (.text.UART_edmaIsrTx)
                  7002bd2e    00000002     --HOLE-- [fill = 0]
                  7002bd30    00000044                                                         : mcan.obj (.text.MCAN_addExtMsgIDFilter)
                  7002bd74    00000044                                                         : ospi_v0.obj (.text.OSPI_writeIndirect)
                  7002bdb8    00000044                                                         : uart_v0.obj (.text.UART_Params_init)
                  7002bdfc    00000044                                                         : uart_v0_lld.obj (.text.UART_lld_deInitDma)
                  7002be40    00000042     board.am263px.r5f.ti-arm-clang.nortos.release.lib : flash_nor_ospi.obj (.text.Flash_quirkSpansionUNHYSADisable)
                  7002be82    00000042     drivers.am263px.r5f.ti-arm-clang.nortos.release.lib : ospi_v0_lld.obj (.text.OSPI_lld_enablePhy)
                  7002bec4    00000040                                                         : bootloader.obj (.text.Bootloader_findSeq)
                  7002bf04    00000040                                                         : bootloader.obj (.text.Bootloader_open)
                  7002bf44    00000040                                                         : bootloader_soc.obj (.text.Bootloader_socMemInitCpu)
                  7002bf84    00000040                                                         : bootloader.obj (.text.Bootloader_verifySegmentAddr)
                  7002bfc4    00000040     nortos.am263px.r5f.ti-arm-clang.release.lib : ClockP_nortos.obj (.text.ClockP_stop)
                  7002c004    00000040     ti_dpl_config.obj (.text.Dpl_init)
                  7002c044    00000040     drivers.am263px.r5f.ti-arm-clang.nortos.release.lib : edma.obj (.text.EDMA_mapChToEvtQ)
                  7002c084    00000040                                                         : ospi_phy_am26x_lld.obj (.text.OSPI_lld_phyReadAttackVector)
                  7002c0c4    00000040                                                         : pinmux.obj (.text.Pinmux_config)
                  7002c104    00000040                                                         : uart_v0_lld.obj (.text.UART_lld_deInit)
                  7002c144    00000040     libc.a : memory.c.obj (.text.free_list_insert)
                  7002c184    0000003e     security.am263px.r5f.ti-arm-clang.nortos.release.lib : hsmclient_loadhsmrt.obj (.text.Hsmclient_mboxRxISR)
                  7002c1c2    0000003e     drivers.am263px.r5f.ti-arm-clang.nortos.release.lib : i2c_v1_lld.obj (.text.I2C_lld_transferInit)
                  7002c200    0000003e     security.am263px.r5f.ti-arm-clang.nortos.release.lib : sipc_notify_src.obj (.text.SIPC_registerClient)
                  7002c23e    00000002     --HOLE-- [fill = 0]
                  7002c240    0000003c     drivers.am263px.r5f.ti-arm-clang.nortos.release.lib : edma.obj (.text.EDMA_getBaseAddr)
                  7002c27c    0000003c                                                         : ospi_phy_am26x_lld.obj (.text.OSPI_lld_phyTuneDDR)
                  7002c2b8    0000003c                                                         : soc_rcm.obj (.text.SOC_rcmR5ConfigLockStep)
                  7002c2f4    0000003c                                                         : uart_v0_lld.obj (.text.UART_readData)
                  7002c330    0000003a     nortos.am263px.r5f.ti-arm-clang.release.lib : ClockP_nortos.obj (.text.ClockP_destruct)
                  7002c36a    0000003a                                                 : DebugP_uartLogWriter.obj (.text.DebugP_uartLogWriterPutChar)
                  7002c3a4    0000003a     board.am263px.r5f.ti-arm-clang.nortos.release.lib : eeprom.obj (.text.EEPROM_open)
                  7002c3de    0000003a                                                       : flash.obj (.text.Flash_open)
                  7002c418    0000003a     drivers.am263px.r5f.ti-arm-clang.nortos.release.lib : i2c_v1.obj (.text.I2C_completeCurrTransfer)
                  7002c452    0000003a     ti_power_clock_config.obj (.text.Module_clockSetFrequency)
                  7002c48c    0000003a     board.am263px.r5f.ti-arm-clang.nortos.release.lib : ioexp_tca6416.obj (.text.TCA6416_open)
                  7002c4c6    0000003a                                                       : ioexp_tca6424.obj (.text.TCA6424_open)
                  7002c500    0000003a     drivers.am263px.r5f.ti-arm-clang.nortos.release.lib : uart_v0_lld.obj (.text.UART_lld_flushTxFifo)
                  7002c53a    00000002     --HOLE-- [fill = 0]
                  7002c53c    00000038                                                         : bootloader_soc.obj (.text.Bootloader_authStart)
                  7002c574    00000038                                                         : bootloader_soc.obj (.text.Bootloader_authUpdate)
                  7002c5ac    00000038                                                         : bootloader_soc.obj (.text.Bootloader_socTranslateSectionAddr)
                  7002c5e4    00000038                                                         : mcan.obj (.text.MCAN_getErrCounters)
                  7002c61c    00000038                                                         : mcan.obj (.text.MCAN_initTxBufElement)
                  7002c654    00000038     pmic_blackbird.am263px.r5f.ti-arm-clang.nortos.release.lib : pmic_lld.obj (.text.PMIC_open)
                  7002c68c    00000038                                                                : pmic.obj (.text.Pmic_checkPmicCoreHandle)
                  7002c6c4    00000038     drivers.am263px.r5f.ti-arm-clang.nortos.release.lib : soc_rcm.obj (.text.SOC_rcmADPLLJGetFOut)
                  7002c6fc    00000038     nortos.am263px.r5f.ti-arm-clang.release.lib : DebugP_nortos.obj (.text._DebugP_logZone)
                  7002c734    00000038                                                 : PmuP_armv7r_asm.obj (.text.pmu)
                  7002c76c    00000036     drivers.am263px.r5f.ti-arm-clang.nortos.release.lib : edma.obj (.text.EDMA_clrMissEvtRegion)
                  7002c7a2    00000036     security.am263px.r5f.ti-arm-clang.nortos.release.lib : hsmclient_wait_for_boot_notify.obj (.text.HsmClient_waitForBootNotify)
                  7002c7d8    00000036     nortos.am263px.r5f.ti-arm-clang.release.lib : SemaphoreP_nortos.obj (.text.SemaphoreP_post)
                  7002c80e    00000034     drivers.am263px.r5f.ti-arm-clang.nortos.release.lib : bootloader.obj (.text.Bootloader_getX509CertLen)
                  7002c842    00000034     nortos.am263px.r5f.ti-arm-clang.release.lib : ClockP_nortos.obj (.text.ClockP_start)
                  7002c876    00000034     board.am263px.r5f.ti-arm-clang.nortos.release.lib : eeprom_cat24m.obj (.text.EEPROM_CAT24M_open)
                  7002c8aa    00000002     --HOLE-- [fill = 0]
                  7002c8ac    00000034     drivers.am263px.r5f.ti-arm-clang.nortos.release.lib : i2c_v1.obj (.text.I2C_init)
                  7002c8e0    00000034     ti_power_clock_config.obj (.text.Module_clockDisable)
                  7002c914    00000034     ti_power_clock_config.obj (.text.Module_clockEnable)
                  7002c948    00000034     drivers.am263px.r5f.ti-arm-clang.nortos.release.lib : ospi_lld_dma.obj (.text.OSPI_dmaOpen)
                  7002c97c    00000034                                                         : ospi_v0_lld.obj (.text.OSPI_lld_disablePhy)
                  7002c9b0    00000034                                                         : ospi_v0_lld.obj (.text.OSPI_lld_readDirect)
                  7002c9e4    00000034     pmic_blackbird.am263px.r5f.ti-arm-clang.nortos.release.lib : pmic_io.obj (.text.Pmic_ioRxByte)
                  7002ca18    00000034     drivers.am263px.r5f.ti-arm-clang.nortos.release.lib : soc_rcm.obj (.text.SOC_rcmGetModuleClkDivVal)
                  7002ca4c    00000034     libc.a : memory.c.obj (.text.free_list_remove)
                  7002ca80    00000034     libsysbm.a : lseek.c.obj (.text.lseek)
                  7002cab4    00000034                : write.c.obj (.text.write)
                  7002cae8    00000032     nortos.am263px.r5f.ti-arm-clang.release.lib : ClockP_nortos.obj (.text.ClockP_usleep)
                  7002cb1a    00000032     drivers.am263px.r5f.ti-arm-clang.nortos.release.lib : edma.obj (.text.EDMA_unmapChToEvtQ)
                  7002cb4c    00000032                                                         : mcan.obj (.text.MCAN_initMsgRamConfigParams)
                  7002cb7e    00000032                                                         : mcan.obj (.text.MCAN_initOperModeParams)
                  7002cbb0    00000032                                                         : mcspi_v0.obj (.text.MCSPI_errorCallback)
                  7002cbe2    00000002     --HOLE-- [fill = 0]
                  7002cbe4    00000030                                                         : bootloader.obj (.text.Bootloader_BootImageInfo_init)
                  7002cc14    00000030                                                         : bootloader_soc.obj (.text.Bootloader_authFinish)
                  7002cc44    00000030                                                         : i2c_v1_lld.obj (.text.I2CControllerInitExpClk)
                  7002cc74    00000030                                                         : mcan.obj (.text.MCAN_txBufAddReq)
                  7002cca4    00000030                                                         : ospi_v0_lld.obj (.text.OSPI_utilLog2)
                  7002ccd4    00000030     security.am263px.r5f.ti-arm-clang.nortos.release.lib : sipc_notify_cfg.obj (.text.SIPC_Register_Isr)
                  7002cd04    00000030     drivers.am263px.r5f.ti-arm-clang.nortos.release.lib : soc_rcm.obj (.text.SOC_rcmCoreApllRelockPreRequisite)
                  7002cd34    00000030     ti_drivers_config.obj (.text.System_deinit)
                  7002cd64    00000030     drivers.am263px.r5f.ti-arm-clang.nortos.release.lib : uart_v0.obj (.text.UART_lld_readCompleteCallback)
                  7002cd94    00000030                                                         : uart_v0.obj (.text.UART_lld_writeCompleteCallback)
                  7002cdc4    0000002e                                                         : edma.obj (.text.EDMA_enableChInShadowRegRegion)
                  7002cdf2    0000002e                                                         : i2c_v1_lld.obj (.text.I2C_lld_deInit)
                  7002ce20    0000002c                                                         : bootloader_profile.obj (.text.Bootloader_profileReset)
                  7002ce4c    0000002c                                                         : edma.obj (.text.EDMA_getHandle)
                  7002ce78    0000002c                                                         : i2c_v1.obj (.text.I2C_getHandle)
                  7002cea4    0000002c                                                         : mcspi_v0.obj (.text.MCSPI_getHandle)
                  7002ced0    0000002c                                                         : soc_rcm.obj (.text.SOC_rcmGetR5Clock)
                  7002cefc    0000002c                                                         : uart_v0.obj (.text.UART_getHandle)
                  7002cf28    0000002a     board.am263px.r5f.ti-arm-clang.nortos.release.lib : flash.obj (.text.Flash_read)
                  7002cf52    0000002a                                                       : flash.obj (.text.Flash_write)
                  7002cf7c    0000002a     ti_drivers_config.obj (.text.System_init)
                  7002cfa6    00000028     nortos.am263px.r5f.ti-arm-clang.release.lib : ClockP_nortos.obj (.text.ClockP_construct)
                  7002cfce    00000028                                                 : ClockP_nortos.obj (.text.ClockP_sleepTicks)
                  7002cff6    00000002     --HOLE-- [fill = 0]
                  7002cff8    00000028     drivers.am263px.r5f.ti-arm-clang.nortos.release.lib : mcan.obj (.text.MCAN_initSetBitTimeParams)
                  7002d020    00000028                                                         : mcspi_v0_lld.obj (.text.MCSPI_fifoReadMultiWord)
                  7002d048    00000028                                                         : ospi_lld_dma.obj (.text.OSPI_dmaCopy)
                  7002d070    00000028                                                         : ospi_v0.obj (.text.OSPI_getHandle)
                  7002d098    00000028     pmic_blackbird.am263px.r5f.ti-arm-clang.nortos.release.lib : pmic_tps653860xx.obj (.text.PMIC_tps653860xxClose)
                  7002d0c0    00000028     drivers.am263px.r5f.ti-arm-clang.nortos.release.lib : soc.obj (.text.SOC_moduleSetClockFrequency)
                  7002d0e8    00000028                                                         : soc_rcm.obj (.text.SOC_rcmGetADPLLJConfig)
                  7002d110    00000026                                                         : bootloader.obj (.text.Bootloader_initCpu)
                  7002d136    00000026                                                         : edma.obj (.text.EDMA_setPaRAM)
                  7002d15c    00000026                                                         : i2c_v1_lld.obj (.text.I2C_lld_transferIntr)
                  7002d182    00000026                                                         : i2c_v1_lld.obj (.text.I2C_lld_transferPoll)
                  7002d1a8    00000026     security.am263px.r5f.ti-arm-clang.nortos.release.lib : sipc_notify_src.obj (.text.SIPC_unregisterClient)
                  7002d1ce    00000026     drivers.am263px.r5f.ti-arm-clang.nortos.release.lib : uart_dma_edma.obj (.text.UART_lld_dmaDisableChannel)
                  7002d1f4    00000026     main.obj (.text.flashFixUpOspiBoot)
                  7002d21a    00000002     --HOLE-- [fill = 0]
                  7002d21c    00000024     drivers.am263px.r5f.ti-arm-clang.nortos.release.lib : bootloader_profile.obj (.text.Bootloader_profileAddProfilePoint)
                  7002d240    00000024                                                         : edma.obj (.text.EDMA_clrIntrRegion)
                  7002d264    00000024                                                         : edma.obj (.text.EDMA_disableEvtIntrRegion)
                  7002d288    00000024                                                         : edma.obj (.text.EDMA_readIntrStatusRegion)
                  7002d2ac    00000024     board.am263px.r5f.ti-arm-clang.nortos.release.lib : flash.obj (.text.Flash_getAttrs)
                  7002d2d0    00000024                                                       : flash.obj (.text.Flash_getHandle)
                  7002d2f4    00000024     security.am263px.r5f.ti-arm-clang.nortos.release.lib : hsmclient.obj (.text.HsmClient_init)
                  7002d318    00000024     drivers.am263px.r5f.ti-arm-clang.nortos.release.lib : mcan.obj (.text.MCAN_initGlobalFilterConfigParams)
                  7002d33c    00000024                                                         : mcan.obj (.text.MCAN_setOpMode)
                  7002d360    00000024                                                         : mcspi_v0_lld.obj (.text.MCSPI_fifoWriteMultiWord)
                  7002d384    00000024                                                         : ospi_v0_lld.obj (.text.OSPI_lld_enableDacMode)
                  7002d3a8    00000024                                                         : uart_v0_lld.obj (.text.UART_IsHWFlowCtrlValid)
                  7002d3cc    00000024     libclang_rt.builtins.a : aeabi_uldivmod.S.obj (.text.__aeabi_uldivmod)
                  7002d3f0    00000024     nortos.am263px.r5f.ti-arm-clang.release.lib : printf.obj (.text.vprintf_)
                  7002d414    00000022     drivers.am263px.r5f.ti-arm-clang.nortos.release.lib : edma.obj (.text.EDMA_linkChannel)
                  7002d436    00000022     board.am263px.r5f.ti-arm-clang.nortos.release.lib : eeprom_cat24m.obj (.text.EEPROM_CAT24M_close)
                  7002d458    00000022     drivers.am263px.r5f.ti-arm-clang.nortos.release.lib : mcspi_v0_lld.obj (.text.MCSPI_transferPeripheralIntr)
                  7002d47a    00000022                                                         : ospi_v0_lld.obj (.text.OSPI_lld_configBaudrate)
                  7002d49c    00000022                                                         : ospi_v0_lld.obj (.text.OSPI_lld_setDeviceSize)
                  7002d4be    00000022                                                         : ospi_v0_lld.obj (.text.OSPI_writeFifoData)
                  7002d4e0    00000022     pmic_blackbird.am263px.r5f.ti-arm-clang.nortos.release.lib : pmic.obj (.text.Pmic_deinit)
                  7002d502    00000002     --HOLE-- [fill = 0]
                  7002d504    00000020     drivers.am263px.r5f.ti-arm-clang.nortos.release.lib : bootloader.obj (.text.Bootloader_runSelfCpu)
                  7002d524    00000020     nortos.am263px.r5f.ti-arm-clang.release.lib : DebugP_log.obj (.text.DebugP_logZoneEnable)
                  7002d544    00000020     drivers.am263px.r5f.ti-arm-clang.nortos.release.lib : edma.obj (.text.EDMA_chainChannel)
                  7002d564    00000020                                                         : bootloader_flash.obj (.text.Flash_imgDacModeToggle)
                  7002d584    00000020                                                         : i2c_v1_lld.obj (.text.I2C_lld_Message_init)
                  7002d5a4    00000020                                                         : mcan.obj (.text.MCAN_getOpMode)
                  7002d5c4    00000020                                                         : mcan.obj (.text.MCAN_isMemInitDone)
                  7002d5e4    00000020                                                         : mcspi_v0_lld.obj (.text.MCSPI_fifoRead32)
                  7002d604    00000020                                                         : ospi_v0_lld.obj (.text.OSPI_lld_readCmdParams_init)
                  7002d624    00000020                                                         : ospi_v0_lld.obj (.text.OSPI_lld_writeCmdParams_init)
                  7002d644    00000020                                                         : ospi_v0.obj (.text.OSPI_readCmd)
                  7002d664    00000020                                                         : ospi_v0.obj (.text.OSPI_writeCmd)
                  7002d684    00000020     nortos.am263px.r5f.ti-arm-clang.release.lib : TimerP_rti_priv.obj (.text.TimerP_Params_initPriv)
                  7002d6a4    00000020     drivers.am263px.r5f.ti-arm-clang.nortos.release.lib : uart_v0_lld.obj (.text.UART_getChar)
                  7002d6c4    00000020                                                         : bootloader_can.obj (.text.mcanConfigTxMsg)
                  7002d6e4    0000001e     ti_drivers_open_close.obj (.text.Drivers_open)
                  7002d702    0000001e     board.am263px.r5f.ti-arm-clang.nortos.release.lib : eeprom.obj (.text.EEPROM_read)
                  7002d720    0000001e     drivers.am263px.r5f.ti-arm-clang.nortos.release.lib : ospi_v0_lld.obj (.text.OSPI_lld_readBaudRateDivFromReg)
                  7002d73e    0000001e                                                         : ospi_v0_lld.obj (.text.OSPI_readFifoData)
                  7002d75c    0000001e                                                         : ospi_v0_lld.obj (.text.OSPI_waitWriteSRAMLevel)
                  7002d77a    0000001e     board.am263px.r5f.ti-arm-clang.nortos.release.lib : ioexp_tca6416.obj (.text.TCA6416_close)
                  7002d798    0000001e                                                       : ioexp_tca6424.obj (.text.TCA6424_close)
                  7002d7b6    0000001e     drivers.am263px.r5f.ti-arm-clang.nortos.release.lib : uart_v0_lld.obj (.text.UART_spaceAvail)
                  7002d7d4    0000001e                                                         : bootloader.obj (.text.memcmp)
                  7002d7f2    00000002     --HOLE-- [fill = 0]
                  7002d7f4    0000001c                                                         : bootloader_soc.obj (.text.Bootloader_socGetCoreName)
                  7002d810    0000001c                                                         : mcan.obj (.text.MCAN_getTxBufTransmissionStatus)
                  7002d82c    0000001c                                                         : mcspi_v0_lld.obj (.text.MCSPI_fifoWrite32)
                  7002d848    0000001c                                                         : mcspi_v0_lld.obj (.text.MCSPI_getFifoTrigLvl)
                  7002d864    0000001c                                                         : mcspi_v0_lld.obj (.text.MCSPI_lld_deInit)
                  7002d880    0000001c                                                         : ospi_v0_lld.obj (.text.OSPI_lld_disableDacMode)
                  7002d89c    0000001c                                                         : ospi_v0_lld.obj (.text.OSPI_lld_setNumAddrBytes)
                  7002d8b8    0000001c                                                         : soc_rcm.obj (.text.SOC_rcmIsR5FInLockStepMode)
                  7002d8d4    0000001c     libsysbm.a : hostrename.c.obj (.text.strcpy)
                  7002d8f0    0000001c                : hostrename.c.obj (.text.strlen)
                  7002d90c    0000001c     libc.a : memcpy32.S.obj (.text:TI_memcpy_small)
                  7002d928    0000001a     nortos.am263px.r5f.ti-arm-clang.release.lib : CpuId_armv7r.obj (.text.CSL_armR5GetCpuID)
                  7002d942    0000001a     ti_board_open_close.obj (.text.Drivers_pmicOpen)
                  7002d95c    0000001a     drivers.am263px.r5f.ti-arm-clang.nortos.release.lib : edma.obj (.text.EDMA_readEventStatusRegion)
                  7002d976    0000001a     middleware.am263px.r5f.ti-arm-clang.nortos.release.lib : tielfup32.obj (.text.ELFUP_init)
                  7002d990    0000001a     drivers.am263px.r5f.ti-arm-clang.nortos.release.lib : i2c_v1.obj (.text.I2C_hwiFxn)
                  7002d9aa    0000001a                                                         : ospi_edma_lld.obj (.text.OSPI_EdmaParams_init)
                  7002d9c4    0000001a                                                         : ospi_edma_lld.obj (.text.OSPI_edmaIsrFxn)
                  7002d9de    0000001a                                                         : ospi_v0_lld.obj (.text.OSPI_lld_setRdDataCaptureDelay)
                  7002d9f8    0000001a     security.am263px.r5f.ti-arm-clang.nortos.release.lib : sipc_notify_src.obj (.text.SIPC_Params_init)
                  7002da12    0000001a     drivers.am263px.r5f.ti-arm-clang.nortos.release.lib : uart_v0_lld.obj (.text.UART_enhanFuncEnable)
                  7002da2c    00000018     ti_board_open_close.obj (.text.Board_eepromClose)
                  7002da44    00000018     drivers.am263px.r5f.ti-arm-clang.nortos.release.lib : bootloader_profile.obj (.text.Bootloader_profileAddCore)
                  7002da5c    00000018                                                         : bootloader_soc.obj (.text.Bootloader_socCpuGetClkDefault)
                  7002da74    00000018     ti_drivers_open_close.obj (.text.Drivers_mcspiClose)
                  7002da8c    00000018     board.am263px.r5f.ti-arm-clang.nortos.release.lib : flash_nor_ospi.obj (.text.Flash_norOspiClose)
                  7002daa4    00000018     drivers.am263px.r5f.ti-arm-clang.nortos.release.lib : i2c_v1.obj (.text.I2C_deinit)
                  7002dabc    00000018                                                         : mcspi_v0.obj (.text.MCSPI_deinit)
                  7002dad4    00000018                                                         : mcspi_dma_edma.obj (.text.MCSPI_lld_dmaInit)
                  7002daec    00000018                                                         : ospi_v0.obj (.text.OSPI_deinit)
                  7002db04    00000018                                                         : ospi_lld_dma.obj (.text.OSPI_dmaClose)
                  7002db1c    00000018                                                         : ospi_lld_dma.obj (.text.OSPI_isDmaInterruptEnabled)
                  7002db34    00000018                                                         : soc.obj (.text.SOC_getCoreName)
                  7002db4c    00000018                                                         : soc_rcm.obj (.text.SOC_rcmMemInitMailboxMemory)
                  7002db64    00000018                                                         : soc_rcm.obj (.text.SOC_rcmR5SS0PowerOnReset)
                  7002db7c    00000018                                                         : soc_rcm.obj (.text.SOC_rcmR5SS1PowerOnReset)
                  7002db94    00000018     nortos.am263px.r5f.ti-arm-clang.release.lib : TimerP_rti_priv.obj (.text.TimerP_getCountPriv)
                  7002dbac    00000018     drivers.am263px.r5f.ti-arm-clang.nortos.release.lib : uart_v0.obj (.text.UART_deinit)
                  7002dbc4    00000018     libc.a : memset32.S.obj (.text:TI_memset_small)
                  7002dbdc    00000016     ti_board_open_close.obj (.text.Board_driversOpen)
                  7002dbf2    00000016     drivers.am263px.r5f.ti-arm-clang.nortos.release.lib : bootloader_soc.obj (.text.Bootloader_socCpuSetClock)
                  7002dc08    00000016                                                         : i2c_v1_lld.obj (.text.I2C_lld_Transaction_init)
                  7002dc1e    00000016                                                         : mcspi_v0_lld.obj (.text.MCSPI_reset)
                  7002dc34    00000016                                                         : ospi_v0_lld.obj (.text.OSPI_getCmdExt)
                  7002dc4a    00000016                                                         : ospi_v0_lld.obj (.text.OSPI_lld_Transaction_init)
                  7002dc60    00000016                                                         : ospi_v0_lld.obj (.text.OSPI_lld_disablePhyPipeline)
                  7002dc76    00000016                                                         : ospi_v0_lld.obj (.text.OSPI_lld_enablePhyPipeline)
                  7002dc8c    00000016                                                         : ospi_v0_lld.obj (.text.OSPI_lld_enableSDR)
                  7002dca2    00000016                                                         : ospi_v0_lld.obj (.text.OSPI_lld_setResetPinStatus)
                  7002dcb8    00000016     nortos.am263px.r5f.ti-arm-clang.release.lib : SemaphoreP_nortos.obj (.text.SemaphoreP_constructBinary)
                  7002dcce    00000016     drivers.am263px.r5f.ti-arm-clang.nortos.release.lib : uart_v0_lld.obj (.text.UART_IsTxRxFifoEmpty)
                  7002dce4    00000016                                                         : uart_v0_lld.obj (.text.UART_checkCharsAvailInFifo)
                  7002dcfa    00000016                                                         : uart_v0_lld.obj (.text.UART_getIntrIdentityStatus)
                  7002dd10    00000014                                                         : bootloader_soc.obj (.text.Bootloader_socCpuResetRelease)
                  7002dd24    00000014                                                         : bootloader_soc.obj (.text.Bootloader_socIsAuthRequired)
                  7002dd38    00000014     nortos.am263px.r5f.ti-arm-clang.release.lib : ClockP_nortos.obj (.text.ClockP_usecToTicks)
                  7002dd4c    00000014     drivers.am263px.r5f.ti-arm-clang.nortos.release.lib : edma.obj (.text.EDMA_getRegionId)
                  7002dd60    00000014     board.am263px.r5f.ti-arm-clang.nortos.release.lib : flash.obj (.text.Flash_eraseSector)
                  7002dd74    00000014     drivers.am263px.r5f.ti-arm-clang.nortos.release.lib : ospi_v0_lld.obj (.text.OSPI_lld_setCmdDummyCycles)
                  7002dd88    00000014                                                         : soc_rcm.obj (.text.SOC_rcmR5SS0TriggerReset)
                  7002dd9c    00000014     nortos.am263px.r5f.ti-arm-clang.release.lib : SemaphoreP_nortos.obj (.text.SemaphoreP_constructMutex)
                  7002ddb0    00000014     drivers.am263px.r5f.ti-arm-clang.nortos.release.lib : uart_v0.obj (.text.UART_Transaction_init)
                  7002ddc4    00000014                                                         : uart_v0_lld.obj (.text.UART_enhanFuncBitValRestore)
                  7002ddd8    00000012     board.am263px.r5f.ti-arm-clang.nortos.release.lib : flash.obj (.text.Flash_disableDacMode)
                  7002ddea    00000012                                                       : flash.obj (.text.Flash_enableDacMode)
                  7002ddfc    00000012                                                       : flash.obj (.text.Flash_eraseBlk)
                  7002de0e    00000012     security.am263px.r5f.ti-arm-clang.nortos.release.lib : hsmclient_loadhsmrt.obj (.text.Hsmclient_updateBootNotificationRegister)
                  7002de20    00000012     drivers.am263px.r5f.ti-arm-clang.nortos.release.lib : i2c_v1.obj (.text.I2C_LLD_transferCompleteCallback)
                  7002de32    00000012                                                         : ospi_v0_lld.obj (.text.OSPI_lld_enableModeBitsCmd)
                  7002de44    00000012     pmic_blackbird.am263px.r5f.ti-arm-clang.nortos.release.lib : pmic_lld.obj (.text.PMIC_configure)
                  7002de56    00000012     drivers.am263px.r5f.ti-arm-clang.nortos.release.lib : uart_v0_lld.obj (.text.UART_hardwareFlowCtrlOptSet)
                  7002de68    00000012                                                         : uart_v0_lld.obj (.text.UART_operatingModeSelect)
                  7002de7a    00000012                                                         : uart_v0_lld.obj (.text.UART_readLineStatus)
                  7002de8c    00000012     ti_dpl_config.obj (.text.putchar_)
                  7002de9e    00000010     drivers.am263px.r5f.ti-arm-clang.nortos.release.lib : bootloader_uniflash_rprc.obj (.text.Bootloader_Uniflash_RPRC_flashVerifyXIPFile)
                  7002deae    00000010                                                         : bootloader.obj (.text.Bootloader_close)
                  7002debe    00000010                                                         : bootloader.obj (.text.Bootloader_isCorePresent)
                  7002dece    00000010     board.am263px.r5f.ti-arm-clang.nortos.release.lib : flash_nor_ospi.obj (.text.Flash_norOspiDacModeDisable)
                  7002dede    00000010                                                       : flash_nor_ospi.obj (.text.Flash_norOspiDacModeEnable)
                  7002deee    00000010     drivers.am263px.r5f.ti-arm-clang.nortos.release.lib : ospi_v0.obj (.text.OSPI_configBaudrate)
                  7002defe    00000010                                                         : ospi_v0.obj (.text.OSPI_disableDacMode)
                  7002df0e    00000010                                                         : ospi_v0.obj (.text.OSPI_disablePhy)
                  7002df1e    00000010                                                         : ospi_v0.obj (.text.OSPI_enableDacMode)
                  7002df2e    00000010                                                         : ospi_v0.obj (.text.OSPI_enablePhy)
                  7002df3e    00000010                                                         : ospi_v0.obj (.text.OSPI_enablePhyPipeline)
                  7002df4e    00000010                                                         : ospi_v0.obj (.text.OSPI_enableSDR)
                  7002df5e    00000010                                                         : ospi_v0.obj (.text.OSPI_getBaudRateDivFromObj)
                  7002df6e    00000002     --HOLE-- [fill = 0]
                  7002df70    00000010                                                         : ospi_phy_am26x_lld.obj (.text.OSPI_lld_phyGetTuningData)
                  7002df80    00000010                                                         : ospi_v0_lld.obj (.text.OSPI_lld_setReadDummyCycles)
                  7002df90    00000010                                                         : ospi_v0.obj (.text.OSPI_setRdDataCaptureDelay)
                  7002dfa0    00000010                                                         : ospi_v0.obj (.text.OSPI_setResetPinStatus)
                  7002dfb0    00000010     pmic_blackbird.am263px.r5f.ti-arm-clang.nortos.release.lib : pmic_tps653860xx.obj (.text.PMIC_criticalSectionStartFn)
                  7002dfc0    00000010     drivers.am263px.r5f.ti-arm-clang.nortos.release.lib : soc_rcm.obj (.text.SOC_rcmR5SS1TriggerReset)
                  7002dfd0    00000010                                                         : uart_v0_lld.obj (.text.UART_intr2Disable)
                  7002dfe0    00000010     libclang_rt.builtins.a : aeabi_memset.S.obj (.text.__aeabi_memset)
                  7002dff0    00000010     libc.a : fputc.c.obj (.text.putchar)
                  7002e000    0000000e     drivers.am263px.r5f.ti-arm-clang.nortos.release.lib : bootloader_uniflash_mcelf.obj (.text.Bootloader_Uniflash_MCELF_flashVerifyXIPFile)
                  7002e00e    0000000e                                                         : bootloader_uniflash_mcelf.obj (.text.Bootloader_Uniflash_MCELF_flashXIPFile)
                  7002e01c    0000000e                                                         : bootloader_soc.obj (.text.Bootloader_socCpuResetReleaseSelf)
                  7002e02a    0000000e                                                         : bootloader_soc.obj (.text.Bootloader_socInitL2MailBoxMemory)
                  7002e038    0000000e                                                         : edma.obj (.text.EDMA_ccPaRAMEntry_init)
                  7002e046    0000000e     board.am263px.r5f.ti-arm-clang.nortos.release.lib : eeprom.obj (.text.EEPROM_close)
                  7002e054    0000000e                                                       : flash.obj (.text.Flash_close)
                  7002e062    0000000e                                                       : flash.obj (.text.Flash_getPhyTuningOffset)
                  7002e070    0000000e     drivers.am263px.r5f.ti-arm-clang.nortos.release.lib : i2c_v1.obj (.text.I2C_transferCallback)
                  7002e07e    0000000e                                                         : ospi_v0.obj (.text.OSPI_getInputClk)
                  7002e08c    0000000e                                                         : ospi_v0.obj (.text.OSPI_isDacEnable)
                  7002e09a    0000000e                                                         : ospi_v0.obj (.text.OSPI_isPhyEnable)
                  7002e0a8    0000000e                                                         : ospi_v0_lld.obj (.text.OSPI_lld_clearDualOpCodeMode)
                  7002e0b6    0000000e                                                         : ospi_v0_lld.obj (.text.OSPI_lld_enableModeBitsRead)
                  7002e0c4    0000000e                                                         : ospi_v0_lld.obj (.text.OSPI_lld_setModeBits)
                  7002e0d2    0000000e                                                         : ospi_phy_am26x.obj (.text.OSPI_phyReadAttackVector)
                  7002e0e0    0000000e                                                         : ospi_phy_am26x.obj (.text.OSPI_phyTuneDDR)
                  7002e0ee    0000000e     pmic_blackbird.am263px.r5f.ti-arm-clang.nortos.release.lib : pmic_lld.obj (.text.PMIC_close)
                  7002e0fc    0000000e     ti_pinmux_config.obj (.text.Pinmux_init)
                  7002e10a    0000000e     ti_power_clock_config.obj (.text.PowerClock_init)
                  7002e118    0000000c     drivers.am263px.r5f.ti-arm-clang.nortos.release.lib : bootloader.obj (.text.Bootloader_Params_init)
                  7002e124    0000000c                                                         : bootloader_profile.obj (.text.Bootloader_profileUpdateAppimageSize)
                  7002e130    0000000c                                                         : bootloader_profile.obj (.text.Bootloader_profileUpdateMediaAndClk)
                  7002e13c    0000000c                                                         : bootloader_soc.obj (.text.Bootloader_socGetBootSeqOid)
                  7002e148    0000000c     nortos.am263px.r5f.ti-arm-clang.release.lib : ClockP_nortos.obj (.text.ClockP_getTicks)
                  7002e154    0000000c                                                 : DebugP_uartLogWriter.obj (.text.DebugP_uartSetDrvIndex)
                  7002e160    0000000c     drivers.am263px.r5f.ti-arm-clang.nortos.release.lib : edma.obj (.text.EDMA_isInitialized)
                  7002e16c    0000000c     security.am263px.r5f.ti-arm-clang.nortos.release.lib : hsmclient.obj (.text.HsmClient_SecureBootQueueInit)
                  7002e178    0000000c     drivers.am263px.r5f.ti-arm-clang.nortos.release.lib : i2c_v1.obj (.text.I2C_Transaction_init)
                  7002e184    0000000c                                                         : ospi_v0.obj (.text.OSPI_clearDualOpCodeMode)
                  7002e190    0000000c                                                         : ospi_v0.obj (.text.OSPI_enableModeBitsCmd)
                  7002e19c    0000000c                                                         : ospi_v0.obj (.text.OSPI_enableModeBitsRead)
                  7002e1a8    0000000c                                                         : ospi_v0_lld.obj (.text.OSPI_lld_getFlashDataBaseAddr)
                  7002e1b4    0000000c                                                         : ospi_v0_lld.obj (.text.OSPI_lld_getInputClk)
                  7002e1c0    0000000c                                                         : ospi_v0.obj (.text.OSPI_setCmdDummyCycles)
                  7002e1cc    0000000c                                                         : ospi_v0.obj (.text.OSPI_setCmdExtType)
                  7002e1d8    0000000c                                                         : ospi_v0.obj (.text.OSPI_setDeviceSize)
                  7002e1e4    0000000c                                                         : ospi_v0.obj (.text.OSPI_setModeBits)
                  7002e1f0    0000000c                                                         : ospi_v0.obj (.text.OSPI_setNumAddrBytes)
                  7002e1fc    0000000c                                                         : ospi_v0.obj (.text.OSPI_setPhyEnableSuccess)
                  7002e208    0000000c                                                         : ospi_v0.obj (.text.OSPI_setProtocol)
                  7002e214    0000000c                                                         : ospi_v0.obj (.text.OSPI_setReadDummyCycles)
                  7002e220    0000000c                                                         : ospi_v0.obj (.text.OSPI_setXferOpCodes)
                  7002e22c    0000000c     pmic_blackbird.am263px.r5f.ti-arm-clang.nortos.release.lib : pmic_tps653860xx.obj (.text.PMIC_criticalSectionStopFn)
                  7002e238    0000000c     security.am263px.r5f.ti-arm-clang.nortos.release.lib : sipc_notify_src.obj (.text.SIPC_getSelfCoreId)
                  7002e244    0000000c     drivers.am263px.r5f.ti-arm-clang.nortos.release.lib : soc.obj (.text.SOC_getSelfCpuClk)
                  7002e250    0000000c                                                         : soc_rcm.obj (.text.SOC_rcmSetR5ClockSource)
                  7002e25c    0000000c     board.am263px.r5f.ti-arm-clang.nortos.release.lib : ioexp_tca6416.obj (.text.TCA6416_Params_init)
                  7002e268    0000000c                                                       : ioexp_tca6424.obj (.text.TCA6424_Params_init)
                  7002e274    0000000c     libclang_rt.builtins.a : aeabi_memset.S.obj (.text.__aeabi_memclr)
                  7002e280    0000000c     libc.a : memory.c.obj (.text.malloc)
                  7002e28c    0000000c     nortos.am263px.r5f.ti-arm-clang.release.lib : CpuId_armv7r_asm.obj (.text)
                  7002e298    00000008     drivers.am263px.r5f.ti-arm-clang.nortos.release.lib : bootloader_uniflash_rprc.obj (.text.Bootloader_Uniflash_RPRC_flashXIPFile)
                  7002e2a0    0000000c     libc.a : strcmp32.S.obj (.text)
                  7002e2ac    0000000a     drivers.am263px.r5f.ti-arm-clang.nortos.release.lib : bootloader.obj (.text.Bootloader_getMulticoreImageSize)
                  7002e2b6    0000000a     nortos.am263px.r5f.ti-arm-clang.release.lib : ClockP_nortos.obj (.text.ClockP_Params_init)
                  7002e2c0    0000000a                                                 : ClockP_nortos.obj (.text.ClockP_isActive)
                  7002e2ca    0000000a     drivers.am263px.r5f.ti-arm-clang.nortos.release.lib : bootloader_flash.obj (.text.Flash_imgOpen)
                  7002e2d4    0000000a                                                         : ospi_v0.obj (.text.OSPI_dmaInterruptCallback)
                  7002e2de    0000000a                                                         : ospi_v0.obj (.text.OSPI_interruptCallback)
                  7002e2e8    0000000a                                                         : soc_rcm.obj (.text.SOC_rcmSetR5Clock)
                  7002e2f2    0000000a     nortos.am263px.r5f.ti-arm-clang.release.lib : TimerP_rti_priv.obj (.text.TimerP_getReloadCountPriv)
                  7002e2fc    0000000a                                                 : TimerP_rti_priv.obj (.text.TimerP_startPriv)
                  7002e306    0000000a     drivers.am263px.r5f.ti-arm-clang.nortos.release.lib : uart_v0_lld.obj (.text.UART_lld_Transaction_deInit)
                  7002e310    00000008                                                         : bootloader_soc.obj (.text.Bootloader_socGetSBLMem)
                  7002e318    00000008                                                         : bootloader_flash.obj (.text.Flash_imgSeek)
                  7002e320    00000008     libsysbm.a : hostexit.c.obj (.text.HOSTexit)
                  7002e328    00000008     drivers.am263px.r5f.ti-arm-clang.nortos.release.lib : ospi_v0.obj (.text.OSPI_ReadCmdParams_init)
                  7002e330    00000008                                                         : ospi_v0.obj (.text.OSPI_Transaction_init)
                  7002e338    00000008                                                         : ospi_v0.obj (.text.OSPI_WriteCmdParams_init)
                  7002e340    00000008                                                         : ospi_edma_lld.obj (.text.OSPI_edmaItrStatus)
                  7002e348    00000008                                                         : ospi_v0_lld.obj (.text.OSPI_lld_readCompleteCallback)
                  7002e350    00000008     pmic_blackbird.am263px.r5f.ti-arm-clang.nortos.release.lib : pmic_common.obj (.text.Pmic_criticalSectionStart)
                  7002e358    00000008                                                                : pmic_common.obj (.text.Pmic_criticalSectionStop)
                  7002e360    00000008                                                                : pmic_common.obj (.text.Pmic_validParamCheck)
                  7002e368    00000008     nortos.am263px.r5f.ti-arm-clang.release.lib : TimerP_rti_priv.obj (.text.TimerP_clearOverflowIntPriv)
                  7002e370    00000008                                                 : printf.obj (.text._out_char)
                  7002e378    00000008     libc.a : exit.c.obj (.text:abort)
                  7002e380    00000006     drivers.am263px.r5f.ti-arm-clang.nortos.release.lib : edma.obj (.text.EDMA_isInterruptEnabled)
                  7002e386    00000006     security.am263px.r5f.ti-arm-clang.nortos.release.lib : hsmclient.obj (.text.HsmClient_unregister)
                  7002e38c    00000006     drivers.am263px.r5f.ti-arm-clang.nortos.release.lib : ospi_v0_lld.obj (.text.OSPI_lld_isDacEnable)
                  7002e392    00000006                                                         : ospi_v0_lld.obj (.text.OSPI_lld_isPhyEnable)
                  7002e398    00000006                                                         : ospi_v0_lld.obj (.text.OSPI_lld_setCmdExtType)
                  7002e39e    00000006                                                         : ospi_v0_lld.obj (.text.OSPI_lld_setPhyEnableSuccess)
                  7002e3a4    00000006                                                         : soc.obj (.text.SOC_moduleClockEnable)
                  7002e3aa    00000006                                                         : soc_rcm.obj (.text.SOC_rcmGetCR5SysclkInFrequency)
                  7002e3b0    00000004                                                         : bootloader_soc.obj (.text.Bootloader_socCpuRequest)
                  7002e3b4    00000004     nortos.am263px.r5f.ti-arm-clang.release.lib : ClockP_nortos_r5.obj (.text.ClockP_getTimerCount)
                  7002e3b8    00000004                                                 : ClockP_nortos_r5.obj (.text.ClockP_timerClearOverflowInt)
                  7002e3bc    00000004     drivers.am263px.r5f.ti-arm-clang.nortos.release.lib : bootloader_flash.obj (.text.Flash_imgGetCurOffset)
                  7002e3c0    00000004     main.obj (.text.Keyring_init)
                  7002e3c4    00000004     drivers.am263px.r5f.ti-arm-clang.nortos.release.lib : ospi_phy_am26x.obj (.text.OSPI_phyGetTuningData)
                  7002e3c8    00000004     ti_power_clock_config.obj (.text.PowerClock_deinit)
                  7002e3cc    00000004     nortos.am263px.r5f.ti-arm-clang.release.lib : TimerP_rti_nortos.obj (.text.TimerP_Params_init)
                  7002e3d0    00000004                                                 : TimerP_rti_nortos.obj (.text.TimerP_clearOverflowInt)
                  7002e3d4    00000004                                                 : TimerP_rti_nortos.obj (.text.TimerP_getCount)
                  7002e3d8    00000004                                                 : TimerP_rti_nortos.obj (.text.TimerP_getReloadCount)
                  7002e3dc    00000004                                                 : TimerP_rti_nortos.obj (.text.TimerP_setup)
                  7002e3e0    00000004                                                 : TimerP_rti_nortos.obj (.text.TimerP_start)
                  7002e3e4    00000004     libclang_rt.builtins.a : aeabi_div0.c.obj (.text.__aeabi_idiv0)
                  7002e3e8    00000004                            : aeabi_div0.c.obj (.text.__aeabi_ldiv0)
                  7002e3ec    00000004                            : aeabi_memcpy.S.obj (.text.__aeabi_memcpy)
                  7002e3f0    00000004     libc.a : _lock.c.obj (.text._nop)
                  7002e3f4    00000004            : fseek.c.obj (.text.fseek)
                  7002e3f8    00000004     libsysbm.a : remove.c.obj (.text.remove)
                  7002e3fc    00000008     libclang_rt.builtins.a : aeabi_memcpy.S.obj (.tramp.__aeabi_memcpy.1)
                  7002e404    00000008     nortos.am263px.r5f.ti-arm-clang.release.lib : HwiP_armv7r_asm.obj (.tramp.HwiP_enable.1)
                  7002e40c    00000008                                                 : HwiP_armv7r_asm.obj (.tramp.HwiP_restore.1)
                  7002e414    00000008                                                 : PmuP_armv7r_asm.obj (.tramp.PmuP_setUserEnable.1)
                  7002e41c    00000008                                                 : PmuP_armv7r_asm.obj (.tramp.PmuP_enableCounters.1)
                  7002e424    0000001c     --HOLE-- [fill = 0]

.text.hwi 
*          0    7002e440    00000974     
                  7002e440    0000048a     nortos.am263px.r5f.ti-arm-clang.release.lib : HwiP_armv7r_vim.obj (.text.hwi)
                  7002e8ca    000002f4                                                 : HwiP_armv7r_handlers_nortos.obj (.text.hwi)
                  7002ebbe    00000002     --HOLE-- [fill = 0]
                  7002ebc0    0000017c                                                 : HwiP_armv7r_handlers_nortos_asm.obj (.text.hwi)
                  7002ed3c    00000070                                                 : HwiP_armv7r_asm.obj (.text.hwi)
                  7002edac    00000008                                                 : HwiP_armv7r_asm.obj (.tramp.HwiP_enableFIQ.1)

.text.cache 
*          0    7002edb8    00000430     
                  7002edb8    00000340     nortos.am263px.r5f.ti-arm-clang.release.lib : CacheP_armv7r_asm.obj (.text.cache)
                  7002f0f8    000000d8                                                 : CacheP_armv7r.obj (.text.cache)
                  7002f1d0    00000008                                                 : CacheP_armv7r_asm.obj (.tramp.CacheP_invL1d.1)
                  7002f1d8    00000008                                                 : CacheP_armv7r_asm.obj (.tramp.CacheP_enableL1p.1)
                  7002f1e0    00000008                                                 : HwiP_armv7r_asm.obj (.tramp.HwiP_restore.2)

.text.mpu 
*          0    7002f1e8    00000290     
                  7002f1e8    00000202     nortos.am263px.r5f.ti-arm-clang.release.lib : MpuP_armv7r.obj (.text.mpu)
                  7002f3ea    00000002     --HOLE-- [fill = 0]
                  7002f3ec    00000078                                                 : MpuP_armv7r_asm.obj (.text.mpu)
                  7002f464    00000008                                                 : HwiP_armv7r_asm.obj (.tramp.HwiP_restore.3)
                  7002f46c    00000008                                                 : MpuP_armv7r_asm.obj (.tramp.MpuP_isEnableAsm.1)
                  7002f474    00000004     --HOLE-- [fill = 0]

.text.boot 
*          0    7002f478    00000190     
                  7002f478    00000144     nortos.am263px.r5f.ti-arm-clang.release.lib : boot_armv7r_asm.obj (.text.boot)
                  7002f5bc    0000001e                                                 : DebugP_log.obj (.text.boot)
                  7002f5da    0000001c                                                 : boot_armv7r.obj (.text.boot)
                  7002f5f6    0000000e     ti_dpl_config.obj (.text.boot)
                  7002f604    00000004     --HOLE-- [fill = 0]

.data      0    7002f608    00000b40     
                  7002f608    000000f0     libc.a : defs.c.obj (.data._ftable)
                  7002f6f8    000000c8     ti_pinmux_config.obj (.data.gPinMuxMainDomainCfg)
                  7002f7c0    00000098     ti_drivers_config.obj (.data.gOspiAttrs)
                  7002f858    00000088     ti_drivers_config.obj (.data.gEdmaAttrs)
                  7002f8e0    00000084     ti_board_open_close.obj (.data.gFlashDevCfg_IS25LX256)
                  7002f964    00000080     drivers.am263px.r5f.ti-arm-clang.nortos.release.lib : ospi_phy_am26x_lld.obj (.data.gOspiFlashAttackVector)
                  7002f9e4    00000078     libsysbm.a : host_device.c.obj (.data._device)
                  7002fa5c    00000070     drivers.am263px.r5f.ti-arm-clang.nortos.release.lib : bootloader_soc.obj (.data.gAddrTranslateInfo)
                  7002facc    00000064     security.am263px.r5f.ti-arm-clang.nortos.release.lib : sipc_notify_cfg.obj (.data.gSIPC_InterruptConfig)
                  7002fb30    00000058     ti_drivers_open_close.obj (.data.gUartParams)
                  7002fb88    00000050     libsysbm.a : host_device.c.obj (.data._stream)
                  7002fbd8    00000050     security.am263px.r5f.ti-arm-clang.nortos.release.lib : sipc_notify_cfg.obj (.data.gSIPC_HsmMboxConfig)
                  7002fc28    00000050                                                          : sipc_notify_cfg.obj (.data.gSIPC_SecureHostMboxConfig)
                  7002fc78    00000048     drivers.am263px.r5f.ti-arm-clang.nortos.release.lib : bootloader_can.obj (.data.gCANMsgsList)
                  7002fcc0    00000048     ti_power_clock_config.obj (.data.gSocModulesClockFrequency)
                  7002fd08    00000040     ti_drivers_open_close.obj (.data.gConfigMcspi0ChCfg)
                  7002fd48    00000038     ti_board_open_close.obj (.data.gFlashAttrs_IS25LX256)
                  7002fd80    00000030     drivers.am263px.r5f.ti-arm-clang.nortos.release.lib : bootloader_soc.obj (.data.gCoreBootInfo)
                  7002fdb0    00000030     ti_drivers_config.obj (.data.gI2cHwAttrs)
                  7002fde0    0000002c     ti_drivers_config.obj (.data.gBootloaderConfig)
                  7002fe0c    00000024     board.am263px.r5f.ti-arm-clang.nortos.release.lib : flash_nor_ospi.obj (.data.gFlashNorOspiFxns)
                  7002fe30    00000024                                                       : flash_nor_ospi.obj (.data.gFlashToSpiProtocolMap)
                  7002fe54    00000024     ti_drivers_config.obj (.data.gMcspiAttrs)
                  7002fe78    00000020     ti_drivers_config.obj (.data.gMcanBitTimingDefaultParams)
                  7002fe98    00000018     drivers.am263px.r5f.ti-arm-clang.nortos.release.lib : bootloader_flash.obj (.data.gBootloaderFlashFxns)
                  7002feb0    00000018     ti_dpl_config.obj (.data.gClockConfig)
                  7002fec8    00000018     ti_board_open_close.obj (.data.gFlashConfig)
                  7002fee0    00000018     ti_drivers_open_close.obj (.data.gI2cParams)
                  7002fef8    00000018     ti_drivers_config.obj (.data.gOspiDmaRestrictRegions)
                  7002ff10    00000018     ti_power_clock_config.obj (.data.gSocModules)
                  7002ff28    00000014     drivers.am263px.r5f.ti-arm-clang.nortos.release.lib : bootloader_soc.obj (.data..L_MergedGlobals)
                  7002ff3c    00000014                                                         : i2c_v1.obj (.data.gI2cDrvObj)
                  7002ff50    00000014                                                         : mcspi_v0.obj (.data.gMcspiDrvObj)
                  7002ff64    00000014     ti_drivers_open_close.obj (.data.gMcspiOpenParams)
                  7002ff78    00000014     drivers.am263px.r5f.ti-arm-clang.nortos.release.lib : ospi_v0.obj (.data.gOspiDrvObj)
                  7002ff8c    00000014     ti_board_open_close.obj (.data.gPmicParams)
                  7002ffa0    00000014     drivers.am263px.r5f.ti-arm-clang.nortos.release.lib : bootloader_soc.obj (.data.gResMemSection)
                  7002ffb4    00000014                                                         : uart_v0.obj (.data.gUartDrvObj)
                  7002ffc8    00000010     ti_drivers_config.obj (.data.gBootloader0Args)
                  7002ffd8    00000010     board.am263px.r5f.ti-arm-clang.nortos.release.lib : eeprom_cat24m.obj (.data.gEepromFxns_CAT24M)
                  7002ffe8    00000010     ti_drivers_config.obj (.data.gI2cConfig)
                  7002fff8    00000010     drivers.am263px.r5f.ti-arm-clang.nortos.release.lib : ospi_edma_lld.obj (.data.gOspiDmaEdmaFxns)
                  70030008    0000000c     nortos.am263px.r5f.ti-arm-clang.release.lib : AddrTranslateP_32bit.obj (.data.gAddrTranslateConfig)
                  70030014    0000000c     board.am263px.r5f.ti-arm-clang.nortos.release.lib : eeprom_cat24m.obj (.data.gEepromAttrs_CAT24M)
                  70030020    0000000c     ti_board_open_close.obj (.data.gEepromConfig)
                  7003002c    0000000c     ti_drivers_config.obj (.data.gOspiDmaConfig)
                  70030038    0000000c     pmic_blackbird.am263px.r5f.ti-arm-clang.nortos.release.lib : pmic_tps653860xx.obj (.data.gPmicFxns_TPS653860xx)
                  70030044    00000008     drivers.am263px.r5f.ti-arm-clang.nortos.release.lib : bootloader.obj (.data..L_MergedGlobals)
                  7003004c    00000008     libc.a : exit.c.obj (.data..L_MergedGlobals)
                  70030054    00000008     ti_drivers_config.obj (.data.gEdmaConfig)
                  7003005c    00000008     ti_drivers_open_close.obj (.data.gEdmaParams)
                  70030064    00000008     ti_board_open_close.obj (.data.gEepromParams)
                  7003006c    00000008     ti_board_open_close.obj (.data.gFlashParams)
                  70030074    00000008     ti_drivers_config.obj (.data.gMcspiConfig)
                  7003007c    00000008     ti_drivers_config.obj (.data.gOspiConfig)
                  70030084    00000008     ti_board_open_close.obj (.data.gPmicConfig)
                  7003008c    00000008     security.am263px.r5f.ti-arm-clang.nortos.release.lib : sipc_notify_cfg.obj (.data.gSIPC_QueHsmToSecureHost)
                  70030094    00000008                                                          : sipc_notify_cfg.obj (.data.gSIPC_QueSecureHostToHsm)
                  7003009c    00000008     ti_drivers_config.obj (.data.gUartAttrs)
                  700300a4    00000008     ti_drivers_config.obj (.data.gUartConfig)
                  700300ac    00000008     ti_drivers_config.obj (.data.operatingMode)
                  700300b4    00000004     libc.a : defs.c.obj (.data.__TI_ft_end)
                  700300b8    00000008     nortos.am263px.r5f.ti-arm-clang.release.lib : PmuP_armv7r.obj (.data.pmu)
                  700300c0    00000004     libc.a : _lock.c.obj (.data._lock)
                  700300c4    00000004            : _lock.c.obj (.data._unlock)
                  700300c8    00000004     security.am263px.r5f.ti-arm-clang.nortos.release.lib : hsmclient.obj (.data.gBootNotificationReceived)
                  700300cc    00000004     ti_drivers_config.obj (.data.gBootloaderConfigNum)
                  700300d0    00000004     ti_drivers_open_close.obj (.data.gConfigMcspiChCfg)
                  700300d4    00000004     nortos.am263px.r5f.ti-arm-clang.release.lib : DebugP_log.obj (.data.gDebugLogZone)
                  700300d8    00000004                                                 : DebugP_uartLogWriter.obj (.data.gDebugP_uartDrvIndex)
                  700300dc    00000004     ti_drivers_config.obj (.data.gEdmaConfigNum)
                  700300e0    00000004     ti_board_open_close.obj (.data.gEepromConfigNum)
                  700300e4    00000004     ti_board_open_close.obj (.data.gFlashConfigNum)
                  700300e8    00000004     security.am263px.r5f.ti-arm-clang.nortos.release.lib : hsmclient_loadhsmrt.obj (.data.gHsmRtDownloadComplete)
                  700300ec    00000004                                                          : hsmclient.obj (.data.gHsmrtLoadStatus)
                  700300f0    00000004     ti_dpl_config.obj (.data.gHwiConfig)
                  700300f4    00000004     ti_drivers_config.obj (.data.gI2cConfigNum)
                  700300f8    00000004     security.am263px.r5f.ti-arm-clang.nortos.release.lib : hsmclient.obj (.data.gLastEnqueuedIndex)
                  700300fc    00000004                                                          : hsmclient.obj (.data.gLastSentIndex)
                  70030100    00000004     ti_drivers_config.obj (.data.gMcspiConfigNum)
                  70030104    00000004     ti_drivers_open_close.obj (.data.gMcspiDmaChConfig)
                  70030108    00000004     ti_drivers_config.obj (.data.gMcspiNumCh)
                  7003010c    00000004     security.am263px.r5f.ti-arm-clang.nortos.release.lib : hsmclient.obj (.data.gNum_HsmRequestSent)
                  70030110    00000004                                                          : hsmclient.obj (.data.gNum_HsmResponseReceived)
                  70030114    00000004     ti_drivers_config.obj (.data.gOspiConfigNum)
                  70030118    00000004     ti_drivers_config.obj (.data.gOspiDmaConfigNum)
                  7003011c    00000004     ti_drivers_open_close.obj (.data.gOspiParams)
                  70030120    00000004     ti_board_open_close.obj (.data.gPmicConfigNum)
                  70030124    00000004     security.am263px.r5f.ti-arm-clang.nortos.release.lib : hsmclient.obj (.data.gSecureBootStatus)
                  70030128    00000004     drivers.am263px.r5f.ti-arm-clang.nortos.release.lib : bootloader_soc.obj (.data.gStreamId)
                  7003012c    00000004     ti_drivers_config.obj (.data.gUartConfigNum)
                  70030130    00000004     ti_drivers_open_close.obj (.data.gUartDmaChConfig)
                  70030134    00000004     security.am263px.r5f.ti-arm-clang.nortos.release.lib : hsmclient.obj (.data.hsm_client_msg_queue_size)
                  70030138    00000004                                                          : hsmclient_loadhsmrt.obj (.data.ptrMSSCtrlRegs)
                  7003013c    00000004     drivers.am263px.r5f.ti-arm-clang.nortos.release.lib : bootloader_soc.obj (.data.ptrTopCtrlRegs)
                  70030140    00000001                                                         : soc.obj (.data.isMapAvailable)
                  70030141    00000003     --HOLE-- [fill = 0]
                  70030144    00000001     libc.a : memory.c.obj (.data.memory_is_initialized)
                  70030145    00000003     --HOLE-- [fill = 0]

.rodata    0    70030148    000018d0     
                  70030148    00000064     ti_dpl_config.obj (.rodata.cfg)
                  700301ac    00000061     drivers.am263px.r5f.ti-arm-clang.nortos.release.lib : bootloader.obj (.rodata.str1.10218919752055685820.1)
                  7003020d    00000051                                                         : mcspi_v0.obj (.rodata.str1.13637228238812554563.1)
                  7003025e    00000002     --HOLE-- [fill = 0]
                  70030260    00000050     nortos.am263px.r5f.ti-arm-clang.release.lib : printf.obj (.rodata._ftoa.pow10)
                  700302b0    00000048     drivers.am263px.r5f.ti-arm-clang.nortos.release.lib : soc_rcm.obj (.rodata.gADPLLJConfigTbl)
                  700302f8    00000048                                                         : mcspi_v0_lld.obj (.rodata.str1.5453848232394703767.1)
                  70030340    00000046     board.am263px.r5f.ti-arm-clang.nortos.release.lib : flash_nor_ospi.obj (.rodata.str1.13779914010620811852.1)
                  70030386    00000042     drivers.am263px.r5f.ti-arm-clang.nortos.release.lib : soc_rcm.obj (.rodata.str1.6995560061672649380.1)
                  700303c8    00000042                                                         : soc_rcm.obj (.rodata.str1.8407350469959805165.1)
                  7003040a    00000042                                                         : soc_rcm.obj (.rodata.str1.9492239733735185226.1)
                  7003044c    00000041     security.am263px.r5f.ti-arm-clang.nortos.release.lib : hsmclient.obj (.rodata.str1.6860530134828891372.1)
                  7003048d    00000003     main.obj (.rodata.str1.17100691992556644108.1)
                  70030490    00000040     drivers.am263px.r5f.ti-arm-clang.nortos.release.lib : mcan.obj (.rodata.gDataSize)
                  700304d0    00000040                                                         : soc_rcm.obj (.rodata.str1.10455832150672089953.1)
                  70030510    00000040                                                         : bootloader_can.obj (.rodata.str1.7564021324061838394.1)
                  70030550    0000003e                                                         : bootloader_profile.obj (.rodata.str1.12128280208344349982.1)
                  7003058e    0000003e                                                         : bootloader_profile.obj (.rodata.str1.7542300954813231692.1)
                  700305cc    0000003d     nortos.am263px.r5f.ti-arm-clang.release.lib : TimerP_rti_priv.obj (.rodata.str1.11388379688747141303.1)
                  70030609    0000003d     security.am263px.r5f.ti-arm-clang.nortos.release.lib : hsmclient.obj (.rodata.str1.7828111062026553345.1)
                  70030646    0000003c     drivers.am263px.r5f.ti-arm-clang.nortos.release.lib : bootloader_can.obj (.rodata.str1.3077481831105756175.1)
                  70030682    0000003c     security.am263px.r5f.ti-arm-clang.nortos.release.lib : hsmclient.obj (.rodata.str1.9403394270237628570.1)
                  700306be    0000003b     drivers.am263px.r5f.ti-arm-clang.nortos.release.lib : bootloader_profile.obj (.rodata.str1.11641127682323724390.1)
                  700306f9    0000003a     ti_board_open_close.obj (.rodata.str1.13441926531335712275.1)
                  70030733    00000038     drivers.am263px.r5f.ti-arm-clang.nortos.release.lib : bootloader_profile.obj (.rodata.str1.10011185142925992937.1)
                  7003076b    00000038     ti_drivers_open_close.obj (.rodata.str1.871795152488895636.1)
                  700307a3    00000037     ti_board_open_close.obj (.rodata.str1.12245025114167949655.1)
                  700307da    00000037     drivers.am263px.r5f.ti-arm-clang.nortos.release.lib : bootloader_hsmRt_load.obj (.rodata.str1.12375796919973758842.1)
                  70030811    00000036                                                         : bootloader_hsmRt_load.obj (.rodata.str1.14484052729778540281.1)
                  70030847    00000036     ti_drivers_open_close.obj (.rodata.str1.2554706296470369595.1)
                  7003087d    00000036     ti_board_open_close.obj (.rodata.str1.6201324418384543622.1)
                  700308b3    00000035     ti_drivers_open_close.obj (.rodata.str1.10252002122772422448.1)
                  700308e8    00000035     drivers.am263px.r5f.ti-arm-clang.nortos.release.lib : bootloader_profile.obj (.rodata.str1.12783125186691083700.1)
                  7003091d    00000035     ti_drivers_open_close.obj (.rodata.str1.17551203406305493380.1)
                  70030952    00000035     ti_board_open_close.obj (.rodata.str1.5570045560695979883.1)
                  70030987    00000035     ti_drivers_open_close.obj (.rodata.str1.7750254725308216577.1)
                  700309bc    00000033     main.obj (.rodata.str1.15996357275703397564.1)
                  700309ef    00000032     drivers.am263px.r5f.ti-arm-clang.nortos.release.lib : bootloader.obj (.rodata.str1.15526777834658975876.1)
                  70030a21    00000031                                                         : bootloader_profile.obj (.rodata.str1.10898170017834132210.1)
                  70030a52    00000031                                                         : bootloader_profile.obj (.rodata.str1.16122531525948675393.1)
                  70030a83    00000005                                                         : bootloader_profile.obj (.rodata.str1.13129104178328155083.1)
                  70030a88    0000002c                                                         : i2c_v1.obj (.rodata.I2C_defaultTransaction)
                  70030ab4    0000002c     security.am263px.r5f.ti-arm-clang.nortos.release.lib : hsmclient.obj (.rodata.str1.13408186326143254281.1)
                  70030ae0    0000002c     drivers.am263px.r5f.ti-arm-clang.nortos.release.lib : bootloader.obj (.rodata.str1.17709848550151440161.1)
                  70030b0c    0000002c                                                         : bootloader_soc.obj (.rodata.str1.758133230464634327.1)
                  70030b38    0000002a                                                         : bootloader_hsmRt_load.obj (.rodata.str1.15781484254665038843.1)
                  70030b62    0000002a     nortos.am263px.r5f.ti-arm-clang.release.lib : DebugP_log.obj (.rodata.str1.227947788441500939.1)
                  70030b8c    00000028     drivers.am263px.r5f.ti-arm-clang.nortos.release.lib : soc_rcm.obj (.rodata.str1.13550309975525380474.1)
                  70030bb4    00000028                                                         : bootloader_soc.obj (.rodata.str1.13597811311604317403.1)
                  70030bdc    00000027     nortos.am263px.r5f.ti-arm-clang.release.lib : ClockP_nortos_r5.obj (.rodata.str1.12743090444791882666.1)
                  70030c03    00000027     drivers.am263px.r5f.ti-arm-clang.nortos.release.lib : soc_rcm.obj (.rodata.str1.15254166369472350524.1)
                  70030c2a    00000027                                                         : soc_rcm.obj (.rodata.str1.6883917863849351830.1)
                  70030c51    00000024                                                         : edma.obj (.rodata.str1.11535555375892780929.1)
                  70030c75    00000024                                                         : soc_rcm.obj (.rodata.str1.14690907752718593297.1)
                  70030c99    00000024                                                         : bootloader_hsmRt_load.obj (.rodata.str1.15233958391154112668.1)
                  70030cbd    00000023                                                         : soc_rcm.obj (.rodata.str1.2078190104202520215.1)
                  70030ce0    00000023     nortos.am263px.r5f.ti-arm-clang.release.lib : ClockP_nortos_r5.obj (.rodata.str1.7689125538912326484.1)
                  70030d03    00000022     drivers.am263px.r5f.ti-arm-clang.nortos.release.lib : edma.obj (.rodata.str1.12976018205622752890.1)
                  70030d25    00000022     ti_board_config.obj (.rodata.str1.6632415607140922803.1)
                  70030d47    00000021     nortos.am263px.r5f.ti-arm-clang.release.lib : ClockP_nortos_r5.obj (.rodata.str1.8559540482768925367.1)
                  70030d68    00000020     drivers.am263px.r5f.ti-arm-clang.nortos.release.lib : mcan.obj (.rodata.cst32)
                  70030d88    00000020                                                         : ospi_v0_lld.obj (.rodata.cst32)
                  70030da8    00000020                                                         : uart_v0_lld.obj (.rodata.cst32)
                  70030dc8    00000020                                                         : uart_v0.obj (.rodata.str1.16594507886308206351.1)
                  70030de8    00000020                                                         : bootloader_hsmRt_load.obj (.rodata.str1.17514089804878980774.1)
                  70030e08    0000001f     nortos.am263px.r5f.ti-arm-clang.release.lib : ClockP_nortos_r5.obj (.rodata.str1.2746619892315392655.1)
                  70030e27    0000001e     main.obj (.rodata.str1.14112174005742061988.1)
                  70030e45    0000001e     drivers.am263px.r5f.ti-arm-clang.nortos.release.lib : mcspi_v0.obj (.rodata.str1.1841533287856223752.1)
                  70030e63    0000001e     ti_drivers_config.obj (.rodata.str1.7767457247551078139.1)
                  70030e81    0000001d     drivers.am263px.r5f.ti-arm-clang.nortos.release.lib : bootloader_soc.obj (.rodata.str1.12326270906577760919.1)
                  70030e9e    0000001d                                                         : mcspi_v0.obj (.rodata.str1.13184844972093393431.1)
                  70030ebb    0000001d     nortos.am263px.r5f.ti-arm-clang.release.lib : TimerP_rti_priv.obj (.rodata.str1.1727973701797049581.1)
                  70030ed8    0000001d                                                 : TimerP_rti_priv.obj (.rodata.str1.4425773406285945039.1)
                  70030ef5    0000001d     drivers.am263px.r5f.ti-arm-clang.nortos.release.lib : uart_v0.obj (.rodata.str1.4697665093340446018.1)
                  70030f12    0000001d                                                         : bootloader.obj (.rodata.str1.5963387784432681875.1)
                  70030f2f    0000001d     board.obj (.rodata.str1.6418571003999367838.1)
                  70030f4c    0000001d     nortos.am263px.r5f.ti-arm-clang.release.lib : TimerP_rti_priv.obj (.rodata.str1.7297095892955669843.1)
                  70030f69    0000001d     drivers.am263px.r5f.ti-arm-clang.nortos.release.lib : ospi_v0.obj (.rodata.str1.9709051275431913386.1)
                  70030f86    0000001c     ti_board_config.obj (.rodata.str1.1163043902305149133.1)
                  70030fa2    0000001c     drivers.am263px.r5f.ti-arm-clang.nortos.release.lib : bootloader_can.obj (.rodata.str1.13532410931443344374.1)
                  70030fbe    0000001b                                                         : bootloader_soc.obj (.rodata.str1.12772591696291441472.1)
                  70030fd9    0000001b     main.obj (.rodata.str1.14402440632258215044.1)
                  70030ff4    0000001b     drivers.am263px.r5f.ti-arm-clang.nortos.release.lib : edma.obj (.rodata.str1.16672221102796607080.1)
                  7003100f    0000001b                                                         : soc_rcm.obj (.rodata.str1.3692981583693152116.1)
                  7003102a    0000001b                                                         : bootloader_can.obj (.rodata.str1.7819334394367145010.1)
                  70031045    0000001a     board.obj (.rodata.str1.10345935079445805060.1)
                  7003105f    0000001a     drivers.am263px.r5f.ti-arm-clang.nortos.release.lib : mcspi_v0.obj (.rodata.str1.12161566603203981081.1)
                  70031079    0000001a     main.obj (.rodata.str1.12180500075719773345.1)
                  70031093    0000001a     drivers.am263px.r5f.ti-arm-clang.nortos.release.lib : bootloader_can.obj (.rodata.str1.15512110733839908029.1)
                  700310ad    0000001a                                                         : soc_rcm.obj (.rodata.str1.16907879152045164286.1)
                  700310c7    0000001a     ti_board_config.obj (.rodata.str1.16921083087495105931.1)
                  700310e1    0000001a     drivers.am263px.r5f.ti-arm-clang.nortos.release.lib : i2c_v1.obj (.rodata.str1.2708024660006642838.1)
                  700310fb    0000001a     nortos.am263px.r5f.ti-arm-clang.release.lib : ClockP_nortos_r5.obj (.rodata.str1.3810757863367538396.1)
                  70031115    0000001a     drivers.am263px.r5f.ti-arm-clang.nortos.release.lib : mcspi_v0.obj (.rodata.str1.5019587606014509524.1)
                  7003112f    0000001a                                                         : bootloader_hsmRt_load.obj (.rodata.str1.6398333492730878928.1)
                  70031149    0000001a                                                         : bootloader_soc.obj (.rodata.str1.6530055611811043708.1)
                  70031163    0000001a     board.obj (.rodata.str1.6840234256597642108.1)
                  7003117d    0000001a     drivers.am263px.r5f.ti-arm-clang.nortos.release.lib : edma.obj (.rodata.str1.7525109154754115535.1)
                  70031197    00000019     nortos.am263px.r5f.ti-arm-clang.release.lib : TimerP_rti_priv.obj (.rodata.str1.5494506574634759136.1)
                  700311b0    00000019     board.obj (.rodata.str1.8970757384589524176.1)
                  700311c9    00000003     drivers.am263px.r5f.ti-arm-clang.nortos.release.lib : bootloader_profile.obj (.rodata.str1.8473622371870992188.1)
                  700311cc    00000018                                                         : bootloader_profile.obj (.rodata..Lswitch.table.Bootloader_profilePrintProfileLog)
                  700311e4    00000004     nortos.am263px.r5f.ti-arm-clang.release.lib : CacheP_armv7r.obj (.rodata.gCacheL1dCacheLineSize)
                  700311e8    00000018     drivers.am263px.r5f.ti-arm-clang.nortos.release.lib : i2c_v1_lld.obj (.rodata.I2C_lld_defaultMessage)
                  70031200    00000018                                                         : soc.obj (.rodata.SOC_getCoreName.coreIdNames)
                  70031218    00000018                                                         : soc_rcm.obj (.rodata.gControlssPllClkSrcValMap)
                  70031230    00000018                                                         : soc_rcm.obj (.rodata.gCptsClkSrcValMap)
                  70031248    00000018                                                         : soc_rcm.obj (.rodata.gI2cClkSrcValMap)
                  70031260    00000018                                                         : soc_rcm.obj (.rodata.gLinUartClkSrcValMap)
                  70031278    00000018                                                         : soc_rcm.obj (.rodata.gPeripheralClkSrcInfoMap)
                  70031290    00000018                                                         : soc_rcm.obj (.rodata.gRtiClkSrcValMap)
                  700312a8    00000018                                                         : soc_rcm.obj (.rodata.gWdtClkSrcValMap)
                  700312c0    00000018                                                         : i2c_v1.obj (.rodata.str1.16369086400766814308.1)
                  700312d8    00000018                                                         : uart_v0.obj (.rodata.str1.16507871919775359273.1)
                  700312f0    00000018                                                         : soc_rcm.obj (.rodata.str1.17101430071927342085.1)
                  70031308    00000018     ti_drivers_config.obj (.rodata.str1.2211846465855763212.1)
                  70031320    00000018     drivers.am263px.r5f.ti-arm-clang.nortos.release.lib : soc_rcm.obj (.rodata.str1.2233712739639673237.1)
                  70031338    00000018                                                         : soc_rcm.obj (.rodata.str1.2918502748189006786.1)
                  70031350    00000018                                                         : soc_rcm.obj (.rodata.str1.3545355937057541302.1)
                  70031368    00000018                                                         : i2c_v1.obj (.rodata.str1.4713777613235169076.1)
                  70031380    00000018     pmic_blackbird.am263px.r5f.ti-arm-clang.nortos.release.lib : pmic_tps653860xx.obj (.rodata.str1.633290407297827321.1)
                  70031398    00000018     drivers.am263px.r5f.ti-arm-clang.nortos.release.lib : i2c_v1.obj (.rodata.str1.706085228479171695.1)
                  700313b0    00000017                                                         : soc_rcm.obj (.rodata.str1.10238261936043285561.1)
                  700313c7    00000017                                                         : soc_rcm.obj (.rodata.str1.1263028196474875090.1)
                  700313de    00000017                                                         : soc_rcm.obj (.rodata.str1.14566101093493230310.1)
                  700313f5    00000017     pmic_blackbird.am263px.r5f.ti-arm-clang.nortos.release.lib : pmic_tps653860xx.obj (.rodata.str1.2693899554360131077.1)
                  7003140c    00000016     drivers.am263px.r5f.ti-arm-clang.nortos.release.lib : mcspi_v0.obj (.rodata.str1.11140052025086693978.1)
                  70031422    00000016                                                         : ospi_v0.obj (.rodata.str1.11859302641611729341.1)
                  70031438    00000016                                                         : bootloader.obj (.rodata.str1.14376141685787114521.1)
                  7003144e    00000016     board.obj (.rodata.str1.15710912057274121847.1)
                  70031464    00000016     drivers.am263px.r5f.ti-arm-clang.nortos.release.lib : soc_rcm.obj (.rodata.str1.15837709475095375462.1)
                  7003147a    00000016                                                         : soc_rcm.obj (.rodata.str1.18101715471844446405.1)
                  70031490    00000016                                                         : soc_rcm.obj (.rodata.str1.503491203257075565.1)
                  700314a6    00000016                                                         : soc_rcm.obj (.rodata.str1.7023207857097194628.1)
                  700314bc    00000015                                                         : bootloader_profile.obj (.rodata.str1.11504950858693018614.1)
                  700314d1    00000015                                                         : soc_rcm.obj (.rodata.str1.14531647829147925505.1)
                  700314e6    00000015                                                         : soc_rcm.obj (.rodata.str1.2452496540137352989.1)
                  700314fb    00000015                                                         : edma.obj (.rodata.str1.9771253703579349310.1)
                  70031510    00000014                                                         : mcspi_v0.obj (.rodata.str1.10872092307011739400.1)
                  70031524    00000014                                                         : edma.obj (.rodata.str1.14977302951450442404.1)
                  70031538    00000014                                                         : edma.obj (.rodata.str1.16586217098785273673.1)
                  7003154c    00000014                                                         : edma.obj (.rodata.str1.6479261940699871955.1)
                  70031560    00000014                                                         : mcspi_v0_lld.obj (.rodata.str1.6706625791092911981.1)
                  70031574    00000013                                                         : soc_rcm.obj (.rodata.str1.1513614241493853460.1)
                  70031587    00000013                                                         : uart_v0.obj (.rodata.str1.8511823138002593779.1)
                  7003159a    00000013     pmic_blackbird.am263px.r5f.ti-arm-clang.nortos.release.lib : pmic_tps653860xx.obj (.rodata.str1.8595199043427889562.1)
                  700315ad    00000012     drivers.am263px.r5f.ti-arm-clang.nortos.release.lib : uart_v0.obj (.rodata.str1.10085477686273322470.1)
                  700315bf    00000012                                                         : soc_rcm.obj (.rodata.str1.13766728229239614249.1)
                  700315d1    00000012                                                         : ospi_v0.obj (.rodata.str1.18098494674240039306.1)
                  700315e3    00000012                                                         : uart_v0.obj (.rodata.str1.1906408950570946892.1)
                  700315f5    00000012     ti_board_config.obj (.rodata.str1.2665699780754298233.1)
                  70031607    00000012     main.obj (.rodata.str1.288608917962107522.1)
                  70031619    00000012     drivers.am263px.r5f.ti-arm-clang.nortos.release.lib : bootloader.obj (.rodata.str1.4238517662877779100.1)
                  7003162b    00000012     board.am263px.r5f.ti-arm-clang.nortos.release.lib : flash_nor_ospi.obj (.rodata.str1.4376659186122576720.1)
                  7003163d    00000012     drivers.am263px.r5f.ti-arm-clang.nortos.release.lib : soc_rcm.obj (.rodata.str1.6089483996110695684.1)
                  7003164f    00000012     ti_drivers_open_close.obj (.rodata.str1.6538372684047993024.1)
                  70031661    00000012     drivers.am263px.r5f.ti-arm-clang.nortos.release.lib : edma.obj (.rodata.str1.8988798825313313125.1)
                  70031673    00000011     ti_drivers_open_close.obj (.rodata.str1.12213835641041270557.1)
                  70031684    00000011     drivers.am263px.r5f.ti-arm-clang.nortos.release.lib : edma.obj (.rodata.str1.13359792024450833872.1)
                  70031695    00000011     ti_drivers_open_close.obj (.rodata.str1.17021506947730909760.1)
                  700316a6    00000011     drivers.am263px.r5f.ti-arm-clang.nortos.release.lib : uart_v0.obj (.rodata.str1.18277465892467933209.1)
                  700316b7    00000011     ti_board_open_close.obj (.rodata.str1.2235680336123228840.1)
                  700316c8    00000011     ti_drivers_open_close.obj (.rodata.str1.6292539624901818759.1)
                  700316d9    00000011     ti_drivers_config.obj (.rodata.str1.6903391077677833475.1)
                  700316ea    00000011     drivers.am263px.r5f.ti-arm-clang.nortos.release.lib : edma.obj (.rodata.str1.7198617623142260305.1)
                  700316fb    00000011     nortos.am263px.r5f.ti-arm-clang.release.lib : TimerP_rti_priv.obj (.rodata.str1.7786169893402823657.1)
                  7003170c    00000010     drivers.am263px.r5f.ti-arm-clang.nortos.release.lib : ospi_v0_lld.obj (.rodata.cst16)
                  7003171c    00000004     nortos.am263px.r5f.ti-arm-clang.release.lib : CacheP_armv7r.obj (.rodata.gCacheL1pCacheLineSize)
                  70031720    00000010     pmic_blackbird.am263px.r5f.ti-arm-clang.nortos.release.lib : pmic_tps653860xx.obj (.rodata.cst16)
                  70031730    00000010     drivers.am263px.r5f.ti-arm-clang.nortos.release.lib : i2c_v1.obj (.rodata.str1.15304174031418066064.1)
                  70031740    00000010                                                         : edma.obj (.rodata.str1.16687974986316968853.1)
                  70031750    00000010     ti_board_open_close.obj (.rodata.str1.1844215614325442070.1)
                  70031760    00000010     drivers.am263px.r5f.ti-arm-clang.nortos.release.lib : mcspi_v0.obj (.rodata.str1.5372258234123321127.1)
                  70031770    00000010     ti_drivers_open_close.obj (.rodata.str1.6437641722977580707.1)
                  70031780    0000000f     drivers.am263px.r5f.ti-arm-clang.nortos.release.lib : i2c_v1.obj (.rodata.str1.11436736645546584573.1)
                  7003178f    0000000f                                                         : edma.obj (.rodata.str1.12381575634899622488.1)
                  7003179e    0000000f                                                         : edma.obj (.rodata.str1.15707078201242323249.1)
                  700317ad    0000000f                                                         : mcspi_v0.obj (.rodata.str1.17063110384778934197.1)
                  700317bc    0000000f     ti_board_open_close.obj (.rodata.str1.1917411163332026764.1)
                  700317cb    0000000f     drivers.am263px.r5f.ti-arm-clang.nortos.release.lib : edma.obj (.rodata.str1.2781376525681532154.1)
                  700317da    0000000f                                                         : edma.obj (.rodata.str1.4907917467944964367.1)
                  700317e9    0000000e                                                         : edma.obj (.rodata.str1.1669868279207928169.1)
                  700317f7    0000000e                                                         : edma.obj (.rodata.str1.6128441279204879358.1)
                  70031805    0000000e                                                         : edma.obj (.rodata.str1.6928588723460450634.1)
                  70031813    0000000e                                                         : bootloader_profile.obj (.rodata.str1.815047616517892051.1)
                  70031821    0000000d                                                         : edma.obj (.rodata.str1.14657363906792235350.1)
                  7003182e    0000000d     nortos.am263px.r5f.ti-arm-clang.release.lib : TimerP_rti_priv.obj (.rodata.str1.15140844044942405278.1)
                  7003183b    0000000d     main.obj (.rodata.str1.8154729771448623357.1)
                  70031848    0000000c     drivers.am263px.r5f.ti-arm-clang.nortos.release.lib : mcspi_v0_lld.obj (.rodata..Lswitch.table.MCSPI_lld_controllerIsr.1)
                  70031854    0000000c                                                         : mcspi_v0_lld.obj (.rodata..Lswitch.table.MCSPI_lld_controllerIsr)
                  70031860    0000000c     pmic_blackbird.am263px.r5f.ti-arm-clang.nortos.release.lib : pmic.obj (.rodata..Lswitch.table.Pmic_checkPmicCoreHandle)
                  7003186c    0000000c     drivers.am263px.r5f.ti-arm-clang.nortos.release.lib : soc_rcm.obj (.rodata.gPLLFreqId2FOutMap)
                  70031878    0000000c                                                         : mcspi_v0.obj (.rodata.str1.10664749495804935615.1)
                  70031884    0000000c     nortos.am263px.r5f.ti-arm-clang.release.lib : ClockP_nortos_r5.obj (.rodata.str1.13463193513887205357.1)
                  70031890    0000000c     drivers.am263px.r5f.ti-arm-clang.nortos.release.lib : ospi_v0.obj (.rodata.str1.1381366092953500863.1)
                  7003189c    0000000c     main.obj (.rodata.str1.15159059442110792349.1)
                  700318a8    0000000c     main.obj (.rodata.str1.18227636981041470289.1)
                  700318b4    0000000c     drivers.am263px.r5f.ti-arm-clang.nortos.release.lib : edma.obj (.rodata.str1.8587431144907355806.1)
                  700318c0    0000000b                                                         : bootloader_soc.obj (.rodata..L__const.Bootloader_socGetBootSeqOid.boot_seq)
                  700318cb    0000000b                                                         : uart_v0.obj (.rodata.str1.1151567497034493012.1)
                  700318d6    0000000b                                                         : mcspi_v0.obj (.rodata.str1.4167172371347076586.1)
                  700318e1    0000000b                                                         : mcspi_v0.obj (.rodata.str1.4368654234941580754.1)
                  700318ec    0000000b                                                         : edma.obj (.rodata.str1.597652134494230196.1)
                  700318f7    0000000b                                                         : uart_v0.obj (.rodata.str1.6746041542798830823.1)
                  70031902    0000000b     board.obj (.rodata.str1.9453984286452795027.1)
                  7003190d    0000000a     drivers.am263px.r5f.ti-arm-clang.nortos.release.lib : edma.obj (.rodata.str1.1531866724018994888.1)
                  70031917    0000000a                                                         : edma.obj (.rodata.str1.15529668034699970473.1)
                  70031921    0000000a                                                         : ospi_v0.obj (.rodata.str1.2522741049104592306.1)
                  7003192b    0000000a     main.obj (.rodata.str1.2846389346932560359.1)
                  70031935    0000000a     drivers.am263px.r5f.ti-arm-clang.nortos.release.lib : i2c_v1.obj (.rodata.str1.3288561361854740495.1)
                  7003193f    0000000a                                                         : soc_rcm.obj (.rodata.str1.3349473071634452315.1)
                  70031949    0000000a                                                         : bootloader_profile.obj (.rodata.str1.5589998758638195867.1)
                  70031953    0000000a                                                         : ospi_v0.obj (.rodata.str1.6252689431402132518.1)
                  7003195d    0000000a     ti_board_open_close.obj (.rodata.str1.760704006985994805.1)
                  70031967    0000000a     drivers.am263px.r5f.ti-arm-clang.nortos.release.lib : bootloader_profile.obj (.rodata.str1.7850315960985325470.1)
                  70031971    0000000a                                                         : uart_v0.obj (.rodata.str1.7892831408302009747.1)
                  7003197b    0000000a                                                         : uart_v0.obj (.rodata.str1.8477608605346433529.1)
                  70031985    00000009                                                         : i2c_v1.obj (.rodata.str1.6120977755438783109.1)
                  7003198e    00000009     main.obj (.rodata.str1.7702501944640899365.1)
                  70031997    00000008     drivers.am263px.r5f.ti-arm-clang.nortos.release.lib : bootloader_profile.obj (.rodata.str1.12702259841437340804.1)
                  7003199f    00000008                                                         : bootloader_profile.obj (.rodata.str1.14812433315294294563.1)
                  700319a7    00000008                                                         : soc.obj (.rodata.str1.14910504016491482532.1)
                  700319af    00000008     main.obj (.rodata.str1.16265332423659789559.1)
                  700319b7    00000007     drivers.am263px.r5f.ti-arm-clang.nortos.release.lib : soc.obj (.rodata.str1.12179086363571468349.1)
                  700319be    00000007                                                         : soc.obj (.rodata.str1.12254199422641571827.1)
                  700319c5    00000007                                                         : soc.obj (.rodata.str1.15593236263752157262.1)
                  700319cc    00000007                                                         : soc.obj (.rodata.str1.17262473269405332311.1)
                  700319d3    00000007                                                         : soc.obj (.rodata.str1.17795343983633703126.1)
                  700319da    00000006     pmic_blackbird.am263px.r5f.ti-arm-clang.nortos.release.lib : pmic.obj (.rodata.pmicSubSysInfo)
                  700319e0    00000006                                                                : pmic_tps653860xx.obj (.rodata.str1.12121747634317397141.1)
                  700319e6    00000006     drivers.am263px.r5f.ti-arm-clang.nortos.release.lib : soc_rcm.obj (.rodata.str1.12246138248821672736.1)
                  700319ec    00000006                                                         : bootloader_can.obj (.rodata.str1.1479592885919460657.1)
                  700319f2    00000005                                                         : bootloader_profile.obj (.rodata.str1.2835458291861791747.1)
                  700319f7    00000005                                                         : bootloader_profile.obj (.rodata.str1.5214204957232506372.1)
                  700319fc    00000005     main.obj (.rodata.str1.8309300403304547201.1)
                  70031a01    00000005     nortos.am263px.r5f.ti-arm-clang.release.lib : printf.obj (.rodata.str1.8544352122861784523.1)
                  70031a06    00000005                                                 : printf.obj (.rodata.str1.8812429412984920041.1)
                  70031a0b    00000004                                                 : printf.obj (.rodata.str1.13278797451342649413.1)
                  70031a0f    00000004                                                 : printf.obj (.rodata.str1.17155598869870286803.1)
                  70031a13    00000005     --HOLE-- [fill = 0]

.stack     0    70031a18    00002000     UNINITIALIZED
                  70031a18    00000004     nortos.am263px.r5f.ti-arm-clang.release.lib : boot_armv7r_asm.obj (.stack)
                  70031a1c    00001ffc     --HOLE--

.sysmem    0    70033a18    00002000     UNINITIALIZED
                  70033a18    00000010     libc.a : memory.c.obj (.sysmem)
                  70033a28    00001ff0     --HOLE--

.irqstack 
*          0    70035a18    00001000     UNINITIALIZED
                  70035a18    00001000     --HOLE--

.fiqstack 
*          0    70036a18    00000100     UNINITIALIZED
                  70036a18    00000100     --HOLE--

.svcstack 
*          0    70036b18    00000100     UNINITIALIZED
                  70036b18    00000100     --HOLE--

.abortstack 
*          0    70036c18    00000100     UNINITIALIZED
                  70036c18    00000100     --HOLE--

.undefinedstack 
*          0    70036d18    00000100     UNINITIALIZED
                  70036d18    00000100     --HOLE--

.rodata.hsmrt 
*          0    70050000    0000a6e4     
                  70050000    0000a6e4     main.obj (.rodata.hsmrt)

.bss.filebuf 
*          0    70090000    00170000     NOLOAD SECTION
                  70090000    00170000     main.obj (.bss.filebuf)

__llvm_prf_cnts 
*          0    70002100    00000000     UNINITIALIZED

__llvm_prf_bits 
*          0    70002100    00000000     UNINITIALIZED

MODULE SUMMARY

       Module                                code    ro data   rw data
       ------                                ----    -------   -------
    obj/release/
       main.obj                              944     42948     1540100
       ti_drivers_config.obj                 244     71        5952   
       ti_board_open_close.obj               394     278       616    
       ti_drivers_open_close.obj             616     354       244    
       board.obj                             340     139       36     
       ti_board_config.obj                   342     106       0      
       ti_power_clock_config.obj             180     0         96     
       ti_dpl_config.obj                     98      100       28     
       ti_pinmux_config.obj                  14      0         200    
       ti_clocktree_pll_config.obj           88      0         0      
    +--+-------------------------------------+-------+---------+---------+
       Total:                                3260    43996     1547272
                                                                      
    /home/epswbld5/ti/ccs2030/ccs/tools/compiler/ti-cgt-armllvm_4.0.3.LTS/lib/armv7r-ti-none-eabihf/c/libc.a
       memory.c.obj                          1232    0         5      
       strcmp32.S.obj                        924     0         0      
       defs.c.obj                            0       0         404    
       setvbuf.c.obj                         324     0         0      
       getdevice.c.obj                       284     0         0      
       fputc.c.obj                           256     0         0      
       fseek.c.obj                           184     0         0      
       fclose.c.obj                          176     0         0      
       _io_perm.c.obj                        156     0         0      
       fflush.c.obj                          136     0         0      
       exit.c.obj                            92      0         8      
       fopen.c.obj                           88      0         0      
       autoinit.c.obj                        84      0         0      
       memcpy32.S.obj                        28      0         0      
       memset32.S.obj                        24      0         0      
       _lock.c.obj                           4       0         8      
    +--+-------------------------------------+-------+---------+---------+
       Total:                                3992    0         425    
                                                                      
    /home/epswbld5/ti/ccs2030/ccs/tools/compiler/ti-cgt-armllvm_4.0.3.LTS/lib/armv7r-ti-none-eabihf/c/libsysbm.a
       trgmsg.c.obj                          176     0         288    
       hostrename.c.obj                      216     0         0      
       host_device.c.obj                     0       0         200    
       hostopen.c.obj                        148     0         8      
       hostlseek.c.obj                       152     0         0      
       close.c.obj                           140     0         0      
       hostread.c.obj                        132     0         0      
       hostwrite.c.obj                       132     0         0      
       hostunlink.c.obj                      108     0         0      
       hostclose.c.obj                       96      0         0      
       unlink.c.obj                          72      0         0      
       lseek.c.obj                           52      0         0      
       write.c.obj                           52      0         0      
       hostexit.c.obj                        8       0         0      
       remove.c.obj                          4       0         0      
    +--+-------------------------------------+-------+---------+---------+
       Total:                                1488    0         496    
                                                                      
    /home/epswbld5/ti/ccs2030/ccs/tools/compiler/ti-cgt-armllvm_4.0.3.LTS/lib/armv7r-ti-none-eabihf/libclang_rt.builtins.a
       udivsi3.S.obj                         464     0         0      
       udivmoddi4.S.obj                      280     0         0      
       aeabi_uldivmod.S.obj                  36      0         0      
       aeabi_memset.S.obj                    28      0         0      
       aeabi_memcpy.S.obj                    12      0         0      
       aeabi_div0.c.obj                      8       0         0      
    +--+-------------------------------------+-------+---------+---------+
       Total:                                828     0         0      
                                                                      
    /nightlybuilds/mcupsdk_internal/jenkins/mcu_plus_sdk_am263px_11_00_00_19/source/board/lib/board.am263px.r5f.ti-arm-clang.nortos.release.lib
       flash_nor_ospi.obj                    4598    88        72     
       flash.obj                             536     0         0      
       ioexp_tca6416.obj                     482     0         0      
       ioexp_tca6424.obj                     480     0         0      
       eeprom_cat24m.obj                     442     0         28     
       eeprom.obj                            102     0         0      
    +--+-------------------------------------+-------+---------+---------+
       Total:                                6640    88        100    
                                                                      
    /nightlybuilds/mcupsdk_internal/jenkins/mcu_plus_sdk_am263px_11_00_00_19/source/board/pmic/lib/pmic_blackbird.am263px.r5f.ti-arm-clang.nortos.release.lib
       pmic_tps653860xx.obj                  840     88        36     
       pmic_power.obj                        844     0         0      
       pmic.obj                              358     18        0      
       pmic_io.obj                           164     0         0      
       pmic_core.obj                         92      0         0      
       pmic_lld.obj                          88      0         0      
       pmic_common.obj                       24      0         0      
    +--+-------------------------------------+-------+---------+---------+
       Total:                                2410    106       36     
                                                                      
    /nightlybuilds/mcupsdk_internal/jenkins/mcu_plus_sdk_am263px_11_00_00_19/source/drivers/lib/drivers.am263px.r5f.ti-arm-clang.nortos.release.lib
       bootloader.obj                        2464    260       63112  
       soc_rcm.obj                           4692    1122      0      
       edma.obj                              5198    430       0      
       mcspi_v0_lld.obj                      4572    116       0      
       ospi_v0_lld.obj                       3438    48        0      
       i2c_v1_lld.obj                        3304    24        0      
       uart_v0_lld.obj                       2768    32        0      
       mcan.obj                              2656    96        0      
       ospi_phy_am26x_lld.obj                2466    0         128    
       mcspi_dma_edma.obj                    2006    0         0      
       uart_v0.obj                           1752    199       20     
       mcspi_v0.obj                          1638    299       20     
       bootloader_can.obj                    1368    211       280    
       i2c_v1.obj                            1536    192       20     
       ospi_v0.obj                           1474    101       20     
       uart_dma_edma.obj                     1340    0         0      
       bootloader_profile.obj                444     503       280    
       bootloader_soc.obj                    774     177       208    
       soc.obj                               970     67        17     
       ospi_edma_lld.obj                     1018    0         16     
       bootloader_uniflash_common.obj        702     0         0      
       bootloader_hsmRt_load.obj             160     245       0      
       bootloader_uniflash.obj               332     0         0      
       bootloader_uniflash_mcelf.obj         270     0         0      
       bootloader_uniflash_rprc.obj          240     0         0      
       bootloader_flash.obj                  132     0         24     
       ospi_lld_dma.obj                      140     0         0      
       pinmux.obj                            64      0         0      
       ospi_phy_am26x.obj                    32      0         0      
    +--+-------------------------------------+-------+---------+---------+
       Total:                                47950   4122      64145  
                                                                      
    /nightlybuilds/mcupsdk_internal/jenkins/mcu_plus_sdk_am263px_11_00_00_19/source/kernel/nortos/lib/nortos.am263px.r5f.ti-arm-clang.release.lib
       printf.obj                            4052    98        0      
       HwiP_armv7r_vim.obj                   1162    0         2064   
       CacheP_armv7r_asm.obj                 848     0         0      
       HwiP_armv7r_handlers_nortos.obj       756     0         0      
       ClockP_nortos.obj                     614     0         32     
       TimerP_rti_priv.obj                   404     203       0      
       MpuP_armv7r.obj                       514     0         0      
       ClockP_nortos_r5.obj                  268     176       0      
       HwiP_armv7r_handlers_nortos_asm.obj   380     0         0      
       boot_armv7r_asm.obj                   324     0         0      
       SemaphoreP_nortos.obj                 256     0         0      
       CacheP_armv7r.obj                     216     8         0      
       DebugP_log.obj                        154     42        4      
       HwiP_armv7r_asm.obj                   152     0         0      
       HwiP_armv7r_vectors_nortos_asm.obj    128     0         0      
       MpuP_armv7r_asm.obj                   128     0         0      
       PmuP_armv7r.obj                       102     0         8      
       AddrTranslateP_32bit.obj              82      0         12     
       DebugP_uartLogWriter.obj              70      0         4      
       PmuP_armv7r_asm.obj                   72      0         0      
       DebugP_nortos.obj                     56      0         0      
       boot_armv7r.obj                       28      0         0      
       CpuId_armv7r.obj                      26      0         0      
       TimerP_rti_nortos.obj                 24      0         0      
       CpuId_armv7r_asm.obj                  12      0         0      
       TaskP_nortos.obj                      2       0         0      
    +--+-------------------------------------+-------+---------+---------+
       Total:                                10830   527       2124   
                                                                      
    /nightlybuilds/mcupsdk_internal/jenkins/mcu_plus_sdk_am263px_11_00_00_19/source/middleware/lib/middleware.am263px.r5f.ti-arm-clang.nortos.release.lib
       tielfup32.obj                         240     0         0      
    +--+-------------------------------------+-------+---------+---------+
       Total:                                240     0         0      
                                                                      
    /nightlybuilds/mcupsdk_internal/jenkins/mcu_plus_sdk_am263px_11_00_00_19/source/security/lib/security.am263px.r5f.ti-arm-clang.nortos.release.lib
       hsmclient.obj                         1374    230       32     
       sipc_notify_src.obj                   1306    0         68     
       hsmclient_loadhsmrt.obj               380     0         8      
       sipc_notify_cfg.obj                   48      0         276    
       hsmclient_wait_for_boot_notify.obj    54      0         0      
    +--+-------------------------------------+-------+---------+---------+
       Total:                                3162    230       384    
                                                                      
       Heap:                                 0       0         8192   
       Stack:                                0       0         8192   
    +--+-------------------------------------+-------+---------+---------+
       Grand Total:                          80800   49069     1631366

VENEERS

callee name               veneer name
   callee addr  veneer addr  call addr  call info
--------------  -----------  ---------  ----------------
__aeabi_memcpy            $Ven$TA$L$PI$$__aeabi_memcpy
   7002e3ec     7002e3fc     7002e140   drivers.am263px.r5f.ti-arm-clang.nortos.release.lib : bootloader_soc.obj (.text.Bootloader_socGetBootSeqOid)
                             7002e17c                                                       : i2c_v1.obj (.text.I2C_Transaction_init)
HwiP_enable               $Ven$TA$L$PI$$HwiP_enable
   7002ed5c     7002e404     7002c040   ti_dpl_config.obj (.text.Dpl_init)
HwiP_restore              $Ven$TA$L$PI$$HwiP_restore
   7002ed7c     7002e40c     7002c000   nortos.am263px.r5f.ti-arm-clang.release.lib : ClockP_nortos.obj (.text.ClockP_stop)
                             7002c366                                               : ClockP_nortos.obj (.text.ClockP_destruct)
                             7002c808                                               : SemaphoreP_nortos.obj (.text.SemaphoreP_post)
                             7002c872                                               : ClockP_nortos.obj (.text.ClockP_start)
PmuP_setUserEnable        $Ven$TA$L$PI$$PmuP_setUserEnable
   7002c764     7002e414     7002a4fc   nortos.am263px.r5f.ti-arm-clang.release.lib : PmuP_armv7r.obj (.text.pmu)
PmuP_enableCounters       $Ven$TA$L$PI$$PmuP_enableCounters
   7002c744     7002e41c     7002a4ca   nortos.am263px.r5f.ti-arm-clang.release.lib : PmuP_armv7r.obj (.text.pmu)
HwiP_enableFIQ            $Ven$TA$L$PI$$HwiP_enableFIQ
   7002ed6c     7002edac     7002e824   nortos.am263px.r5f.ti-arm-clang.release.lib : HwiP_armv7r_vim.obj (.text.hwi)
CacheP_invL1d             $Ven$TA$L$PI$$CacheP_invL1d
   7002ee28     7002f1d0     7002f1cc   nortos.am263px.r5f.ti-arm-clang.release.lib : CacheP_armv7r.obj (.text.cache)
CacheP_enableL1p          $Ven$TA$L$PI$$CacheP_enableL1p
   7002ee10     7002f1d8     7002f1a6   nortos.am263px.r5f.ti-arm-clang.release.lib : CacheP_armv7r.obj (.text.cache)
HwiP_restore              $Ven$TA$L$PI$$HwiP_restore
   7002ed7c     7002f1e0     7002f186   nortos.am263px.r5f.ti-arm-clang.release.lib : CacheP_armv7r.obj (.text.cache)
HwiP_restore              $Ven$TA$L$PI$$HwiP_restore
   7002ed7c     7002f464     7002f2e0   nortos.am263px.r5f.ti-arm-clang.release.lib : MpuP_armv7r.obj (.text.mpu)
                             7002f31e                                               : MpuP_armv7r.obj (.text.mpu)
MpuP_isEnableAsm          $Ven$TA$L$PI$$MpuP_isEnableAsm
   7002f43c     7002f46c     7002f2b0   nortos.am263px.r5f.ti-arm-clang.release.lib : MpuP_armv7r.obj (.text.mpu)

[11 trampolines]
[16 trampoline calls]


GLOBAL SYMBOLS: SORTED ALPHABETICALLY BY Name 

address   name                                        
-------   ----                                        
7002b355  AddrTranslateP_getLocalAddr                 
7002dbdd  Board_driversOpen                           
7002da2d  Board_eepromClose                           
7002ad93  Board_eepromOpen                            
70029e3b  Board_flashOpen                             
70029b01  Board_pmicOpen                              
7002cbe5  Bootloader_BootImageInfo_init               
7002552d  Bootloader_CANInit                          
7001e181  Bootloader_CANReceiveFile                   
70029a09  Bootloader_CANTransmitResp                  
7002e119  Bootloader_Params_init                      
7002e001  Bootloader_Uniflash_MCELF_flashVerifyXIPFile
7002e00f  Bootloader_Uniflash_MCELF_flashXIPFile      
7002de9f  Bootloader_Uniflash_RPRC_flashVerifyXIPFile 
7002e299  Bootloader_Uniflash_RPRC_flashXIPFile       
7002cc15  Bootloader_authFinish                       
7002c53d  Bootloader_authStart                        
7002c575  Bootloader_authUpdate                       
7002deaf  Bootloader_close                            
7002bec5  Bootloader_findSeq                          
70028621  Bootloader_getMsgLen                        
7002e2ad  Bootloader_getMulticoreImageSize            
7002c80f  Bootloader_getX509CertLen                   
7002d111  Bootloader_initCpu                          
7002debf  Bootloader_isCorePresent                    
7002bf05  Bootloader_open                             
7001c85d  Bootloader_parseAndLoadMultiCoreELF         
7002aded  Bootloader_parseNoteSegment                 
7002da45  Bootloader_profileAddCore                   
7002d21d  Bootloader_profileAddProfilePoint           
70023be1  Bootloader_profilePrintProfileLog           
7002ce21  Bootloader_profileReset                     
7002e125  Bootloader_profileUpdateAppimageSize        
7002e131  Bootloader_profileUpdateMediaAndClk         
7002ae45  Bootloader_runCpu                           
7002d505  Bootloader_runSelfCpu                       
7002ae9d  Bootloader_socConfigurePll                  
7002da5d  Bootloader_socCpuGetClkDefault              
7002b805  Bootloader_socCpuGetClock                   
7002875d  Bootloader_socCpuPowerOnReset               
70023bdd  Bootloader_socCpuRelease                    
7002e3b1  Bootloader_socCpuRequest                    
7002dd11  Bootloader_socCpuResetRelease               
7002e01d  Bootloader_socCpuResetReleaseSelf           
7002dbf3  Bootloader_socCpuSetClock                   
7002e13d  Bootloader_socGetBootSeqOid                 
7002d7f5  Bootloader_socGetCoreName                   
7002e311  Bootloader_socGetSBLMem                     
7002e02b  Bootloader_socInitL2MailBoxMemory           
7002dd25  Bootloader_socIsAuthRequired                
70028121  Bootloader_socLoadHsmRtFw                   
7002bf45  Bootloader_socMemInitCpu                    
7002ab11  Bootloader_socSetAutoClock                  
7002c5ad  Bootloader_socTranslateSectionAddr          
70027b4d  Bootloader_uniflashFlashErase               
7002772b  Bootloader_uniflashFlashFile                
700293fd  Bootloader_uniflashFlashFileSector          
7002b3a7  Bootloader_uniflashFlashPhyTuningData       
70029031  Bootloader_uniflashFlashVerifyFile          
7002342d  Bootloader_uniflashProcessFlashCommands     
7002e320  C$$EXIT                                     
7002b048  C$$IO$$                                     
7002d929  CSL_armR5GetCpuID                           
7002e28c  CSL_armR5ReadMpidrReg                       
7002f0c8  CacheP_configForceWrThru                    
7002f151  CacheP_disable                              
7002edb8  CacheP_disableL1d                           
7002ede0  CacheP_disableL1p                           
7002f18b  CacheP_enable                               
7002edf8  CacheP_enableL1d                            
7002ee10  CacheP_enableL1p                            
7002f0bc  CacheP_getCacheLevelInfo                    
7002f084  CacheP_getEnabled                           
7002f0f9  CacheP_init                                 
7002f1ab  CacheP_inv                                  
7002ee28  CacheP_invL1d                               
7002ee9c  CacheP_invL1dAll                            
7002ee60  CacheP_invL1p                               
7002eea4  CacheP_invL1pAll                            
7002f0e8  CacheP_setDLFO                              
7002eeac  CacheP_wb                                   
7002ef24  CacheP_wbAll                                
7002eee8  CacheP_wbInv                                
7002efcc  CacheP_wbInvAll                             
7002efe4  CacheP_wbInvAllAsm                          
7002e2b7  ClockP_Params_init                          
7002cfa7  ClockP_construct                            
7002c331  ClockP_destruct                             
7002e149  ClockP_getTicks                             
7002b055  ClockP_getTimeUsec                          
7002e3b5  ClockP_getTimerCount                        
70025123  ClockP_init                                 
7002e2c1  ClockP_isActive                             
7002c843  ClockP_start                                
7002bfc5  ClockP_stop                                 
7002e3b9  ClockP_timerClearOverflowInt                
7002a9f5  ClockP_timerTickIsr                         
7002dd39  ClockP_usecToTicks                          
7002cae9  ClockP_usleep                               
7002a4fb  CycleCounterP_enableUserAccess              
7002c734  CycleCounterP_getCount32                    
7002a49b  CycleCounterP_init                          
7002a4cf  CycleCounterP_nsToTicks                     
7002a4ab  CycleCounterP_reset                         
7002d525  DebugP_logZoneEnable                        
7002c36b  DebugP_uartLogWriterPutChar                 
7002e155  DebugP_uartSetDrvIndex                      
7001c85b  Dpl_deinit                                  
7002c005  Dpl_init                                    
7002960d  Drivers_close                               
7002b6cb  Drivers_edmaOpen                            
70029a85  Drivers_i2cOpen                             
7002da75  Drivers_mcspiClose                          
7002b719  Drivers_mcspiOpen                           
7002d6e5  Drivers_open                                
7002b851  Drivers_ospiOpen                            
7002d943  Drivers_pmicOpen                            
7002b767  Drivers_uartOpen                            
7002b49d  EDMA_allocDmaChannel                        
7002b4ed  EDMA_allocParam                             
7002b53d  EDMA_allocTcc                               
7002e039  EDMA_ccPaRAMEntry_init                      
7002d545  EDMA_chainChannel                           
7002968d  EDMA_close                                  
7002d241  EDMA_clrIntrRegion                          
7002c76d  EDMA_clrMissEvtRegion                       
70028c2f  EDMA_configureChannelRegion                 
7002302d  EDMA_deinit                                 
7002b7b5  EDMA_disableChInShadowRegRegion             
7002d265  EDMA_disableEvtIntrRegion                   
7002a06b  EDMA_disableTransferRegion                  
7002cdc5  EDMA_enableChInShadowRegRegion              
7002a0d9  EDMA_enableTransferRegion                   
70020cd5  EDMA_freeChannelRegion                      
700281c1  EDMA_freeDmaChannel                         
70028261  EDMA_freeParam                              
70028301  EDMA_freeTcc                                
7002c241  EDMA_getBaseAddr                            
7002ce4d  EDMA_getHandle                              
7002dd4d  EDMA_getRegionId                            
7001fb31  EDMA_init                                   
7002e161  EDMA_isInitialized                          
7002e381  EDMA_isInterruptEnabled                     
7002d415  EDMA_linkChannel                            
7002c045  EDMA_mapChToEvtQ                            
70022ec9  EDMA_open                                   
7002d95d  EDMA_readEventStatusRegion                  
7002d289  EDMA_readIntrStatusRegion                   
7002738d  EDMA_registerIntr                           
7002d137  EDMA_setPaRAM                               
7002cb1b  EDMA_unmapChToEvtQ                          
700264dd  EDMA_unregisterIntr                         
7002d437  EEPROM_CAT24M_close                         
7002c877  EEPROM_CAT24M_open                          
70029ce5  EEPROM_CAT24M_read                          
70025b01  EEPROM_CAT24M_write                         
7002e047  EEPROM_close                                
7002c3a5  EEPROM_open                                 
7002d703  EEPROM_read                                 
7002d977  ELFUP_init                                  
70026405  ELFUP_update                                
7002e055  Flash_close                                 
7002ddd9  Flash_disableDacMode                        
7002ddeb  Flash_enableDacMode                         
7002ddfd  Flash_eraseBlk                              
7002dd61  Flash_eraseSector                           
7002d2ad  Flash_getAttrs                              
7002d2d1  Flash_getHandle                             
7002e063  Flash_getPhyTuningOffset                    
7002a1b5  Flash_offsetToBlkPage                       
70029eab  Flash_offsetToSectorPage                    
7002c3df  Flash_open                                  
7002be41  Flash_quirkSpansionUNHYSADisable            
7002cf29  Flash_read                                  
7002cf53  Flash_write                                 
7002ecfc  GET_ADFSR                                   
7002ed14  GET_AIFSR                                   
7002ed04  GET_DFAR                                    
7002ecf4  GET_DFSR                                    
7002ed1c  GET_IFAR                                    
7002ed0c  GET_IFSR                                    
7002ed24  GET_SPSR                                    
7002a6f4  HOSTclose                                   
7002e320  HOSTexit                                    
70028b00  HOSTlseek                                   
70028cc4  HOSTopen                                    
70029480  HOSTread                                    
700283a0  HOSTrename                                  
7002a220  HOSTunlink                                  
70029504  HOSTwrite                                   
7002e16d  HsmClient_SecureBootQueueInit               
7002b3f9  HsmClient_checkAndWaitForBootNotification   
70028931  HsmClient_config                            
7002d2f5  HsmClient_init                              
70028b99  HsmClient_isr                               
700228dd  HsmClient_procAuthBootFinish                
70027449  HsmClient_procAuthBootStart                 
7002988d  HsmClient_procAuthBootUpdate                
7002a691  HsmClient_register                          
7002e387  HsmClient_unregister                        
7002c7a3  HsmClient_waitForBootNotify                 
700241f7  Hsmclient_loadHSMRtFirmware                 
7002de0f  Hsmclient_updateBootNotificationRegister    
7002e539  HwiP_Params_init                            
7002e4f1  HwiP_clearInt                               
7002e54b  HwiP_construct                              
7002ec34  HwiP_data_abort_handler                     
7002eb2f  HwiP_data_abort_handler_c                   
7002e68f  HwiP_destruct                               
7002ed3c  HwiP_disable                                
7002ed4c  HwiP_disableFIQ                             
7002e469  HwiP_disableInt                             
7002ed94  HwiP_disableVIC                             
7002ed5c  HwiP_enable                                 
7002ed6c  HwiP_enableFIQ                              
7002e441  HwiP_enableInt                              
7002ed84  HwiP_enableVIC                              
7002e967  HwiP_fiq_handler                            
7002eda4  HwiP_getCPSR                                
7002e829  HwiP_inISR                                  
7002e761  HwiP_init                                   
7002ebc0  HwiP_irq_handler                            
7002e8cb  HwiP_irq_handler_c                          
7002e511  HwiP_post                                   
7002ec78  HwiP_prefetch_abort_handler                 
7002eaa5  HwiP_prefetch_abort_handler_c               
7002ea17  HwiP_reserved_handler                       
7002ed7c  HwiP_restore                                
7002e49b  HwiP_restoreInt                             
7002e8b3  HwiP_restoreVimIrqPriMask                   
7002e867  HwiP_setVimIrqPriMaskAtomic                 
7002e845  HwiP_setVimIrqPriMaskNonAtomic              
7002ea77  HwiP_svc_handler                            
7002ecc4  HwiP_undefined_handler                      
7002ea45  HwiP_undefined_handler_c                    
7002ebaf  HwiP_user_data_abort_handler_c              
7002eb1f  HwiP_user_prefetch_abort_handler_c          
7002ea63  HwiP_user_undefined_handler_c               
7002e179  I2C_Transaction_init                        
70028441  I2C_close                                   
70030a88  I2C_defaultTransaction                      
7002daa5  I2C_deinit                                  
7002ce79  I2C_getHandle                               
7002c8ad  I2C_init                                    
7002d585  I2C_lld_Message_init                        
7002dc09  I2C_lld_Transaction_init                    
70021d81  I2C_lld_controllerIsr                       
7002cdf3  I2C_lld_deInit                              
700311e8  I2C_lld_defaultMessage                      
70028d59  I2C_lld_init                                
70026fd1  I2C_lld_mem_read                            
70027e91  I2C_lld_mem_readIntr                        
70026bfd  I2C_lld_mem_write                           
70027f35  I2C_lld_mem_writeIntr                       
70021bcd  I2C_lld_targetIsr                           
7002d15d  I2C_lld_transferIntr                        
7002d183  I2C_lld_transferPoll                        
700208bd  I2C_open                                    
70022a63  I2C_transfer                                
7002e3c1  Keyring_init                                
7002bd31  MCAN_addExtMsgIDFilter                      
70027bf5  MCAN_calcMsgRamParamsStartAddr              
700265ad  MCAN_config                                 
7002c5e5  MCAN_getErrCounters                         
7002d5a5  MCAN_getOpMode                              
7002a755  MCAN_getProtocolStatus                      
7002b58d  MCAN_getRxFIFOStatus                        
7002d811  MCAN_getTxBufTransmissionStatus             
70026251  MCAN_init                                   
7002d319  MCAN_initGlobalFilterConfigParams           
7002cb4d  MCAN_initMsgRamConfigParams                 
7002cb7f  MCAN_initOperModeParams                     
7002cff9  MCAN_initSetBitTimeParams                   
7002c61d  MCAN_initTxBufElement                       
7002d5c5  MCAN_isMemInitDone                          
70021495  MCAN_msgRAMConfig                           
70024795  MCAN_readMsgRam                             
70026d85  MCAN_setBitTime                             
7002b5dd  MCAN_setExtIDAndMask                        
7002d33d  MCAN_setOpMode                              
7002cc75  MCAN_txBufAddReq                            
7002608d  MCAN_writeMsgRam                            
7002ab6d  MCAN_writeRxFIFOAck                         
7002532d  MCSPI_close                                 
7002dabd  MCSPI_deinit                                
7002cbb1  MCSPI_errorCallback                         
7002cea5  MCSPI_getHandle                             
70029bf5  MCSPI_init                                  
70029b7b  MCSPI_initiateLastChunkTransfer             
700210c9  MCSPI_lld_controllerIsr                     
7002d865  MCSPI_lld_deInit                            
7002b44b  MCSPI_lld_deInitDma                         
70021a0d  MCSPI_lld_dmaChInit                         
70023579  MCSPI_lld_dmaDeInit                         
7002dad5  MCSPI_lld_dmaInit                           
70029f1b  MCSPI_lld_dmaStop                           
70020699  MCSPI_lld_dmaTransfer                       
70026e49  MCSPI_lld_init                              
70025a0d  MCSPI_lld_initDma                           
700290bd  MCSPI_lld_peripheralIsr                     
70023f91  MCSPI_lld_readWrite                         
70025ec1  MCSPI_lld_readWriteDma                      
7002455f  MCSPI_lld_readWriteIntr                     
7001f899  MCSPI_open                                  
7002dc1f  MCSPI_reset                                 
7002aa53  MCSPI_setChDataSize                         
70029dc9  MCSPI_stop                                  
70022425  MCSPI_transfer                              
7002b935  MCSPI_transferCallback                      
7002c8e1  Module_clockDisable                         
7002c915  Module_clockEnable                          
7002c453  Module_clockSetFrequency                    
7002f229  MpuP_RegionAttrs_init                       
7002f2b5  MpuP_disable                                
7002f3ec  MpuP_disableAsm                             
7002f404  MpuP_disableBRAsm                           
7002f2e7  MpuP_enable                                 
7002f414  MpuP_enableAsm                              
7002f42c  MpuP_enableBRAsm                            
7002f1e9  MpuP_getAttrs                               
7002f323  MpuP_init                                   
7002f2b1  MpuP_isEnable                               
7002f43c  MpuP_isEnableAsm                            
7002f385  MpuP_isUserAuthorizedToAccessMemory         
7002f237  MpuP_setRegion                              
7002f450  MpuP_setRegionAsm                           
7002d9ab  OSPI_EdmaParams_init                        
7002e329  OSPI_ReadCmdParams_init                     
7002e331  OSPI_Transaction_init                       
7002e339  OSPI_WriteCmdParams_init                    
7002e185  OSPI_clearDualOpCodeMode                    
7002b9cd  OSPI_close                                  
7002deef  OSPI_configBaudrate                         
7002daed  OSPI_deinit                                 
7002deff  OSPI_disableDacMode                         
7002df0f  OSPI_disablePhy                             
7002db05  OSPI_dmaClose                               
7002d049  OSPI_dmaCopy                                
7002c949  OSPI_dmaOpen                                
700212b1  OSPI_edmaCopy                               
70029261  OSPI_edmaDeInit                             
7002318d  OSPI_edmaInit                               
7002e341  OSPI_edmaItrStatus                          
7002df1f  OSPI_enableDacMode                          
7002e191  OSPI_enableModeBitsCmd                      
7002e19d  OSPI_enableModeBitsRead                     
7002df2f  OSPI_enablePhy                              
7002df3f  OSPI_enablePhyPipeline                      
7002df4f  OSPI_enableSDR                              
7002df5f  OSPI_getBaudRateDivFromObj                  
7002d071  OSPI_getHandle                              
7002e07f  OSPI_getInputClk                            
70029c6d  OSPI_init                                   
7002e08d  OSPI_isDacEnable                            
7002db1d  OSPI_isDmaInterruptEnabled                  
7002e09b  OSPI_isPhyEnable                            
7002dc4b  OSPI_lld_Transaction_init                   
7002e0a9  OSPI_lld_clearDualOpCodeMode                
7002d47b  OSPI_lld_configBaudrate                     
7002ba19  OSPI_lld_deInit                             
7002bab1  OSPI_lld_deInitDma                          
7002d881  OSPI_lld_disableDacMode                     
7002c97d  OSPI_lld_disablePhy                         
7002dc61  OSPI_lld_disablePhyPipeline                 
7002d385  OSPI_lld_enableDacMode                      
7002de33  OSPI_lld_enableModeBitsCmd                  
7002e0b7  OSPI_lld_enableModeBitsRead                 
7002be83  OSPI_lld_enablePhy                          
7002dc77  OSPI_lld_enablePhyPipeline                  
7002dc8d  OSPI_lld_enableSDR                          
7002e1a9  OSPI_lld_getFlashDataBaseAddr               
7002e1b5  OSPI_lld_getInputClk                        
70029149  OSPI_lld_init                               
70027fd9  OSPI_lld_initDma                            
7002e38d  OSPI_lld_isDacEnable                        
7002e393  OSPI_lld_isPhyEnable                        
70024bed  OSPI_lld_isr                                
7002a7b5  OSPI_lld_phyBasicConfig                     
7001c171  OSPI_lld_phyFindOTP1                        
7002bbd1  OSPI_lld_phyFindRxHigh                      
7002bc17  OSPI_lld_phyFindRxLow                       
7002baf9  OSPI_lld_phyFindTxHigh                      
7002bc5d  OSPI_lld_phyFindTxLow                       
7002df71  OSPI_lld_phyGetTuningData                   
7002c085  OSPI_lld_phyReadAttackVector                
7002a28d  OSPI_lld_phyResyncDLL                       
7002bca3  OSPI_lld_phySetRdDelayTxRxDLL               
7002c27d  OSPI_lld_phyTuneDDR                         
7002d721  OSPI_lld_readBaudRateDivFromReg             
70025725  OSPI_lld_readCmd                            
7002d605  OSPI_lld_readCmdParams_init                 
7002e349  OSPI_lld_readCompleteCallback               
7002c9b1  OSPI_lld_readDirect                         
7002581d  OSPI_lld_readDirectDma                      
7002dd75  OSPI_lld_setCmdDummyCycles                  
7002e399  OSPI_lld_setCmdExtType                      
7002d49d  OSPI_lld_setDeviceSize                      
7002e0c5  OSPI_lld_setModeBits                        
7002d89d  OSPI_lld_setNumAddrBytes                    
7002e39f  OSPI_lld_setPhyEnableSuccess                
70025dd5  OSPI_lld_setProtocol                        
7002d9df  OSPI_lld_setRdDataCaptureDelay              
7002df81  OSPI_lld_setReadDummyCycles                 
7002dca3  OSPI_lld_setResetPinStatus                  
7002ad39  OSPI_lld_setXferOpCodes                     
70026171  OSPI_lld_writeCmd                           
7002d625  OSPI_lld_writeCmdParams_init                
70025915  OSPI_lld_writeIndirect                      
70020239  OSPI_open                                   
7002e3c5  OSPI_phyGetTuningData                       
7002e0d3  OSPI_phyReadAttackVector                    
7002e0e1  OSPI_phyTuneDDR                             
7002d645  OSPI_readCmd                                
7002978d  OSPI_readDirect                             
7002e1c1  OSPI_setCmdDummyCycles                      
7002e1cd  OSPI_setCmdExtType                          
7002e1d9  OSPI_setDeviceSize                          
7002e1e5  OSPI_setModeBits                            
7002e1f1  OSPI_setNumAddrBytes                        
7002e1fd  OSPI_setPhyEnableSuccess                    
7002e209  OSPI_setProtocol                            
7002df91  OSPI_setRdDataCaptureDelay                  
7002e215  OSPI_setReadDummyCycles                     
7002dfa1  OSPI_setResetPinStatus                      
7002e221  OSPI_setXferOpCodes                         
7002d665  OSPI_writeCmd                               
7002bd75  OSPI_writeIndirect                          
7002e0ef  PMIC_close                                  
7002de45  PMIC_configure                              
7002dfb1  PMIC_criticalSectionStartFn                 
7002e22d  PMIC_criticalSectionStopFn                  
70027d45  PMIC_mcspiReadRegister                      
70028a65  PMIC_mcspiWriteRegister                     
7002c655  PMIC_open                                   
7002b0ab  PMIC_regRead                                
7002b101  PMIC_regWrite                               
7002d099  PMIC_tps653860xxClose                       
70029f8b  PMIC_tps653860xxConfigure                   
70027c9d  PMIC_tps653860xxOpen                        
7002c0c5  Pinmux_config                               
7002e0fd  Pinmux_init                                 
7002c68d  Pmic_checkPmicCoreHandle                    
7002e351  Pmic_criticalSectionStart                   
7002e359  Pmic_criticalSectionStop                    
7002d4e1  Pmic_deinit                                 
70024e09  Pmic_init                                   
7002c9e5  Pmic_ioRxByte                               
70029ffb  Pmic_ioTxByte                               
7001ec57  Pmic_pwrSetLdoCfg                           
7002ac25  Pmic_setRegLockState                        
7002e361  Pmic_validParamCheck                        
7002c75c  PmuP_clearOverflowStatus                    
7002c74c  PmuP_disableCounters                        
7002c744  PmuP_enableCounters                         
7002c754  PmuP_getOverflowStatus                      
7002c764  PmuP_setUserEnable                          
7002c73c  PmuP_setup                                  
7002e3c9  PowerClock_deinit                           
7002e10b  PowerClock_init                             
7002d9f9  SIPC_Params_init                            
7002ccd5  SIPC_Register_Isr                           
7002e239  SIPC_getSelfCoreId                          
7002046d  SIPC_init                                   
70022d61  SIPC_isr                                    
7002c201  SIPC_registerClient                         
7002542d  SIPC_sendMsg                                
7002d1a9  SIPC_unregisterClient                       
7002ac81  SOC_controlModuleLockMMR                    
7002a501  SOC_controlModuleUnlockMMR                  
7002db35  SOC_getCoreName                             
7002e245  SOC_getSelfCpuClk                           
7002e3a5  SOC_moduleClockEnable                       
7002d0c1  SOC_moduleSetClockFrequency                 
70022be5  SOC_phyToVirt                               
700249c5  SOC_rcmCoreApllConfig                       
70023811  SOC_rcmCoreApllHSDivConfig                  
7002cd05  SOC_rcmCoreApllRelockPreRequisite           
7002ba65  SOC_rcmCoreR5FUnhalt                        
7001d471  SOC_rcmEnablePeripheralClock                
70024ad9  SOC_rcmGetPeripheralClockFrequency          
7002ced1  SOC_rcmGetR5Clock                           
7002d8b9  SOC_rcmIsR5FInLockStepMode                  
7002a815  SOC_rcmMemInitL2Memory                      
7002db4d  SOC_rcmMemInitMailboxMemory                 
70021841  SOC_rcmPerApllConfig                        
7002a875  SOC_rcmR5ConfigDualCore                     
7002c2b9  SOC_rcmR5ConfigLockStep                     
7002db65  SOC_rcmR5SS0PowerOnReset                    
7002dd89  SOC_rcmR5SS0TriggerReset                    
7002db7d  SOC_rcmR5SS1PowerOnReset                    
7002dfc1  SOC_rcmR5SS1TriggerReset                    
7001fdad  SOC_rcmSetPeripheralClock                   
7002e2e9  SOC_rcmSetR5Clock                           
7002e251  SOC_rcmSetR5ClockSource                     
7002a565  SOC_rcmStartMemInitTCMA                     
7002a5c9  SOC_rcmStartMemInitTCMB                     
7002a8d5  SOC_rcmWaitMemInitTCMA                      
7002a935  SOC_rcmWaitMemInitTCMB                      
700287f9  SOC_rcmsetR5SysClock                        
70023d1d  SOC_virtToPhy                               
7002dcb9  SemaphoreP_constructBinary                  
7002dd9d  SemaphoreP_constructMutex                   
7001f2e7  SemaphoreP_destruct                         
700286bf  SemaphoreP_pend                             
7002c7d9  SemaphoreP_post                             
7002cd35  System_deinit                               
7002cf7d  System_init                                 
7002aef5  TCA6416_Flash_reset                         
7002e25d  TCA6416_Params_init                         
7002d77b  TCA6416_close                               
70027151  TCA6416_config                              
7002c48d  TCA6416_open                                
70027091  TCA6416_setOutput                           
7002aab1  TCA6424_Flash_reset                         
70025fa7  TCA6424_Mcan_Transceiver                    
7002e269  TCA6424_Params_init                         
7002d799  TCA6424_close                               
7002720f  TCA6424_config                              
7002c4c7  TCA6424_open                                
700272cd  TCA6424_setOutput                           
7002d90c  TI_memcpy_small                             
7002dbc4  TI_memset_small                             
70020697  TaskP_yield                                 
7002e3cd  TimerP_Params_init                          
7002d685  TimerP_Params_initPriv                      
7002e3d1  TimerP_clearOverflowInt                     
7002e369  TimerP_clearOverflowIntPriv                 
7002e3d5  TimerP_getCount                             
7002db95  TimerP_getCountPriv                         
7002e3d9  TimerP_getReloadCount                       
7002e2f3  TimerP_getReloadCountPriv                   
7002e3dd  TimerP_setup                                
70023a9d  TimerP_setupPriv                            
7002e3e1  TimerP_start                                
7002e2fd  TimerP_startPriv                            
7002dccf  UART_IsTxRxFifoEmpty                        
7002bdb9  UART_Params_init                            
7002ddb1  UART_Transaction_init                       
7002dce5  UART_checkCharsAvailInFifo                  
70023e59  UART_close                                  
7002dbad  UART_deinit                                 
7002980d  UART_flushTxFifo                            
7002d6a5  UART_getChar                                
7002cefd  UART_getHandle                              
7002dcfb  UART_getIntrIdentityStatus                  
700292ed  UART_init                                   
7002dfd1  UART_intr2Disable                           
7002b157  UART_intrDisable                            
7002e307  UART_lld_Transaction_deInit                 
700236c5  UART_lld_controllerIsr                      
7002c105  UART_lld_deInit                             
7002bdfd  UART_lld_deInitDma                          
700232dd  UART_lld_dmaDeInit                          
7002d1cf  UART_lld_dmaDisableChannel                  
700225b9  UART_lld_dmaInit                            
700284e1  UART_lld_dmaRead                            
70025229  UART_lld_dmaWrite                           
7002c501  UART_lld_flushTxFifo                        
70026f0d  UART_lld_init                               
7002674d  UART_lld_initDma                            
70024cfb  UART_lld_write                              
7002a2f9  UART_lld_writeDma                           
7002a3cd  UART_lld_writeIntr                          
7001f5f9  UART_open                                   
7002de69  UART_operatingModeSelect                    
7002a62d  UART_procLineStatusErr                      
7002de7b  UART_readLineStatus                         
7002d7b7  UART_spaceAvail                             
70025629  UART_write                                  
7002b1ad  UART_writeCancelNoCB                        
7001b428  _CIOBUF_                                    
7002acdd  _DebugP_assert                              
7002f5bd  _DebugP_assertNoLog                         
7002c6fd  _DebugP_logZone                             
70036d18  __ABORT_STACK_END                           
00000100  __ABORT_STACK_SIZE                          
70036c18  __ABORT_STACK_START                         
7001ba80  __BSS_END                                   
70002100  __BSS_START                                 
7001b428  __CIOBUF_                                   
70036b18  __FIQ_STACK_END                             
00000100  __FIQ_STACK_SIZE                            
70036a18  __FIQ_STACK_START                           
70036a18  __IRQ_STACK_END                             
00001000  __IRQ_STACK_SIZE                            
70035a18  __IRQ_STACK_START                           
70033a18  __STACK_END                                 
00002000  __STACK_SIZE                                
70036c18  __SVC_STACK_END                             
00000100  __SVC_STACK_SIZE                            
70036b18  __SVC_STACK_START                           
00002000  __SYSMEM_SIZE                               
00000000  __TI_ATRegion0_region_sz                    
00000000  __TI_ATRegion0_src_addr                     
00000000  __TI_ATRegion0_trg_addr                     
00000000  __TI_ATRegion1_region_sz                    
00000000  __TI_ATRegion1_src_addr                     
00000000  __TI_ATRegion1_trg_addr                     
00000000  __TI_ATRegion2_region_sz                    
00000000  __TI_ATRegion2_src_addr                     
00000000  __TI_ATRegion2_trg_addr                     
UNDEFED   __TI_CINIT_Base                             
UNDEFED   __TI_CINIT_Limit                            
UNDEFED   __TI_Handler_Table_Base                     
UNDEFED   __TI_Handler_Table_Limit                    
7002b300  __TI_auto_init_nobinit_nopinit              
7002af4c  __TI_cleanup                                
7003004c  __TI_cleanup_ptr                            
70027894  __TI_closefile                              
70029374  __TI_doflush                                
70030050  __TI_dtors_ptr                              
700300b4  __TI_ft_end                                 
ffffffff  __TI_pprof_out_hndl                         
ffffffff  __TI_prof_data_size                         
ffffffff  __TI_prof_data_start                        
7002afa4  __TI_readmsg                                
00000000  __TI_static_base__                          
7001b710  __TI_tmpnams                                
7002affc  __TI_writemsg                               
70028894  __TI_wrt_ok                                 
70036e18  __UNDEFINED_STACK_END                       
00000100  __UNDEFINED_STACK_SIZE                      
70036d18  __UNDEFINED_STACK_START                     
7002e3e4  __aeabi_idiv0                               
7002e3e8  __aeabi_ldiv0                               
7002e274  __aeabi_memclr                              
7002e274  __aeabi_memclr4                             
7002e274  __aeabi_memclr8                             
7002e3ec  __aeabi_memcpy                              
7002e3ec  __aeabi_memcpy4                             
7002e3ec  __aeabi_memcpy8                             
7002dfe0  __aeabi_memset                              
7002dfe0  __aeabi_memset4                             
7002dfe0  __aeabi_memset8                             
70021670  __aeabi_uidiv                               
7002d3cc  __aeabi_uldivmod                            
ffffffff  __binit__                                   
7002f5f7  __mpu_init                                  
70031a18  __stack                                     
70002100  __start___llvm_prf_bits                     
70002100  __start___llvm_prf_cnts                     
70002100  __stop___llvm_prf_bits                      
70002100  __stop___llvm_prf_cnts                      
700248ac  __udivmoddi4                                
70021670  __udivsi3                                   
7002f49c  _c_int00                                    
7002f478  _c_int00_sbl                                
7002f9e4  _device                                     
7002f608  _ftable                                     
700300c0  _lock                                       
7002e3f0  _nop                                        
7002fb88  _stream                                     
70033a18  _sys_memory                                 
UNDEFED   _system_post_cinit                          
7002f5db  _system_pre_init                            
700300c4  _unlock                                     
00000000  _vectors                                    
7002e378  abort                                       
70022280  aligned_alloc                               
ffffffff  binit                                       
70028581  board_flash_reset                           
7002a994  calloc                                      
700291d4  close                                       
7002b258  exit                                        
7002b2ac  finddevice                                  
7002d1f5  flashFixUpOspiBoot                          
70025ce4  fputc                                       
700220d8  free                                        
7002e3f4  fseek                                       
700277e0  fseeko                                      
700302b0  gADPLLJConfigTbl                            
70030008  gAddrTranslateConfig                        
7002fa5c  gAddrTranslateInfo                          
7002ffc8  gBootloader0Args                            
7002fde0  gBootloaderConfig                           
700300cc  gBootloaderConfigNum                        
7002fe98  gBootloaderFlashFxns                        
7002fc78  gCANMsgsList                                
70030148  gCacheConfig                                
700311e4  gCacheL1dCacheLineSize                      
7003171c  gCacheL1pCacheLineSize                      
7002feb0  gClockConfig                                
7001b9d8  gClockCtrl                                  
7002fd08  gConfigMcspi0ChCfg                          
700300d0  gConfigMcspiChCfg                           
7002fd80  gCoreBootInfo                               
700300d4  gDebugLogZone                               
700300d8  gDebugP_uartDrvIndex                        
70030054  gEdmaConfig                                 
700300dc  gEdmaConfigNum                              
7001ba20  gEdmaHandle                                 
7003005c  gEdmaParams                                 
70030014  gEepromAttrs_CAT24M                         
70030020  gEepromConfig                               
700300e0  gEepromConfigNum                            
7002ffd8  gEepromFxns_CAT24M                          
7001ba24  gEepromHandle                               
7001b304  gEepromObject_CAT24M                        
70030064  gEepromParams                               
7001b800  gElfHBuffer                                 
7002fd48  gFlashAttrs_IS25LX256                       
7002fec8  gFlashConfig                                
700300e4  gFlashConfigNum                             
7002f8e0  gFlashDevCfg_IS25LX256                      
7001ba28  gFlashHandle                                
7002fe0c  gFlashNorOspiFxns                           
7001a664  gFlashObject_IS25LX256                      
7003006c  gFlashParams                                
7002fe30  gFlashToSpiProtocolMap                      
7001b984  gHSMClient                                  
7001a010  gHsmClientMsgQueue                          
700300e8  gHsmRtDownloadComplete                      
70050000  gHsmRtFw                                    
700300ec  gHsmrtLoadStatus                            
700300f0  gHwiConfig                                  
70019180  gHwiCtrl                                    
7002ffe8  gI2cConfig                                  
700300f4  gI2cConfigNum                               
7001ba18  gI2cHandle                                  
7002fee0  gI2cParams                                  
7001ba2c  gMcanBaseAddr                               
7002fe78  gMcanBitTimingDefaultParams                 
70030074  gMcspiConfig                                
70030100  gMcspiConfigNum                             
70030104  gMcspiDmaChConfig                           
7002f608  gMcspiDmaHandle                             
7001ba30  gMcspiHandle                                
70030108  gMcspiNumCh                                 
7002ff64  gMcspiOpenParams                            
70030150  gMpuConfig                                  
7003015c  gMpuRegionConfig                            
7001a980  gNoteSegBuffer                              
7003007c  gOspiConfig                                 
70030114  gOspiConfigNum                              
7003002c  gOspiDmaConfig                              
70030118  gOspiDmaConfigNum                           
7002fff8  gOspiDmaEdmaFxns                            
7001b94c  gOspiEdmaArgs                               
7001ba34  gOspiHandle                                 
7003011c  gOspiParams                                 
70002100  gPHTBuffer                                  
7003186c  gPLLFreqId2FOutMap                          
70031278  gPeripheralClkSrcInfoMap                    
70030084  gPmicConfig                                 
70030120  gPmicConfigNum                              
7001b9f8  gPmicCoreObj                                
70030038  gPmicFxns_TPS653860xx                       
7001ba38  gPmicHandle                                 
7001ba3c  gPmicMcspiRxBuffer                          
7001ba40  gPmicMcspiTxBuffer                          
7001b7f4  gPmicObject                                 
7002ff8c  gPmicParams                                 
7001b548  gProfileObj                                 
70019990  gQueue_HsmToSecureHost                      
70019cd0  gQueue_SecureHostToHsm                      
7002ff34  gR5ss0Core1ImagePresent                     
7002ff28  gR5ss0MemInitDone                           
7002ff38  gR5ss1Core1ImagePresent                     
7002ff2c  gR5ss1MemInitDone                           
7002ff30  gR5ss1PORDone                               
7002ffa0  gResMemSection                              
7001ba44  gRunApp                                     
7002fbd8  gSIPC_HsmMboxConfig                         
7002facc  gSIPC_InterruptConfig                       
7003008c  gSIPC_QueHsmToSecureHost                    
70030094  gSIPC_QueSecureHostToHsm                    
7002fc28  gSIPC_SecureHostMboxConfig                  
7001b7b0  gSIPC_ctrl                                  
7001ac00  gSecureBootStreamArray                      
7002ff10  gSocModules                                 
7002fcc0  gSocModulesClockFrequency                   
70030128  gStreamId                                   
700300a4  gUartConfig                                 
7003012c  gUartConfigNum                              
70030130  gUartDmaChConfig                            
7002f608  gUartDmaHandle                              
7001ba48  gUartHandle                                 
7002fb30  gUartParams                                 
70090000  gUniflashFileBuf                            
70010180  gUniflashVerifyBuf                          
70018180  gX509Cert                                   
700268e4  getdevice                                   
7001b880  grxMsg                                      
7001b8e8  gtxMsg                                      
70030140  isMapAvailable                              
7002ca80  lseek                                       
7001e8d1  main                                        
7002e280  malloc                                      
7002d6c5  mcanConfigTxMsg                             
7002a147  mcanEnableTransceiver                       
70022280  memalign                                    
700300ac  operatingMode                               
7001a678  parmbuf                                     
70030138  ptrMSSCtrlRegs                              
7003013c  ptrTopCtrlRegs                              
7002dff0  putchar                                     
7002de8d  putchar_                                    
7002e3f8  remove                                      
70023958  setvbuf                                     
7001e540  strcmp                                      
7002bb88  unlink                                      
7001a680  vec_addrs                                   
70030044  vec_size                                    
70030048  vector_table_loc                            
7001ba08  virtToPhymap                                
7002d3f1  vprintf_                                    
7002cab4  write                                       


GLOBAL SYMBOLS: SORTED BY Symbol Address 

address   name                                        
-------   ----                                        
00000000  __TI_ATRegion0_region_sz                    
00000000  __TI_ATRegion0_src_addr                     
00000000  __TI_ATRegion0_trg_addr                     
00000000  __TI_ATRegion1_region_sz                    
00000000  __TI_ATRegion1_src_addr                     
00000000  __TI_ATRegion1_trg_addr                     
00000000  __TI_ATRegion2_region_sz                    
00000000  __TI_ATRegion2_src_addr                     
00000000  __TI_ATRegion2_trg_addr                     
00000000  __TI_static_base__                          
00000000  _vectors                                    
00000100  __ABORT_STACK_SIZE                          
00000100  __FIQ_STACK_SIZE                            
00000100  __SVC_STACK_SIZE                            
00000100  __UNDEFINED_STACK_SIZE                      
00001000  __IRQ_STACK_SIZE                            
00002000  __STACK_SIZE                                
00002000  __SYSMEM_SIZE                               
70002100  __BSS_START                                 
70002100  __start___llvm_prf_bits                     
70002100  __start___llvm_prf_cnts                     
70002100  __stop___llvm_prf_bits                      
70002100  __stop___llvm_prf_cnts                      
70002100  gPHTBuffer                                  
70010180  gUniflashVerifyBuf                          
70018180  gX509Cert                                   
70019180  gHwiCtrl                                    
70019990  gQueue_HsmToSecureHost                      
70019cd0  gQueue_SecureHostToHsm                      
7001a010  gHsmClientMsgQueue                          
7001a664  gFlashObject_IS25LX256                      
7001a678  parmbuf                                     
7001a680  vec_addrs                                   
7001a980  gNoteSegBuffer                              
7001ac00  gSecureBootStreamArray                      
7001b304  gEepromObject_CAT24M                        
7001b428  _CIOBUF_                                    
7001b428  __CIOBUF_                                   
7001b548  gProfileObj                                 
7001b710  __TI_tmpnams                                
7001b7b0  gSIPC_ctrl                                  
7001b7f4  gPmicObject                                 
7001b800  gElfHBuffer                                 
7001b880  grxMsg                                      
7001b8e8  gtxMsg                                      
7001b94c  gOspiEdmaArgs                               
7001b984  gHSMClient                                  
7001b9d8  gClockCtrl                                  
7001b9f8  gPmicCoreObj                                
7001ba08  virtToPhymap                                
7001ba18  gI2cHandle                                  
7001ba20  gEdmaHandle                                 
7001ba24  gEepromHandle                               
7001ba28  gFlashHandle                                
7001ba2c  gMcanBaseAddr                               
7001ba30  gMcspiHandle                                
7001ba34  gOspiHandle                                 
7001ba38  gPmicHandle                                 
7001ba3c  gPmicMcspiRxBuffer                          
7001ba40  gPmicMcspiTxBuffer                          
7001ba44  gRunApp                                     
7001ba48  gUartHandle                                 
7001ba80  __BSS_END                                   
7001c171  OSPI_lld_phyFindOTP1                        
7001c85b  Dpl_deinit                                  
7001c85d  Bootloader_parseAndLoadMultiCoreELF         
7001d471  SOC_rcmEnablePeripheralClock                
7001e181  Bootloader_CANReceiveFile                   
7001e540  strcmp                                      
7001e8d1  main                                        
7001ec57  Pmic_pwrSetLdoCfg                           
7001f2e7  SemaphoreP_destruct                         
7001f5f9  UART_open                                   
7001f899  MCSPI_open                                  
7001fb31  EDMA_init                                   
7001fdad  SOC_rcmSetPeripheralClock                   
70020239  OSPI_open                                   
7002046d  SIPC_init                                   
70020697  TaskP_yield                                 
70020699  MCSPI_lld_dmaTransfer                       
700208bd  I2C_open                                    
70020cd5  EDMA_freeChannelRegion                      
700210c9  MCSPI_lld_controllerIsr                     
700212b1  OSPI_edmaCopy                               
70021495  MCAN_msgRAMConfig                           
70021670  __aeabi_uidiv                               
70021670  __udivsi3                                   
70021841  SOC_rcmPerApllConfig                        
70021a0d  MCSPI_lld_dmaChInit                         
70021bcd  I2C_lld_targetIsr                           
70021d81  I2C_lld_controllerIsr                       
700220d8  free                                        
70022280  aligned_alloc                               
70022280  memalign                                    
70022425  MCSPI_transfer                              
700225b9  UART_lld_dmaInit                            
700228dd  HsmClient_procAuthBootFinish                
70022a63  I2C_transfer                                
70022be5  SOC_phyToVirt                               
70022d61  SIPC_isr                                    
70022ec9  EDMA_open                                   
7002302d  EDMA_deinit                                 
7002318d  OSPI_edmaInit                               
700232dd  UART_lld_dmaDeInit                          
7002342d  Bootloader_uniflashProcessFlashCommands     
70023579  MCSPI_lld_dmaDeInit                         
700236c5  UART_lld_controllerIsr                      
70023811  SOC_rcmCoreApllHSDivConfig                  
70023958  setvbuf                                     
70023a9d  TimerP_setupPriv                            
70023bdd  Bootloader_socCpuRelease                    
70023be1  Bootloader_profilePrintProfileLog           
70023d1d  SOC_virtToPhy                               
70023e59  UART_close                                  
70023f91  MCSPI_lld_readWrite                         
700241f7  Hsmclient_loadHSMRtFirmware                 
7002455f  MCSPI_lld_readWriteIntr                     
70024795  MCAN_readMsgRam                             
700248ac  __udivmoddi4                                
700249c5  SOC_rcmCoreApllConfig                       
70024ad9  SOC_rcmGetPeripheralClockFrequency          
70024bed  OSPI_lld_isr                                
70024cfb  UART_lld_write                              
70024e09  Pmic_init                                   
70025123  ClockP_init                                 
70025229  UART_lld_dmaWrite                           
7002532d  MCSPI_close                                 
7002542d  SIPC_sendMsg                                
7002552d  Bootloader_CANInit                          
70025629  UART_write                                  
70025725  OSPI_lld_readCmd                            
7002581d  OSPI_lld_readDirectDma                      
70025915  OSPI_lld_writeIndirect                      
70025a0d  MCSPI_lld_initDma                           
70025b01  EEPROM_CAT24M_write                         
70025ce4  fputc                                       
70025dd5  OSPI_lld_setProtocol                        
70025ec1  MCSPI_lld_readWriteDma                      
70025fa7  TCA6424_Mcan_Transceiver                    
7002608d  MCAN_writeMsgRam                            
70026171  OSPI_lld_writeCmd                           
70026251  MCAN_init                                   
70026405  ELFUP_update                                
700264dd  EDMA_unregisterIntr                         
700265ad  MCAN_config                                 
7002674d  UART_lld_initDma                            
700268e4  getdevice                                   
70026bfd  I2C_lld_mem_write                           
70026d85  MCAN_setBitTime                             
70026e49  MCSPI_lld_init                              
70026f0d  UART_lld_init                               
70026fd1  I2C_lld_mem_read                            
70027091  TCA6416_setOutput                           
70027151  TCA6416_config                              
7002720f  TCA6424_config                              
700272cd  TCA6424_setOutput                           
7002738d  EDMA_registerIntr                           
70027449  HsmClient_procAuthBootStart                 
7002772b  Bootloader_uniflashFlashFile                
700277e0  fseeko                                      
70027894  __TI_closefile                              
70027b4d  Bootloader_uniflashFlashErase               
70027bf5  MCAN_calcMsgRamParamsStartAddr              
70027c9d  PMIC_tps653860xxOpen                        
70027d45  PMIC_mcspiReadRegister                      
70027e91  I2C_lld_mem_readIntr                        
70027f35  I2C_lld_mem_writeIntr                       
70027fd9  OSPI_lld_initDma                            
70028121  Bootloader_socLoadHsmRtFw                   
700281c1  EDMA_freeDmaChannel                         
70028261  EDMA_freeParam                              
70028301  EDMA_freeTcc                                
700283a0  HOSTrename                                  
70028441  I2C_close                                   
700284e1  UART_lld_dmaRead                            
70028581  board_flash_reset                           
70028621  Bootloader_getMsgLen                        
700286bf  SemaphoreP_pend                             
7002875d  Bootloader_socCpuPowerOnReset               
700287f9  SOC_rcmsetR5SysClock                        
70028894  __TI_wrt_ok                                 
70028931  HsmClient_config                            
70028a65  PMIC_mcspiWriteRegister                     
70028b00  HOSTlseek                                   
70028b99  HsmClient_isr                               
70028c2f  EDMA_configureChannelRegion                 
70028cc4  HOSTopen                                    
70028d59  I2C_lld_init                                
70029031  Bootloader_uniflashFlashVerifyFile          
700290bd  MCSPI_lld_peripheralIsr                     
70029149  OSPI_lld_init                               
700291d4  close                                       
70029261  OSPI_edmaDeInit                             
700292ed  UART_init                                   
70029374  __TI_doflush                                
700293fd  Bootloader_uniflashFlashFileSector          
70029480  HOSTread                                    
70029504  HOSTwrite                                   
7002960d  Drivers_close                               
7002968d  EDMA_close                                  
7002978d  OSPI_readDirect                             
7002980d  UART_flushTxFifo                            
7002988d  HsmClient_procAuthBootUpdate                
70029a09  Bootloader_CANTransmitResp                  
70029a85  Drivers_i2cOpen                             
70029b01  Board_pmicOpen                              
70029b7b  MCSPI_initiateLastChunkTransfer             
70029bf5  MCSPI_init                                  
70029c6d  OSPI_init                                   
70029ce5  EEPROM_CAT24M_read                          
70029dc9  MCSPI_stop                                  
70029e3b  Board_flashOpen                             
70029eab  Flash_offsetToSectorPage                    
70029f1b  MCSPI_lld_dmaStop                           
70029f8b  PMIC_tps653860xxConfigure                   
70029ffb  Pmic_ioTxByte                               
7002a06b  EDMA_disableTransferRegion                  
7002a0d9  EDMA_enableTransferRegion                   
7002a147  mcanEnableTransceiver                       
7002a1b5  Flash_offsetToBlkPage                       
7002a220  HOSTunlink                                  
7002a28d  OSPI_lld_phyResyncDLL                       
7002a2f9  UART_lld_writeDma                           
7002a3cd  UART_lld_writeIntr                          
7002a49b  CycleCounterP_init                          
7002a4ab  CycleCounterP_reset                         
7002a4cf  CycleCounterP_nsToTicks                     
7002a4fb  CycleCounterP_enableUserAccess              
7002a501  SOC_controlModuleUnlockMMR                  
7002a565  SOC_rcmStartMemInitTCMA                     
7002a5c9  SOC_rcmStartMemInitTCMB                     
7002a62d  UART_procLineStatusErr                      
7002a691  HsmClient_register                          
7002a6f4  HOSTclose                                   
7002a755  MCAN_getProtocolStatus                      
7002a7b5  OSPI_lld_phyBasicConfig                     
7002a815  SOC_rcmMemInitL2Memory                      
7002a875  SOC_rcmR5ConfigDualCore                     
7002a8d5  SOC_rcmWaitMemInitTCMA                      
7002a935  SOC_rcmWaitMemInitTCMB                      
7002a994  calloc                                      
7002a9f5  ClockP_timerTickIsr                         
7002aa53  MCSPI_setChDataSize                         
7002aab1  TCA6424_Flash_reset                         
7002ab11  Bootloader_socSetAutoClock                  
7002ab6d  MCAN_writeRxFIFOAck                         
7002ac25  Pmic_setRegLockState                        
7002ac81  SOC_controlModuleLockMMR                    
7002acdd  _DebugP_assert                              
7002ad39  OSPI_lld_setXferOpCodes                     
7002ad93  Board_eepromOpen                            
7002aded  Bootloader_parseNoteSegment                 
7002ae45  Bootloader_runCpu                           
7002ae9d  Bootloader_socConfigurePll                  
7002aef5  TCA6416_Flash_reset                         
7002af4c  __TI_cleanup                                
7002afa4  __TI_readmsg                                
7002affc  __TI_writemsg                               
7002b048  C$$IO$$                                     
7002b055  ClockP_getTimeUsec                          
7002b0ab  PMIC_regRead                                
7002b101  PMIC_regWrite                               
7002b157  UART_intrDisable                            
7002b1ad  UART_writeCancelNoCB                        
7002b258  exit                                        
7002b2ac  finddevice                                  
7002b300  __TI_auto_init_nobinit_nopinit              
7002b355  AddrTranslateP_getLocalAddr                 
7002b3a7  Bootloader_uniflashFlashPhyTuningData       
7002b3f9  HsmClient_checkAndWaitForBootNotification   
7002b44b  MCSPI_lld_deInitDma                         
7002b49d  EDMA_allocDmaChannel                        
7002b4ed  EDMA_allocParam                             
7002b53d  EDMA_allocTcc                               
7002b58d  MCAN_getRxFIFOStatus                        
7002b5dd  MCAN_setExtIDAndMask                        
7002b6cb  Drivers_edmaOpen                            
7002b719  Drivers_mcspiOpen                           
7002b767  Drivers_uartOpen                            
7002b7b5  EDMA_disableChInShadowRegRegion             
7002b805  Bootloader_socCpuGetClock                   
7002b851  Drivers_ospiOpen                            
7002b935  MCSPI_transferCallback                      
7002b9cd  OSPI_close                                  
7002ba19  OSPI_lld_deInit                             
7002ba65  SOC_rcmCoreR5FUnhalt                        
7002bab1  OSPI_lld_deInitDma                          
7002baf9  OSPI_lld_phyFindTxHigh                      
7002bb88  unlink                                      
7002bbd1  OSPI_lld_phyFindRxHigh                      
7002bc17  OSPI_lld_phyFindRxLow                       
7002bc5d  OSPI_lld_phyFindTxLow                       
7002bca3  OSPI_lld_phySetRdDelayTxRxDLL               
7002bd31  MCAN_addExtMsgIDFilter                      
7002bd75  OSPI_writeIndirect                          
7002bdb9  UART_Params_init                            
7002bdfd  UART_lld_deInitDma                          
7002be41  Flash_quirkSpansionUNHYSADisable            
7002be83  OSPI_lld_enablePhy                          
7002bec5  Bootloader_findSeq                          
7002bf05  Bootloader_open                             
7002bf45  Bootloader_socMemInitCpu                    
7002bfc5  ClockP_stop                                 
7002c005  Dpl_init                                    
7002c045  EDMA_mapChToEvtQ                            
7002c085  OSPI_lld_phyReadAttackVector                
7002c0c5  Pinmux_config                               
7002c105  UART_lld_deInit                             
7002c201  SIPC_registerClient                         
7002c241  EDMA_getBaseAddr                            
7002c27d  OSPI_lld_phyTuneDDR                         
7002c2b9  SOC_rcmR5ConfigLockStep                     
7002c331  ClockP_destruct                             
7002c36b  DebugP_uartLogWriterPutChar                 
7002c3a5  EEPROM_open                                 
7002c3df  Flash_open                                  
7002c453  Module_clockSetFrequency                    
7002c48d  TCA6416_open                                
7002c4c7  TCA6424_open                                
7002c501  UART_lld_flushTxFifo                        
7002c53d  Bootloader_authStart                        
7002c575  Bootloader_authUpdate                       
7002c5ad  Bootloader_socTranslateSectionAddr          
7002c5e5  MCAN_getErrCounters                         
7002c61d  MCAN_initTxBufElement                       
7002c655  PMIC_open                                   
7002c68d  Pmic_checkPmicCoreHandle                    
7002c6fd  _DebugP_logZone                             
7002c734  CycleCounterP_getCount32                    
7002c73c  PmuP_setup                                  
7002c744  PmuP_enableCounters                         
7002c74c  PmuP_disableCounters                        
7002c754  PmuP_getOverflowStatus                      
7002c75c  PmuP_clearOverflowStatus                    
7002c764  PmuP_setUserEnable                          
7002c76d  EDMA_clrMissEvtRegion                       
7002c7a3  HsmClient_waitForBootNotify                 
7002c7d9  SemaphoreP_post                             
7002c80f  Bootloader_getX509CertLen                   
7002c843  ClockP_start                                
7002c877  EEPROM_CAT24M_open                          
7002c8ad  I2C_init                                    
7002c8e1  Module_clockDisable                         
7002c915  Module_clockEnable                          
7002c949  OSPI_dmaOpen                                
7002c97d  OSPI_lld_disablePhy                         
7002c9b1  OSPI_lld_readDirect                         
7002c9e5  Pmic_ioRxByte                               
7002ca80  lseek                                       
7002cab4  write                                       
7002cae9  ClockP_usleep                               
7002cb1b  EDMA_unmapChToEvtQ                          
7002cb4d  MCAN_initMsgRamConfigParams                 
7002cb7f  MCAN_initOperModeParams                     
7002cbb1  MCSPI_errorCallback                         
7002cbe5  Bootloader_BootImageInfo_init               
7002cc15  Bootloader_authFinish                       
7002cc75  MCAN_txBufAddReq                            
7002ccd5  SIPC_Register_Isr                           
7002cd05  SOC_rcmCoreApllRelockPreRequisite           
7002cd35  System_deinit                               
7002cdc5  EDMA_enableChInShadowRegRegion              
7002cdf3  I2C_lld_deInit                              
7002ce21  Bootloader_profileReset                     
7002ce4d  EDMA_getHandle                              
7002ce79  I2C_getHandle                               
7002cea5  MCSPI_getHandle                             
7002ced1  SOC_rcmGetR5Clock                           
7002cefd  UART_getHandle                              
7002cf29  Flash_read                                  
7002cf53  Flash_write                                 
7002cf7d  System_init                                 
7002cfa7  ClockP_construct                            
7002cff9  MCAN_initSetBitTimeParams                   
7002d049  OSPI_dmaCopy                                
7002d071  OSPI_getHandle                              
7002d099  PMIC_tps653860xxClose                       
7002d0c1  SOC_moduleSetClockFrequency                 
7002d111  Bootloader_initCpu                          
7002d137  EDMA_setPaRAM                               
7002d15d  I2C_lld_transferIntr                        
7002d183  I2C_lld_transferPoll                        
7002d1a9  SIPC_unregisterClient                       
7002d1cf  UART_lld_dmaDisableChannel                  
7002d1f5  flashFixUpOspiBoot                          
7002d21d  Bootloader_profileAddProfilePoint           
7002d241  EDMA_clrIntrRegion                          
7002d265  EDMA_disableEvtIntrRegion                   
7002d289  EDMA_readIntrStatusRegion                   
7002d2ad  Flash_getAttrs                              
7002d2d1  Flash_getHandle                             
7002d2f5  HsmClient_init                              
7002d319  MCAN_initGlobalFilterConfigParams           
7002d33d  MCAN_setOpMode                              
7002d385  OSPI_lld_enableDacMode                      
7002d3cc  __aeabi_uldivmod                            
7002d3f1  vprintf_                                    
7002d415  EDMA_linkChannel                            
7002d437  EEPROM_CAT24M_close                         
7002d47b  OSPI_lld_configBaudrate                     
7002d49d  OSPI_lld_setDeviceSize                      
7002d4e1  Pmic_deinit                                 
7002d505  Bootloader_runSelfCpu                       
7002d525  DebugP_logZoneEnable                        
7002d545  EDMA_chainChannel                           
7002d585  I2C_lld_Message_init                        
7002d5a5  MCAN_getOpMode                              
7002d5c5  MCAN_isMemInitDone                          
7002d605  OSPI_lld_readCmdParams_init                 
7002d625  OSPI_lld_writeCmdParams_init                
7002d645  OSPI_readCmd                                
7002d665  OSPI_writeCmd                               
7002d685  TimerP_Params_initPriv                      
7002d6a5  UART_getChar                                
7002d6c5  mcanConfigTxMsg                             
7002d6e5  Drivers_open                                
7002d703  EEPROM_read                                 
7002d721  OSPI_lld_readBaudRateDivFromReg             
7002d77b  TCA6416_close                               
7002d799  TCA6424_close                               
7002d7b7  UART_spaceAvail                             
7002d7f5  Bootloader_socGetCoreName                   
7002d811  MCAN_getTxBufTransmissionStatus             
7002d865  MCSPI_lld_deInit                            
7002d881  OSPI_lld_disableDacMode                     
7002d89d  OSPI_lld_setNumAddrBytes                    
7002d8b9  SOC_rcmIsR5FInLockStepMode                  
7002d90c  TI_memcpy_small                             
7002d929  CSL_armR5GetCpuID                           
7002d943  Drivers_pmicOpen                            
7002d95d  EDMA_readEventStatusRegion                  
7002d977  ELFUP_init                                  
7002d9ab  OSPI_EdmaParams_init                        
7002d9df  OSPI_lld_setRdDataCaptureDelay              
7002d9f9  SIPC_Params_init                            
7002da2d  Board_eepromClose                           
7002da45  Bootloader_profileAddCore                   
7002da5d  Bootloader_socCpuGetClkDefault              
7002da75  Drivers_mcspiClose                          
7002daa5  I2C_deinit                                  
7002dabd  MCSPI_deinit                                
7002dad5  MCSPI_lld_dmaInit                           
7002daed  OSPI_deinit                                 
7002db05  OSPI_dmaClose                               
7002db1d  OSPI_isDmaInterruptEnabled                  
7002db35  SOC_getCoreName                             
7002db4d  SOC_rcmMemInitMailboxMemory                 
7002db65  SOC_rcmR5SS0PowerOnReset                    
7002db7d  SOC_rcmR5SS1PowerOnReset                    
7002db95  TimerP_getCountPriv                         
7002dbad  UART_deinit                                 
7002dbc4  TI_memset_small                             
7002dbdd  Board_driversOpen                           
7002dbf3  Bootloader_socCpuSetClock                   
7002dc09  I2C_lld_Transaction_init                    
7002dc1f  MCSPI_reset                                 
7002dc4b  OSPI_lld_Transaction_init                   
7002dc61  OSPI_lld_disablePhyPipeline                 
7002dc77  OSPI_lld_enablePhyPipeline                  
7002dc8d  OSPI_lld_enableSDR                          
7002dca3  OSPI_lld_setResetPinStatus                  
7002dcb9  SemaphoreP_constructBinary                  
7002dccf  UART_IsTxRxFifoEmpty                        
7002dce5  UART_checkCharsAvailInFifo                  
7002dcfb  UART_getIntrIdentityStatus                  
7002dd11  Bootloader_socCpuResetRelease               
7002dd25  Bootloader_socIsAuthRequired                
7002dd39  ClockP_usecToTicks                          
7002dd4d  EDMA_getRegionId                            
7002dd61  Flash_eraseSector                           
7002dd75  OSPI_lld_setCmdDummyCycles                  
7002dd89  SOC_rcmR5SS0TriggerReset                    
7002dd9d  SemaphoreP_constructMutex                   
7002ddb1  UART_Transaction_init                       
7002ddd9  Flash_disableDacMode                        
7002ddeb  Flash_enableDacMode                         
7002ddfd  Flash_eraseBlk                              
7002de0f  Hsmclient_updateBootNotificationRegister    
7002de33  OSPI_lld_enableModeBitsCmd                  
7002de45  PMIC_configure                              
7002de69  UART_operatingModeSelect                    
7002de7b  UART_readLineStatus                         
7002de8d  putchar_                                    
7002de9f  Bootloader_Uniflash_RPRC_flashVerifyXIPFile 
7002deaf  Bootloader_close                            
7002debf  Bootloader_isCorePresent                    
7002deef  OSPI_configBaudrate                         
7002deff  OSPI_disableDacMode                         
7002df0f  OSPI_disablePhy                             
7002df1f  OSPI_enableDacMode                          
7002df2f  OSPI_enablePhy                              
7002df3f  OSPI_enablePhyPipeline                      
7002df4f  OSPI_enableSDR                              
7002df5f  OSPI_getBaudRateDivFromObj                  
7002df71  OSPI_lld_phyGetTuningData                   
7002df81  OSPI_lld_setReadDummyCycles                 
7002df91  OSPI_setRdDataCaptureDelay                  
7002dfa1  OSPI_setResetPinStatus                      
7002dfb1  PMIC_criticalSectionStartFn                 
7002dfc1  SOC_rcmR5SS1TriggerReset                    
7002dfd1  UART_intr2Disable                           
7002dfe0  __aeabi_memset                              
7002dfe0  __aeabi_memset4                             
7002dfe0  __aeabi_memset8                             
7002dff0  putchar                                     
7002e001  Bootloader_Uniflash_MCELF_flashVerifyXIPFile
7002e00f  Bootloader_Uniflash_MCELF_flashXIPFile      
7002e01d  Bootloader_socCpuResetReleaseSelf           
7002e02b  Bootloader_socInitL2MailBoxMemory           
7002e039  EDMA_ccPaRAMEntry_init                      
7002e047  EEPROM_close                                
7002e055  Flash_close                                 
7002e063  Flash_getPhyTuningOffset                    
7002e07f  OSPI_getInputClk                            
7002e08d  OSPI_isDacEnable                            
7002e09b  OSPI_isPhyEnable                            
7002e0a9  OSPI_lld_clearDualOpCodeMode                
7002e0b7  OSPI_lld_enableModeBitsRead                 
7002e0c5  OSPI_lld_setModeBits                        
7002e0d3  OSPI_phyReadAttackVector                    
7002e0e1  OSPI_phyTuneDDR                             
7002e0ef  PMIC_close                                  
7002e0fd  Pinmux_init                                 
7002e10b  PowerClock_init                             
7002e119  Bootloader_Params_init                      
7002e125  Bootloader_profileUpdateAppimageSize        
7002e131  Bootloader_profileUpdateMediaAndClk         
7002e13d  Bootloader_socGetBootSeqOid                 
7002e149  ClockP_getTicks                             
7002e155  DebugP_uartSetDrvIndex                      
7002e161  EDMA_isInitialized                          
7002e16d  HsmClient_SecureBootQueueInit               
7002e179  I2C_Transaction_init                        
7002e185  OSPI_clearDualOpCodeMode                    
7002e191  OSPI_enableModeBitsCmd                      
7002e19d  OSPI_enableModeBitsRead                     
7002e1a9  OSPI_lld_getFlashDataBaseAddr               
7002e1b5  OSPI_lld_getInputClk                        
7002e1c1  OSPI_setCmdDummyCycles                      
7002e1cd  OSPI_setCmdExtType                          
7002e1d9  OSPI_setDeviceSize                          
7002e1e5  OSPI_setModeBits                            
7002e1f1  OSPI_setNumAddrBytes                        
7002e1fd  OSPI_setPhyEnableSuccess                    
7002e209  OSPI_setProtocol                            
7002e215  OSPI_setReadDummyCycles                     
7002e221  OSPI_setXferOpCodes                         
7002e22d  PMIC_criticalSectionStopFn                  
7002e239  SIPC_getSelfCoreId                          
7002e245  SOC_getSelfCpuClk                           
7002e251  SOC_rcmSetR5ClockSource                     
7002e25d  TCA6416_Params_init                         
7002e269  TCA6424_Params_init                         
7002e274  __aeabi_memclr                              
7002e274  __aeabi_memclr4                             
7002e274  __aeabi_memclr8                             
7002e280  malloc                                      
7002e28c  CSL_armR5ReadMpidrReg                       
7002e299  Bootloader_Uniflash_RPRC_flashXIPFile       
7002e2ad  Bootloader_getMulticoreImageSize            
7002e2b7  ClockP_Params_init                          
7002e2c1  ClockP_isActive                             
7002e2e9  SOC_rcmSetR5Clock                           
7002e2f3  TimerP_getReloadCountPriv                   
7002e2fd  TimerP_startPriv                            
7002e307  UART_lld_Transaction_deInit                 
7002e311  Bootloader_socGetSBLMem                     
7002e320  C$$EXIT                                     
7002e320  HOSTexit                                    
7002e329  OSPI_ReadCmdParams_init                     
7002e331  OSPI_Transaction_init                       
7002e339  OSPI_WriteCmdParams_init                    
7002e341  OSPI_edmaItrStatus                          
7002e349  OSPI_lld_readCompleteCallback               
7002e351  Pmic_criticalSectionStart                   
7002e359  Pmic_criticalSectionStop                    
7002e361  Pmic_validParamCheck                        
7002e369  TimerP_clearOverflowIntPriv                 
7002e378  abort                                       
7002e381  EDMA_isInterruptEnabled                     
7002e387  HsmClient_unregister                        
7002e38d  OSPI_lld_isDacEnable                        
7002e393  OSPI_lld_isPhyEnable                        
7002e399  OSPI_lld_setCmdExtType                      
7002e39f  OSPI_lld_setPhyEnableSuccess                
7002e3a5  SOC_moduleClockEnable                       
7002e3b1  Bootloader_socCpuRequest                    
7002e3b5  ClockP_getTimerCount                        
7002e3b9  ClockP_timerClearOverflowInt                
7002e3c1  Keyring_init                                
7002e3c5  OSPI_phyGetTuningData                       
7002e3c9  PowerClock_deinit                           
7002e3cd  TimerP_Params_init                          
7002e3d1  TimerP_clearOverflowInt                     
7002e3d5  TimerP_getCount                             
7002e3d9  TimerP_getReloadCount                       
7002e3dd  TimerP_setup                                
7002e3e1  TimerP_start                                
7002e3e4  __aeabi_idiv0                               
7002e3e8  __aeabi_ldiv0                               
7002e3ec  __aeabi_memcpy                              
7002e3ec  __aeabi_memcpy4                             
7002e3ec  __aeabi_memcpy8                             
7002e3f0  _nop                                        
7002e3f4  fseek                                       
7002e3f8  remove                                      
7002e441  HwiP_enableInt                              
7002e469  HwiP_disableInt                             
7002e49b  HwiP_restoreInt                             
7002e4f1  HwiP_clearInt                               
7002e511  HwiP_post                                   
7002e539  HwiP_Params_init                            
7002e54b  HwiP_construct                              
7002e68f  HwiP_destruct                               
7002e761  HwiP_init                                   
7002e829  HwiP_inISR                                  
7002e845  HwiP_setVimIrqPriMaskNonAtomic              
7002e867  HwiP_setVimIrqPriMaskAtomic                 
7002e8b3  HwiP_restoreVimIrqPriMask                   
7002e8cb  HwiP_irq_handler_c                          
7002e967  HwiP_fiq_handler                            
7002ea17  HwiP_reserved_handler                       
7002ea45  HwiP_undefined_handler_c                    
7002ea63  HwiP_user_undefined_handler_c               
7002ea77  HwiP_svc_handler                            
7002eaa5  HwiP_prefetch_abort_handler_c               
7002eb1f  HwiP_user_prefetch_abort_handler_c          
7002eb2f  HwiP_data_abort_handler_c                   
7002ebaf  HwiP_user_data_abort_handler_c              
7002ebc0  HwiP_irq_handler                            
7002ec34  HwiP_data_abort_handler                     
7002ec78  HwiP_prefetch_abort_handler                 
7002ecc4  HwiP_undefined_handler                      
7002ecf4  GET_DFSR                                    
7002ecfc  GET_ADFSR                                   
7002ed04  GET_DFAR                                    
7002ed0c  GET_IFSR                                    
7002ed14  GET_AIFSR                                   
7002ed1c  GET_IFAR                                    
7002ed24  GET_SPSR                                    
7002ed3c  HwiP_disable                                
7002ed4c  HwiP_disableFIQ                             
7002ed5c  HwiP_enable                                 
7002ed6c  HwiP_enableFIQ                              
7002ed7c  HwiP_restore                                
7002ed84  HwiP_enableVIC                              
7002ed94  HwiP_disableVIC                             
7002eda4  HwiP_getCPSR                                
7002edb8  CacheP_disableL1d                           
7002ede0  CacheP_disableL1p                           
7002edf8  CacheP_enableL1d                            
7002ee10  CacheP_enableL1p                            
7002ee28  CacheP_invL1d                               
7002ee60  CacheP_invL1p                               
7002ee9c  CacheP_invL1dAll                            
7002eea4  CacheP_invL1pAll                            
7002eeac  CacheP_wb                                   
7002eee8  CacheP_wbInv                                
7002ef24  CacheP_wbAll                                
7002efcc  CacheP_wbInvAll                             
7002efe4  CacheP_wbInvAllAsm                          
7002f084  CacheP_getEnabled                           
7002f0bc  CacheP_getCacheLevelInfo                    
7002f0c8  CacheP_configForceWrThru                    
7002f0e8  CacheP_setDLFO                              
7002f0f9  CacheP_init                                 
7002f151  CacheP_disable                              
7002f18b  CacheP_enable                               
7002f1ab  CacheP_inv                                  
7002f1e9  MpuP_getAttrs                               
7002f229  MpuP_RegionAttrs_init                       
7002f237  MpuP_setRegion                              
7002f2b1  MpuP_isEnable                               
7002f2b5  MpuP_disable                                
7002f2e7  MpuP_enable                                 
7002f323  MpuP_init                                   
7002f385  MpuP_isUserAuthorizedToAccessMemory         
7002f3ec  MpuP_disableAsm                             
7002f404  MpuP_disableBRAsm                           
7002f414  MpuP_enableAsm                              
7002f42c  MpuP_enableBRAsm                            
7002f43c  MpuP_isEnableAsm                            
7002f450  MpuP_setRegionAsm                           
7002f478  _c_int00_sbl                                
7002f49c  _c_int00                                    
7002f5bd  _DebugP_assertNoLog                         
7002f5db  _system_pre_init                            
7002f5f7  __mpu_init                                  
7002f608  _ftable                                     
7002f608  gMcspiDmaHandle                             
7002f608  gUartDmaHandle                              
7002f8e0  gFlashDevCfg_IS25LX256                      
7002f9e4  _device                                     
7002fa5c  gAddrTranslateInfo                          
7002facc  gSIPC_InterruptConfig                       
7002fb30  gUartParams                                 
7002fb88  _stream                                     
7002fbd8  gSIPC_HsmMboxConfig                         
7002fc28  gSIPC_SecureHostMboxConfig                  
7002fc78  gCANMsgsList                                
7002fcc0  gSocModulesClockFrequency                   
7002fd08  gConfigMcspi0ChCfg                          
7002fd48  gFlashAttrs_IS25LX256                       
7002fd80  gCoreBootInfo                               
7002fde0  gBootloaderConfig                           
7002fe0c  gFlashNorOspiFxns                           
7002fe30  gFlashToSpiProtocolMap                      
7002fe78  gMcanBitTimingDefaultParams                 
7002fe98  gBootloaderFlashFxns                        
7002feb0  gClockConfig                                
7002fec8  gFlashConfig                                
7002fee0  gI2cParams                                  
7002ff10  gSocModules                                 
7002ff28  gR5ss0MemInitDone                           
7002ff2c  gR5ss1MemInitDone                           
7002ff30  gR5ss1PORDone                               
7002ff34  gR5ss0Core1ImagePresent                     
7002ff38  gR5ss1Core1ImagePresent                     
7002ff64  gMcspiOpenParams                            
7002ff8c  gPmicParams                                 
7002ffa0  gResMemSection                              
7002ffc8  gBootloader0Args                            
7002ffd8  gEepromFxns_CAT24M                          
7002ffe8  gI2cConfig                                  
7002fff8  gOspiDmaEdmaFxns                            
70030008  gAddrTranslateConfig                        
70030014  gEepromAttrs_CAT24M                         
70030020  gEepromConfig                               
7003002c  gOspiDmaConfig                              
70030038  gPmicFxns_TPS653860xx                       
70030044  vec_size                                    
70030048  vector_table_loc                            
7003004c  __TI_cleanup_ptr                            
70030050  __TI_dtors_ptr                              
70030054  gEdmaConfig                                 
7003005c  gEdmaParams                                 
70030064  gEepromParams                               
7003006c  gFlashParams                                
70030074  gMcspiConfig                                
7003007c  gOspiConfig                                 
70030084  gPmicConfig                                 
7003008c  gSIPC_QueHsmToSecureHost                    
70030094  gSIPC_QueSecureHostToHsm                    
700300a4  gUartConfig                                 
700300ac  operatingMode                               
700300b4  __TI_ft_end                                 
700300c0  _lock                                       
700300c4  _unlock                                     
700300cc  gBootloaderConfigNum                        
700300d0  gConfigMcspiChCfg                           
700300d4  gDebugLogZone                               
700300d8  gDebugP_uartDrvIndex                        
700300dc  gEdmaConfigNum                              
700300e0  gEepromConfigNum                            
700300e4  gFlashConfigNum                             
700300e8  gHsmRtDownloadComplete                      
700300ec  gHsmrtLoadStatus                            
700300f0  gHwiConfig                                  
700300f4  gI2cConfigNum                               
70030100  gMcspiConfigNum                             
70030104  gMcspiDmaChConfig                           
70030108  gMcspiNumCh                                 
70030114  gOspiConfigNum                              
70030118  gOspiDmaConfigNum                           
7003011c  gOspiParams                                 
70030120  gPmicConfigNum                              
70030128  gStreamId                                   
7003012c  gUartConfigNum                              
70030130  gUartDmaChConfig                            
70030138  ptrMSSCtrlRegs                              
7003013c  ptrTopCtrlRegs                              
70030140  isMapAvailable                              
70030148  gCacheConfig                                
70030150  gMpuConfig                                  
7003015c  gMpuRegionConfig                            
700302b0  gADPLLJConfigTbl                            
70030a88  I2C_defaultTransaction                      
700311e4  gCacheL1dCacheLineSize                      
700311e8  I2C_lld_defaultMessage                      
70031278  gPeripheralClkSrcInfoMap                    
7003171c  gCacheL1pCacheLineSize                      
7003186c  gPLLFreqId2FOutMap                          
70031a18  __stack                                     
70033a18  __STACK_END                                 
70033a18  _sys_memory                                 
70035a18  __IRQ_STACK_START                           
70036a18  __FIQ_STACK_START                           
70036a18  __IRQ_STACK_END                             
70036b18  __FIQ_STACK_END                             
70036b18  __SVC_STACK_START                           
70036c18  __ABORT_STACK_START                         
70036c18  __SVC_STACK_END                             
70036d18  __ABORT_STACK_END                           
70036d18  __UNDEFINED_STACK_START                     
70036e18  __UNDEFINED_STACK_END                       
70050000  gHsmRtFw                                    
70090000  gUniflashFileBuf                            
ffffffff  __TI_pprof_out_hndl                         
ffffffff  __TI_prof_data_size                         
ffffffff  __TI_prof_data_start                        
ffffffff  __binit__                                   
ffffffff  binit                                       
UNDEFED   __TI_CINIT_Base                             
UNDEFED   __TI_CINIT_Limit                            
UNDEFED   __TI_Handler_Table_Base                     
UNDEFED   __TI_Handler_Table_Limit                    
UNDEFED   _system_post_cinit                          

[807 symbols]
