******************************************************************************
            TI ARM Clang Linker Unix v4.0.3                    
******************************************************************************
>> Linked Mon Sep 15 15:34:51 2025

OUTPUT FILE NAME:   <sbl_can_uniflash_multicore_elf.debug.out>
ENTRY POINT SYMBOL: "_vectors"  address: 00000000


MEMORY CONFIGURATION

         name            origin    length      used     unused   attr    fill
----------------------  --------  ---------  --------  --------  ----  --------
  R5F_VECS              00000000   00000100  00000040  000000c0  RWIX
  R5F_TCMA              00000100   00007f00  00000000  00007f00  RWIX
  R5F_TCMB              00080000   00008000  00000000  00008000  RWIX
  MSRAM_VECS            70002000   00000100  00000040  000000c0  RWIX
  MSRAM_0               70002100   0004df00  0003f704  0000e7fc  RWIX
  MSRAM_HSMRT           70050000   00040000  0000a6e4  0003591c  RWIX
  MSRAM_1               70090000   00170000  00170000  00000000  RWIX


SEGMENT ALLOCATION MAP

run origin  load origin   length   init length attrs members
----------  ----------- ---------- ----------- ----- -------
00000000    70002000    00000040   00000040    r-x
  00000000    70002000    00000040   00000040    r-x .sbl_init_code
70002100    70002100    0001d602   0001d602    r-x
  70002100    70002100    0001d602   0001d602    r-x .text
7001f710    7001f710    00000e48   00000e48    r-x
  7001f710    7001f710    00000e48   00000e48    r-x .text.hwi
70020560    70020560    00000498   00000498    r-x
  70020560    70020560    00000498   00000498    r-x .text.cache
70020a00    70020a00    000003b8   000003b8    r-x
  70020a00    70020a00    000003b8   000003b8    r-x .text.mpu
70020dc0    70020dc0    000001bc   000001bc    r-x
  70020dc0    70020dc0    000001bc   000001bc    r-x .text.boot
70020f80    70020f80    00000b85   00000b85    rw-
  70020f80    70020f80    00000b85   00000b85    rw- .data
70021b08    70021b08    00001504   00001504    r--
  70021b08    70021b08    00001504   00001504    r-- .rodata
70023080    70023080    0001e7f8   00000000    rw-
  70023080    70023080    000193f8   00000000    rw- .bss
  7003c478    7003c478    00002000   00000000    rw- .stack
  7003e478    7003e478    00002000   00000000    rw- .sysmem
  70040478    70040478    00000100   00000000    rw- .irqstack
  70040578    70040578    00000100   00000000    rw- .fiqstack
  70040678    70040678    00001000   00000000    rw- .svcstack
  70041678    70041678    00000100   00000000    rw- .abortstack
  70041778    70041778    00000100   00000000    rw- .undefinedstack
70050000    70050000    0000a6e4   0000a6e4    r--
  70050000    70050000    0000a6e4   0000a6e4    r-- .rodata.hsmrt


SECTION ALLOCATION MAP

 output                                  attributes/
section   page    origin      length       input sections
--------  ----  ----------  ----------   ----------------
.sbl_init_code 
*          0    70002000    00000040     RUN ADDR = 00000000
                  70002000    00000040     nortos.am263px.r5f.ti-arm-clang.debug.lib : HwiP_armv7r_vectors_nortos_asm.obj (.vectors)

.text      0    70002100    0001d602     
                  70002100    00000b7a     drivers.am263px.r5f.ti-arm-clang.nortos.debug.lib : ospi_phy_am26x_lld.obj (.text.OSPI_lld_phyFindOTP1)
                  70002c7a    00000002     --HOLE-- [fill = 0]
                  70002c7c    00000004     libclang_rt.builtins.a : aeabi_div0.c.obj (.text.__aeabi_ldiv0)
                  70002c80    00000a34     nortos.am263px.r5f.ti-arm-clang.debug.lib : printf.obj (.text._vsnprintf)
                  700036b4    0000000c     libclang_rt.builtins.a : aeabi_memset.S.obj (.text.__aeabi_memclr)
                  700036c0    000009ea     drivers.am263px.r5f.ti-arm-clang.nortos.debug.lib : bootloader.obj (.text.Bootloader_parseAndLoadMultiCoreELF)
                  700040aa    00000002     --HOLE-- [fill = 0]
                  700040ac    00000004     libclang_rt.builtins.a : aeabi_memcpy.S.obj (.text.__aeabi_memcpy)
                  700040b0    000007a4     drivers.am263px.r5f.ti-arm-clang.nortos.debug.lib : i2c_v1_lld.obj (.text.I2C_lld_primeTransferPoll)
                  70004854    0000000c     libc.a : memory.c.obj (.text.malloc)
                  70004860    00000718     drivers.am263px.r5f.ti-arm-clang.nortos.debug.lib : bootloader_can.obj (.text.Bootloader_CANReceiveFile)
                  70004f78    00000008     libsysbm.a : hostexit.c.obj (.text.HOSTexit)
                  70004f80    00000678     drivers.am263px.r5f.ti-arm-clang.nortos.debug.lib : soc_rcm.obj (.text.SOC_rcmGetClkSrcAndDivReg)
                  700055f8    00000008     libc.a : exit.c.obj (.text:abort)
                  70005600    00000638     drivers.am263px.r5f.ti-arm-clang.nortos.debug.lib : soc_rcm.obj (.text.SOC_rcmEnablePeripheralClock)
                  70005c38    00000004     libc.a : _lock.c.obj (.text._nop)
                  70005c3c    00000004            : fseek.c.obj (.text.fseek)
                  70005c40    000005e2     nortos.am263px.r5f.ti-arm-clang.debug.lib : printf.obj (.text._ftoa)
                  70006222    00000002     --HOLE-- [fill = 0]
                  70006224    0000000c                                               : CpuId_armv7r_asm.obj (.text)
                  70006230    000004b0                                               : printf.obj (.text._etoa)
                  700066e0    00000446     main.obj (.text.main)
                  70006b26    00000002     --HOLE-- [fill = 0]
                  70006b28    00000004     libsysbm.a : remove.c.obj (.text.remove)
                  70006b2c    00000004     --HOLE-- [fill = 0]
                  70006b30    00000400     drivers.am263px.r5f.ti-arm-clang.nortos.debug.lib : uart_v0.obj (.text.UART_open)
                  70006f30    000003d2                                                       : soc.obj (.text.SOC_phyToVirt)
                  70007302    00000002     --HOLE-- [fill = 0]
                  70007304    0000001c     libsysbm.a : hostrename.c.obj (.text.strcpy)
                  70007320    00000390     libc.a : strcmp32.S.obj (.text:strcmp)
                  700076b0    00000364     board.am263px.r5f.ti-arm-clang.nortos.debug.lib : flash_nor_ospi.obj (.text.Flash_setQeBit)
                  70007a14    0000000c     --HOLE-- [fill = 0]
                  70007a20    0000034a     drivers.am263px.r5f.ti-arm-clang.nortos.debug.lib : ospi_v0.obj (.text.OSPI_open)
                  70007d6a    00000006     --HOLE-- [fill = 0]
                  70007d70    00000348                                                       : i2c_v1.obj (.text.I2C_open)
                  700080b8    00000008     --HOLE-- [fill = 0]
                  700080c0    00000338                                                       : bootloader_uniflash.obj (.text.Bootloader_uniflashProcessFlashCommands)
                  700083f8    00000008     --HOLE-- [fill = 0]
                  70008400    00000336                                                       : edma.obj (.text.EDMA_initialize)
                  70008736    0000000a     --HOLE-- [fill = 0]
                  70008740    00000336                                                       : i2c_v1_lld.obj (.text.I2C_lld_targetIsr)
                  70008a76    0000000a     --HOLE-- [fill = 0]
                  70008a80    00000302                                                       : soc.obj (.text.SOC_virtToPhy)
                  70008d82    0000000e     --HOLE-- [fill = 0]
                  70008d90    000002e6                                                       : ospi_edma_lld.obj (.text.OSPI_edmaCopy)
                  70009076    0000000a     --HOLE-- [fill = 0]
                  70009080    000002d2     board.am263px.r5f.ti-arm-clang.nortos.debug.lib : flash_nor_ospi.obj (.text.Flash_norOspiOpen)
                  70009352    0000000e     --HOLE-- [fill = 0]
                  70009360    000002ba     drivers.am263px.r5f.ti-arm-clang.nortos.debug.lib : i2c_v1_lld.obj (.text.I2C_lld_controllerIsr)
                  7000961a    00000006     --HOLE-- [fill = 0]
                  70009620    000002a8                                                       : mcan.obj (.text.MCAN_msgRAMConfig)
                  700098c8    00000008     --HOLE-- [fill = 0]
                  700098d0    00000294                                                       : ospi_v0_lld.obj (.text.OSPI_programInstance)
                  70009b64    0000000c     --HOLE-- [fill = 0]
                  70009b70    0000027e                                                       : uart_dma_edma.obj (.text.UART_edmaChInit)
                  70009dee    00000002     --HOLE-- [fill = 0]
                  70009df0    00000264                                                       : soc_rcm.obj (.text.SOC_rcmPerApllConfig)
                  7000a054    0000000c     --HOLE-- [fill = 0]
                  7000a060    00000250                                                       : edma.obj (.text.Alloc_resource)
                  7000a2b0    00000250     board.am263px.r5f.ti-arm-clang.nortos.debug.lib : flash_nor_ospi.obj (.text.Flash_set888mode)
                  7000a500    0000024a     drivers.am263px.r5f.ti-arm-clang.nortos.debug.lib : soc_rcm.obj (.text.SOC_rcmCoreApllHSDivConfig)
                  7000a74a    00000006     --HOLE-- [fill = 0]
                  7000a750    00000242                                                       : uart_v0_lld.obj (.text.UART_fifoConfig)
                  7000a992    0000000e     --HOLE-- [fill = 0]
                  7000a9a0    0000023e     nortos.am263px.r5f.ti-arm-clang.debug.lib : printf.obj (.text._ntoa_format)
                  7000abde    00000002     --HOLE-- [fill = 0]
                  7000abe0    0000023c     drivers.am263px.r5f.ti-arm-clang.nortos.debug.lib : edma.obj (.text.EDMA_open)
                  7000ae1c    00000004     --HOLE-- [fill = 0]
                  7000ae20    00000226                                                       : uart_dma_edma.obj (.text.UART_lld_dmaDeInit)
                  7000b046    0000000a     --HOLE-- [fill = 0]
                  7000b050    00000220                                                       : bootloader_profile.obj (.text.Bootloader_profilePrintProfileLog)
                  7000b270    00000218                                                       : ospi_v0_lld.obj (.text.OSPI_lld_isr)
                  7000b488    00000008     --HOLE-- [fill = 0]
                  7000b490    00000212                                                       : ospi_edma_lld.obj (.text.OSPI_edmaInit)
                  7000b6a2    0000000e     --HOLE-- [fill = 0]
                  7000b6b0    00000206     security.am263px.r5f.ti-arm-clang.nortos.debug.lib : sipc_notify_src.obj (.text.SIPC_init)
                  7000b8b6    0000000a     --HOLE-- [fill = 0]
                  7000b8c0    000001e8     drivers.am263px.r5f.ti-arm-clang.nortos.debug.lib : i2c_v1.obj (.text.I2C_transfer)
                  7000baa8    00000008     --HOLE-- [fill = 0]
                  7000bab0    000001d6     nortos.am263px.r5f.ti-arm-clang.debug.lib : TimerP_rti_priv.obj (.text.TimerP_setupPriv)
                  7000bc86    0000000a     --HOLE-- [fill = 0]
                  7000bc90    000001ca     drivers.am263px.r5f.ti-arm-clang.nortos.debug.lib : edma.obj (.text.EDMA_deinitialize)
                  7000be5a    00000006     --HOLE-- [fill = 0]
                  7000be60    000001ca                                                       : ospi_v0_lld.obj (.text.OSPI_lld_writeIndirect)
                  7000c02a    00000006     --HOLE-- [fill = 0]
                  7000c030    000001be     security.am263px.r5f.ti-arm-clang.nortos.debug.lib : sipc_notify_src.obj (.text.SIPC_setMboxConfig)
                  7000c1ee    00000002     --HOLE-- [fill = 0]
                  7000c1f0    000001b6     drivers.am263px.r5f.ti-arm-clang.nortos.debug.lib : ospi_v0_lld.obj (.text.OSPI_lld_readDirectDma)
                  7000c3a6    0000000a     --HOLE-- [fill = 0]
                  7000c3b0    000001aa                                                       : uart_dma_edma.obj (.text.UART_lld_dmaWrite)
                  7000c55a    00000006     --HOLE-- [fill = 0]
                  7000c560    000001a8                                                       : uart_v0.obj (.text.UART_close)
                  7000c708    000001a8     libc.a : memory.c.obj (.text.free)
                  7000c8b0    000001a4     middleware.am263px.r5f.ti-arm-clang.nortos.debug.lib : tielfup32.obj (.text.ELFUP_update)
                  7000ca54    000001a4     libc.a : memory.c.obj (.text.aligned_alloc)
                  7000cbf8    00000008     --HOLE-- [fill = 0]
                  7000cc00    000001a0     drivers.am263px.r5f.ti-arm-clang.nortos.debug.lib : edma.obj (.text.EDMA_errorIsrFxn)
                  7000cda0    0000019e                                                       : uart_v0.obj (.text.UART_write)
                  7000cf3e    00000002     --HOLE-- [fill = 0]
                  7000cf40    00000198                                                       : edma.obj (.text.EDMA_transferCompletionMasterIsrFxn)
                  7000d0d8    00000008     --HOLE-- [fill = 0]
                  7000d0e0    00000198                                                       : ospi_v0_lld.obj (.text.OSPI_lld_readCmd)
                  7000d278    00000008     --HOLE-- [fill = 0]
                  7000d280    00000198                                                       : uart_v0_lld.obj (.text.UART_lld_controllerIsr)
                  7000d418    00000008     --HOLE-- [fill = 0]
                  7000d420    00000194                                                       : bootloader_uniflash_mcelf.obj (.text.MCELF_flashVerifyXIPFile)
                  7000d5b4    0000000c     --HOLE-- [fill = 0]
                  7000d5c0    00000186                                                       : bootloader_uniflash_common.obj (.text.Bootloader_uniflashFlashFile)
                  7000d746    0000000a     --HOLE-- [fill = 0]
                  7000d750    00000186     security.am263px.r5f.ti-arm-clang.nortos.debug.lib : hsmclient_loadhsmrt.obj (.text.Hsmclient_loadHSMRtFirmware)
                  7000d8d6    0000000a     --HOLE-- [fill = 0]
                  7000d8e0    00000186     drivers.am263px.r5f.ti-arm-clang.nortos.debug.lib : mcan.obj (.text.MCAN_readMsg)
                  7000da66    0000000a     --HOLE-- [fill = 0]
                  7000da70    00000184     board.am263px.r5f.ti-arm-clang.nortos.debug.lib : flash_nor_ospi.obj (.text.Flash_set444mode)
                  7000dbf4    0000000c     --HOLE-- [fill = 0]
                  7000dc00    00000184     drivers.am263px.r5f.ti-arm-clang.nortos.debug.lib : mcan.obj (.text.MCAN_calcMsgRamParamsStartAddr)
                  7000dd84    0000000c     --HOLE-- [fill = 0]
                  7000dd90    00000182                                                       : bootloader_uniflash_common.obj (.text.Bootloader_uniflashFlashErase)
                  7000df12    0000000e     --HOLE-- [fill = 0]
                  7000df20    00000176                                                       : i2c_v1.obj (.text.I2C_primeTransfer)
                  7000e096    0000000a     --HOLE-- [fill = 0]
                  7000e0a0    0000016a     security.am263px.r5f.ti-arm-clang.nortos.debug.lib : hsmclient.obj (.text.HsmClient_isr)
                  7000e20a    00000006     --HOLE-- [fill = 0]
                  7000e210    00000166     drivers.am263px.r5f.ti-arm-clang.nortos.debug.lib : i2c_v1_lld.obj (.text.I2C_lld_primeTransferIntr)
                  7000e376    0000000a     --HOLE-- [fill = 0]
                  7000e380    00000166                                                       : ospi_v0_lld.obj (.text.OSPI_lld_writeCmd)
                  7000e4e6    0000000a     --HOLE-- [fill = 0]
                  7000e4f0    00000162                                                       : edma.obj (.text.EDMA_unregisterIntr)
                  7000e652    0000000e     --HOLE-- [fill = 0]
                  7000e660    00000160                                                       : i2c_v1_lld.obj (.text.I2C_lld_init)
                  7000e7c0    0000015c                                                       : bootloader_can.obj (.text.Bootloader_CANInit)
                  7000e91c    00000004     --HOLE-- [fill = 0]
                  7000e920    0000015a     security.am263px.r5f.ti-arm-clang.nortos.debug.lib : hsmclient.obj (.text.HsmClient_EnqueueAndSendMsg)
                  7000ea7a    00000006     --HOLE-- [fill = 0]
                  7000ea80    00000158     drivers.am263px.r5f.ti-arm-clang.nortos.debug.lib : soc.obj (.text.SOC_controlModuleUnlockMMR)
                  7000ebd8    00000008     --HOLE-- [fill = 0]
                  7000ebe0    00000152                                                       : uart_v0_lld.obj (.text.UART_lld_initDma)
                  7000ed32    0000000e     --HOLE-- [fill = 0]
                  7000ed40    00000150                                                       : mcan.obj (.text.MCAN_writeMsg)
                  7000ee90    0000014c                                                       : mcan.obj (.text.MCAN_setBitTime)
                  7000efdc    00000004     --HOLE-- [fill = 0]
                  7000efe0    00000148                                                       : ospi_v0_lld.obj (.text.OSPI_lld_initDma)
                  7000f128    00000008     --HOLE-- [fill = 0]
                  7000f130    00000144                                                       : bootloader_soc.obj (.text.Bootloader_socCpuPowerOnReset)
                  7000f274    0000000c     --HOLE-- [fill = 0]
                  7000f280    00000144     board.am263px.r5f.ti-arm-clang.nortos.debug.lib : flash_nor_ospi.obj (.text.Flash_norOspiSetProtocol)
                  7000f3c4    0000000c     --HOLE-- [fill = 0]
                  7000f3d0    00000144     security.am263px.r5f.ti-arm-clang.nortos.debug.lib : hsmclient.obj (.text.HsmClient_EnqueueAndSendMsgBlocking)
                  7000f514    00000144     libc.a : setvbuf.c.obj (.text.setvbuf)
                  7000f658    00000008     --HOLE-- [fill = 0]
                  7000f660    00000142     drivers.am263px.r5f.ti-arm-clang.nortos.debug.lib : ospi_v0_lld.obj (.text.OSPI_flashExecCmd)
                  7000f7a2    0000000e     --HOLE-- [fill = 0]
                  7000f7b0    00000140     board.am263px.r5f.ti-arm-clang.nortos.debug.lib : flash_nor_ospi.obj (.text.Flash_norOspiReadId)
                  7000f8f0    0000013a     drivers.am263px.r5f.ti-arm-clang.nortos.debug.lib : edma.obj (.text.EDMA_isDmaChannelAllocated)
                  7000fa2a    00000006     --HOLE-- [fill = 0]
                  7000fa30    0000013a     security.am263px.r5f.ti-arm-clang.nortos.debug.lib : hsmclient.obj (.text.HsmClient_procAuthBootStart)
                  7000fb6a    00000006     --HOLE-- [fill = 0]
                  7000fb70    0000013a     drivers.am263px.r5f.ti-arm-clang.nortos.debug.lib : i2c_v1_lld.obj (.text.I2C_lld_mem_write)
                  7000fcaa    00000006     --HOLE-- [fill = 0]
                  7000fcb0    00000138                                                       : mcan.obj (.text.MCAN_readMsgRam)
                  7000fde8    00000008     --HOLE-- [fill = 0]
                  7000fdf0    00000138     nortos.am263px.r5f.ti-arm-clang.debug.lib : printf.obj (.text._ntoa_long_long)
                  7000ff28    00000008     --HOLE-- [fill = 0]
                  7000ff30    00000136                                               : ClockP_nortos_r5.obj (.text.ClockP_init)
                  70010066    0000000a     --HOLE-- [fill = 0]
                  70010070    00000136     drivers.am263px.r5f.ti-arm-clang.nortos.debug.lib : uart_v0_lld.obj (.text.UART_procLineStatusErr)
                  700101a6    0000000a     --HOLE-- [fill = 0]
                  700101b0    00000134                                                       : edma.obj (.text.EDMA_registerIntr)
                  700102e4    0000000c     --HOLE-- [fill = 0]
                  700102f0    00000134                                                       : mcan.obj (.text.MCAN_init)
                  70010424    0000000c     --HOLE-- [fill = 0]
                  70010430    00000134                                                       : uart_v0_lld.obj (.text.UART_writePolling)
                  70010564    0000000c     --HOLE-- [fill = 0]
                  70010570    0000012e     board.am263px.r5f.ti-arm-clang.nortos.debug.lib : flash_nor_ospi.obj (.text.Flash_norOspiWaitReady)
                  7001069e    00000002     --HOLE-- [fill = 0]
                  700106a0    0000012c     drivers.am263px.r5f.ti-arm-clang.nortos.debug.lib : i2c_v1_lld.obj (.text.I2C_lld_mem_read)
                  700107cc    00000004     --HOLE-- [fill = 0]
                  700107d0    0000012c                                                       : uart_v0_lld.obj (.text.UART_lld_init)
                  700108fc    00000004     --HOLE-- [fill = 0]
                  70010900    0000012a                                                       : mcan.obj (.text.MCAN_config)
                  70010a2a    00000006     --HOLE-- [fill = 0]
                  70010a30    00000128                                                       : i2c_v1_lld.obj (.text.I2C_lld_mem_writeIntr)
                  70010b58    00000008     --HOLE-- [fill = 0]
                  70010b60    00000126     board.am263px.r5f.ti-arm-clang.nortos.debug.lib : flash_nor_ospi.obj (.text.Flash_norOspiWrite)
                  70010c86    0000000a     --HOLE-- [fill = 0]
                  70010c90    00000126     drivers.am263px.r5f.ti-arm-clang.nortos.debug.lib : soc.obj (.text.SOC_controlModuleLockMMR)
                  70010db6    0000000a     --HOLE-- [fill = 0]
                  70010dc0    00000122                                                       : i2c_v1.obj (.text.I2C_mem_primeTransfer)
                  70010ee2    0000000e     --HOLE-- [fill = 0]
                  70010ef0    00000120                                                       : soc_rcm.obj (.text.SOC_rcmGetPeripheralClockFrequency)
                  70011010    00000120     board.am263px.r5f.ti-arm-clang.nortos.debug.lib : ioexp_tca6416.obj (.text.TCA6416_setOutput)
                  70011130    0000011e                                                     : ioexp_tca6416.obj (.text.TCA6416_config)
                  7001124e    00000002     --HOLE-- [fill = 0]
                  70011250    0000011c                                                     : flash_nor_ospi.obj (.text.Flash_norOspiReset)
                  7001136c    00000004     --HOLE-- [fill = 0]
                  70011370    0000011c     drivers.am263px.r5f.ti-arm-clang.nortos.debug.lib : uart_dma_edma.obj (.text.UART_lld_dmaRead)
                  7001148c    00000004     --HOLE-- [fill = 0]
                  70011490    0000011a                                                       : i2c_v1_lld.obj (.text.I2C_lld_mem_readIntr)
                  700115aa    00000002     --HOLE-- [fill = 0]
                  700115ac    00000118     libclang_rt.builtins.a : udivmoddi4.S.obj (.text)
                  700116c4    0000000c     --HOLE-- [fill = 0]
                  700116d0    00000116     drivers.am263px.r5f.ti-arm-clang.nortos.debug.lib : edma.obj (.text.EDMA_isTccAllocated)
                  700117e6    0000000a     --HOLE-- [fill = 0]
                  700117f0    00000116                                                       : ospi_v0_lld.obj (.text.OSPI_lld_init)
                  70011906    0000000a     --HOLE-- [fill = 0]
                  70011910    00000116                                                       : uart_v0_lld.obj (.text.UART_divisorLatchWrite)
                  70011a26    0000000a     --HOLE-- [fill = 0]
                  70011a30    00000114     nortos.am263px.r5f.ti-arm-clang.debug.lib : printf.obj (.text._ntoa_long)
                  70011b44    0000000c     --HOLE-- [fill = 0]
                  70011b50    00000110     drivers.am263px.r5f.ti-arm-clang.nortos.debug.lib : bootloader_hsmRt_load.obj (.text.Bootloader_socLoadHsmRtFw)
                  70011c60    0000010e                                                       : soc_rcm.obj (.text.SOC_rcmADPLLJGetFOut)
                  70011d6e    00000002     --HOLE-- [fill = 0]
                  70011d70    0000010c     security.am263px.r5f.ti-arm-clang.nortos.debug.lib : hsmclient.obj (.text.HsmClient_procAuthBootFinish)
                  70011e7c    00000004     --HOLE-- [fill = 0]
                  70011e80    0000010a     drivers.am263px.r5f.ti-arm-clang.nortos.debug.lib : bootloader.obj (.text.Bootloader_getMsgLen)
                  70011f8a    00000006     --HOLE-- [fill = 0]
                  70011f90    00000108                                                       : bootloader.obj (.text.Bootloader_parseNoteSegment)
                  70012098    00000008     --HOLE-- [fill = 0]
                  700120a0    00000104                                                       : soc_rcm.obj (.text.SOC_rcmConfigurePllPer)
                  700121a4    0000000c     --HOLE-- [fill = 0]
                  700121b0    00000104                                                       : uart_v0_lld.obj (.text.UART_configInstance)
                  700122b4    0000000c     --HOLE-- [fill = 0]
                  700122c0    00000102                                                       : i2c_v1.obj (.text.I2C_close)
                  700123c2    0000000e     --HOLE-- [fill = 0]
                  700123d0    00000102     nortos.am263px.r5f.ti-arm-clang.debug.lib : SemaphoreP_nortos.obj (.text.SemaphoreP_pend)
                  700124d2    0000000e     --HOLE-- [fill = 0]
                  700124e0    00000100     board.am263px.r5f.ti-arm-clang.nortos.debug.lib : flash_nor_ospi.obj (.text.Flash_norOspiErase)
                  700125e0    00000100                                                     : flash_nor_ospi.obj (.text.Flash_norOspiEraseSector)
                  700126e0    00000100     drivers.am263px.r5f.ti-arm-clang.nortos.debug.lib : ospi_v0_lld.obj (.text.OSPI_lld_setProtocol)
                  700127e0    000000fe                                                       : bootloader_uniflash_common.obj (.text.Bootloader_uniflashFlashFileSector)
                  700128de    00000002     --HOLE-- [fill = 0]
                  700128e0    000000fe     security.am263px.r5f.ti-arm-clang.nortos.debug.lib : hsmclient.obj (.text.HsmClient_procAuthBootUpdate)
                  700129de    00000002     --HOLE-- [fill = 0]
                  700129e0    000000fa     drivers.am263px.r5f.ti-arm-clang.nortos.debug.lib : edma.obj (.text.EDMA_clearCcErrors)
                  70012ada    00000006     --HOLE-- [fill = 0]
                  70012ae0    000000fa                                                       : soc_rcm.obj (.text.SOC_rcmsetR5SysClock)
                  70012bda    00000006     --HOLE-- [fill = 0]
                  70012be0    000000f8                                                       : soc_rcm.obj (.text.SOC_rcmCoreApllConfig)
                  70012cd8    00000008     --HOLE-- [fill = 0]
                  70012ce0    000000f6     security.am263px.r5f.ti-arm-clang.nortos.debug.lib : sipc_notify_src.obj (.text.SIPC_isr)
                  70012dd6    0000000a     --HOLE-- [fill = 0]
                  70012de0    000000f2     drivers.am263px.r5f.ti-arm-clang.nortos.debug.lib : soc_rcm.obj (.text.SOC_rcmConfigurePllCore)
                  70012ed2    00000002     --HOLE-- [fill = 0]
                  70012ed4    000000f0     libc.a : fputc.c.obj (.text.fputc)
                  70012fc4    0000000c     --HOLE-- [fill = 0]
                  70012fd0    000000ee     board.am263px.r5f.ti-arm-clang.nortos.debug.lib : flash_nor_ospi.obj (.text.Flash_norOspiSet4ByteAddrMode)
                  700130be    00000002     --HOLE-- [fill = 0]
                  700130c0    000000ee     drivers.am263px.r5f.ti-arm-clang.nortos.debug.lib : soc_rcm.obj (.text.SOC_rcmMemInitL2Memory)
                  700131ae    00000002     --HOLE-- [fill = 0]
                  700131b0    000000e6                                                       : ospi_edma_lld.obj (.text.OSPI_edmaDeInit)
                  70013296    0000000a     --HOLE-- [fill = 0]
                  700132a0    000000e6                                                       : soc_rcm.obj (.text.SOC_rcmGetCoreFout)
                  70013386    0000000a     --HOLE-- [fill = 0]
                  70013390    000000e6                                                       : soc_rcm.obj (.text.SOC_rcmGetPerFout)
                  70013476    0000000a     --HOLE-- [fill = 0]
                  70013480    000000e4                                                       : bootloader_can.obj (.text.Bootloader_CANTransmitResp)
                  70013564    0000000c     --HOLE-- [fill = 0]
                  70013570    000000e4                                                       : edma.obj (.text.EDMA_freeChannelRegion)
                  70013654    0000000c     --HOLE-- [fill = 0]
                  70013660    000000e2                                                       : bootloader_uniflash_common.obj (.text.Bootloader_uniflashFlashVerifyFile)
                  70013742    0000000e     --HOLE-- [fill = 0]
                  70013750    000000e2                                                       : edma.obj (.text.EDMA_freeParam)
                  70013832    0000000e     --HOLE-- [fill = 0]
                  70013840    000000e0                                                       : edma.obj (.text.EDMA_freeDmaChannel)
                  70013920    000000e0                                                       : edma.obj (.text.EDMA_freeTcc)
                  70013a00    000000de                                                       : uart_v0_lld.obj (.text.UART_intrEnable)
                  70013ade    00000002     --HOLE-- [fill = 0]
                  70013ae0    000000dc                                                       : bootloader_uniflash_rprc.obj (.text.Bootloader_uniflashFlashOrVerifyXipFile)
                  70013bbc    00000004     --HOLE-- [fill = 0]
                  70013bc0    000000da                                                       : uart_v0_lld.obj (.text.UART_intrDisable)
                  70013c9a    00000006     --HOLE-- [fill = 0]
                  70013ca0    000000d8     board.am263px.r5f.ti-arm-clang.nortos.debug.lib : flash_nor_ospi.obj (.text.Flash_norOspiSetRegCfg)
                  70013d78    00000008     --HOLE-- [fill = 0]
                  70013d80    000000d8     drivers.am263px.r5f.ti-arm-clang.nortos.debug.lib : i2c_v1.obj (.text.I2C_LLD_targetTransferCompleteCallback)
                  70013e58    00000008     --HOLE-- [fill = 0]
                  70013e60    000000d6     board.am263px.r5f.ti-arm-clang.nortos.debug.lib : flash_nor_ospi.obj (.text.Flash_setOeBit)
                  70013f36    0000000a     --HOLE-- [fill = 0]
                  70013f40    000000d2     drivers.am263px.r5f.ti-arm-clang.nortos.debug.lib : uart_v0_lld.obj (.text.UART_lld_write)
                  70014012    0000000e     --HOLE-- [fill = 0]
                  70014020    000000d0     nortos.am263px.r5f.ti-arm-clang.debug.lib : AddrTranslateP_32bit.obj (.text.AddrTranslateP_getLocalAddr)
                  700140f0    000000d0     security.am263px.r5f.ti-arm-clang.nortos.debug.lib : sipc_notify_src.obj (.text.SIPC_sendMsg)
                  700141c0    000000d0     drivers.am263px.r5f.ti-arm-clang.nortos.debug.lib : soc_rcm.obj (.text.SOC_rcmStartMemInitTCMA)
                  70014290    000000d0                                                       : soc_rcm.obj (.text.SOC_rcmStartMemInitTCMB)
                  70014360    000000d0                                                       : soc_rcm.obj (.text.SOC_rcmWaitMemInitTCMA)
                  70014430    000000d0                                                       : soc_rcm.obj (.text.SOC_rcmWaitMemInitTCMB)
                  70014500    000000ce                                                       : edma.obj (.text.EDMA_disableChInShadowRegRegion)
                  700145ce    00000002     --HOLE-- [fill = 0]
                  700145d0    000000ce                                                       : uart_v0_lld.obj (.text.UART_lld_writeDma)
                  7001469e    00000002     --HOLE-- [fill = 0]
                  700146a0    000000cc                                                       : edma.obj (.text.EDMA_enableChInShadowRegRegion)
                  7001476c    00000004     --HOLE-- [fill = 0]
                  70014770    000000ca     security.am263px.r5f.ti-arm-clang.nortos.debug.lib : hsmclient.obj (.text.HsmClient_checkAndWaitForBootNotification)
                  7001483a    00000002     --HOLE-- [fill = 0]
                  7001483c    000000c8     libc.a : getdevice.c.obj (.text.getdevice)
                  70014904    0000000c     --HOLE-- [fill = 0]
                  70014910    000000c6     drivers.am263px.r5f.ti-arm-clang.nortos.debug.lib : uart_v0_lld.obj (.text.UART_lld_writeIntr)
                  700149d6    0000000a     --HOLE-- [fill = 0]
                  700149e0    000000c4                                                       : edma.obj (.text.EDMA_mapChToEvtQ)
                  70014aa4    0000000c     --HOLE-- [fill = 0]
                  70014ab0    000000c4                                                       : ospi_phy_am26x_lld.obj (.text.OSPI_lld_phyResyncDLL)
                  70014b74    0000000c     --HOLE-- [fill = 0]
                  70014b80    000000c2                                                       : edma.obj (.text.EDMA_close)
                  70014c42    0000000e     --HOLE-- [fill = 0]
                  70014c50    000000c2     board.am263px.r5f.ti-arm-clang.nortos.debug.lib : flash.obj (.text.Flash_offsetToSectorPage)
                  70014d12    0000000e     --HOLE-- [fill = 0]
                  70014d20    000000c0     drivers.am263px.r5f.ti-arm-clang.nortos.debug.lib : edma.obj (.text.EDMA_configureChannelRegion)
                  70014de0    000000c0     board.am263px.r5f.ti-arm-clang.nortos.debug.lib : flash.obj (.text.Flash_offsetToBlkPage)
                  70014ea0    000000c0     drivers.am263px.r5f.ti-arm-clang.nortos.debug.lib : soc_rcm.obj (.text.SOC_rcmGetPerHSDivOut)
                  70014f60    000000c0                                                       : uart_v0.obj (.text.UART_flushTxFifo)
                  70015020    000000c0     nortos.am263px.r5f.ti-arm-clang.debug.lib : printf.obj (.text._out_rev)
                  700150e0    000000c0     board.obj (.text.mcanEnableTransceiver)
                  700151a0    000000be     ti_board_open_close.obj (.text.Board_flashOpen)
                  7001525e    00000002     --HOLE-- [fill = 0]
                  70015260    000000be     nortos.am263px.r5f.ti-arm-clang.debug.lib : ClockP_nortos.obj (.text.ClockP_timerTickIsr)
                  7001531e    00000002     --HOLE-- [fill = 0]
                  70015320    000000be     drivers.am263px.r5f.ti-arm-clang.nortos.debug.lib : ospi_v0.obj (.text.OSPI_readDirect)
                  700153de    00000002     --HOLE-- [fill = 0]
                  700153e0    000000ba     nortos.am263px.r5f.ti-arm-clang.debug.lib : ClockP_nortos.obj (.text.ClockP_stop)
                  7001549a    00000006     --HOLE-- [fill = 0]
                  700154a0    000000ba                                               : PmuP_armv7r.obj (.text.pmu)
                  7001555a    00000006     --HOLE-- [fill = 0]
                  70015560    000000b6     drivers.am263px.r5f.ti-arm-clang.nortos.debug.lib : bootloader_uniflash_rprc.obj (.text.Bootloader_uniflashFlashOrVerifyRprcXipFile)
                  70015616    0000000a     --HOLE-- [fill = 0]
                  70015620    000000b6                                                       : uart_v0_lld.obj (.text.UART_fifoWrite)
                  700156d6    00000002     --HOLE-- [fill = 0]
                  700156d8    000000b4     libc.a : fseek.c.obj (.text.fseeko)
                  7001578c    00000004     --HOLE-- [fill = 0]
                  70015790    000000b2     drivers.am263px.r5f.ti-arm-clang.nortos.debug.lib : soc_rcm.obj (.text.SOC_rcmProgPllCoreDivider)
                  70015842    0000000e     --HOLE-- [fill = 0]
                  70015850    000000b2                                                       : soc_rcm.obj (.text.SOC_rcmR5ConfigDualCore)
                  70015902    0000000e     --HOLE-- [fill = 0]
                  70015910    000000b0                                                       : mcan.obj (.text.MCAN_writeMsgRam)
                  700159c0    000000b0                                                       : soc_rcm.obj (.text.SOC_rcmSetPeripheralClock)
                  70015a70    000000b0                                                       : uart_v0.obj (.text.UART_init)
                  70015b20    000000b0     libc.a : fclose.c.obj (.text.__TI_closefile)
                  70015bd0    000000ae     drivers.am263px.r5f.ti-arm-clang.nortos.debug.lib : mcan.obj (.text.MCAN_getOffsetAddr)
                  70015c7e    00000002     --HOLE-- [fill = 0]
                  70015c80    000000ae     security.am263px.r5f.ti-arm-clang.nortos.debug.lib : sipc_notify_src.obj (.text.SIPC_mailboxWrite)
                  70015d2e    00000002     --HOLE-- [fill = 0]
                  70015d30    000000ac     ti_drivers_config.obj (.text.HsmClient_config)
                  70015ddc    00000004     --HOLE-- [fill = 0]
                  70015de0    000000ac     drivers.am263px.r5f.ti-arm-clang.nortos.debug.lib : mcan.obj (.text.MCAN_writeRxFIFOAck)
                  70015e8c    00000004     --HOLE-- [fill = 0]
                  70015e90    000000aa     ti_drivers_open_close.obj (.text.Drivers_uartOpen)
                  70015f3a    00000006     --HOLE-- [fill = 0]
                  70015f40    000000a8     nortos.am263px.r5f.ti-arm-clang.debug.lib : ClockP_nortos.obj (.text.ClockP_addToList)
                  70015fe8    00000008     --HOLE-- [fill = 0]
                  70015ff0    000000a8                                               : ClockP_nortos.obj (.text.ClockP_destruct)
                  70016098    00000008     --HOLE-- [fill = 0]
                  700160a0    000000a8     ti_drivers_open_close.obj (.text.Drivers_i2cOpen)
                  70016148    00000008     --HOLE-- [fill = 0]
                  70016150    000000a6     ti_drivers_open_close.obj (.text.Drivers_edmaOpen)
                  700161f6    0000000a     --HOLE-- [fill = 0]
                  70016200    000000a6     ti_drivers_open_close.obj (.text.Drivers_ospiOpen)
                  700162a6    0000000a     --HOLE-- [fill = 0]
                  700162b0    000000a4     drivers.am263px.r5f.ti-arm-clang.nortos.debug.lib : mcan.obj (.text.MCAN_getRxFIFOStatus)
                  70016354    000000a4     libc.a : memory.c.obj (.text.split)
                  700163f8    000000a0     libsysbm.a : hostrename.c.obj (.text.HOSTrename)
                  70016498    00000008     --HOLE-- [fill = 0]
                  700164a0    000000a0     drivers.am263px.r5f.ti-arm-clang.nortos.debug.lib : ospi_v0_lld.obj (.text.OSPI_lld_deInitDma)
                  70016540    000000a0                                                       : ospi_v0_lld.obj (.text.OSPI_lld_setXferOpCodes)
                  700165e0    000000a0                                                       : soc_rcm.obj (.text.SOC_rcmGetCoreHSDivOut)
                  70016680    000000a0                                                       : soc_rcm.obj (.text.SOC_rcmProgPllPerDivider)
                  70016720    0000009e     board.am263px.r5f.ti-arm-clang.nortos.debug.lib : flash_nor_ospi.obj (.text.Flash_norOspiSetModeDummy)
                  700167be    00000002     --HOLE-- [fill = 0]
                  700167c0    0000009e     drivers.am263px.r5f.ti-arm-clang.nortos.debug.lib : ospi_v0_lld.obj (.text.OSPI_isProtocolValid)
                  7001685e    00000002     --HOLE-- [fill = 0]
                  70016860    0000009e                                                       : ospi_phy_am26x_lld.obj (.text.OSPI_lld_phyBasicConfig)
                  700168fe    00000002     --HOLE-- [fill = 0]
                  70016900    0000009c     libc.a : _io_perm.c.obj (.text.__TI_wrt_ok)
                  7001699c    00000004     --HOLE-- [fill = 0]
                  700169a0    0000009a     drivers.am263px.r5f.ti-arm-clang.nortos.debug.lib : bootloader_soc.obj (.text.Bootloader_socTranslateSectionAddr)
                  70016a3a    00000002     --HOLE-- [fill = 0]
                  70016a3c    00000098     libsysbm.a : hostlseek.c.obj (.text.HOSTlseek)
                  70016ad4    0000000c     --HOLE-- [fill = 0]
                  70016ae0    00000098     security.am263px.r5f.ti-arm-clang.nortos.debug.lib : sipc_notify_src.obj (.text.SIPC_getWriteMailbox)
                  70016b78    00000008     --HOLE-- [fill = 0]
                  70016b80    00000096     drivers.am263px.r5f.ti-arm-clang.nortos.debug.lib : bootloader.obj (.text.Bootloader_runCpu)
                  70016c16    0000000a     --HOLE-- [fill = 0]
                  70016c20    00000096                                                       : soc_rcm.obj (.text.SOC_rcmGetADPLLJConfig)
                  70016cb6    0000000a     --HOLE-- [fill = 0]
                  70016cc0    00000096                                                       : uart_v0_lld.obj (.text.UART_subConfigTCRTLRModeEn)
                  70016d56    0000000a     --HOLE-- [fill = 0]
                  70016d60    00000094                                                       : soc_rcm.obj (.text.CSL_TopCtrl_dualCoreSwitchDisableEfuse)
                  70016df4    00000094     libsysbm.a : hostopen.c.obj (.text.HOSTopen)
                  70016e88    00000008     --HOLE-- [fill = 0]
                  70016e90    00000094     drivers.am263px.r5f.ti-arm-clang.nortos.debug.lib : ospi_v0.obj (.text.OSPI_init)
                  70016f24    0000000c     --HOLE-- [fill = 0]
                  70016f30    00000094     security.am263px.r5f.ti-arm-clang.nortos.debug.lib : sipc_notify_src.obj (.text.SIPC_mailboxRead)
                  70016fc4    0000000c     --HOLE-- [fill = 0]
                  70016fd0    00000092     drivers.am263px.r5f.ti-arm-clang.nortos.debug.lib : bootloader_soc.obj (.text.Bootloader_socMemInitCpu)
                  70017062    0000000e     --HOLE-- [fill = 0]
                  70017070    00000092     nortos.am263px.r5f.ti-arm-clang.debug.lib : ClockP_nortos.obj (.text.ClockP_getTimeUsec)
                  70017102    0000000e     --HOLE-- [fill = 0]
                  70017110    00000092     drivers.am263px.r5f.ti-arm-clang.nortos.debug.lib : edma.obj (.text.EDMA_unmapChToEvtQ)
                  700171a2    0000000e     --HOLE-- [fill = 0]
                  700171b0    00000092                                                       : i2c_v1_lld.obj (.text.I2CControllerInitExpClk)
                  70017242    0000000e     --HOLE-- [fill = 0]
                  70017250    00000092                                                       : ospi_v0_lld.obj (.text.OSPI_lld_deInit)
                  700172e2    0000000e     --HOLE-- [fill = 0]
                  700172f0    00000090     security.am263px.r5f.ti-arm-clang.nortos.debug.lib : hsmclient.obj (.text.HsmClient_register)
                  70017380    00000090     drivers.am263px.r5f.ti-arm-clang.nortos.debug.lib : ospi_phy_am26x_lld.obj (.text.OSPI_lld_phyReadAttackVector)
                  70017410    0000008e                                                       : mcan.obj (.text.MCAN_addExtMsgIDFilter)
                  7001749e    00000002     --HOLE-- [fill = 0]
                  700174a0    0000008c                                                       : bootloader_soc.obj (.text.Bootloader_socSetAutoClock)
                  7001752c    00000004     --HOLE-- [fill = 0]
                  70017530    0000008c                                                       : edma.obj (.text.EDMA_disableTransferRegion)
                  700175bc    00000004     --HOLE-- [fill = 0]
                  700175c0    0000008c                                                       : edma.obj (.text.EDMA_enableTransferRegion)
                  7001764c    00000004     --HOLE-- [fill = 0]
                  70017650    0000008c                                                       : edma.obj (.text.EDMA_init)
                  700176dc    00000004     --HOLE-- [fill = 0]
                  700176e0    0000008c     board.am263px.r5f.ti-arm-clang.nortos.debug.lib : flash_nor_ospi.obj (.text.Flash_norOspiSetAddressBytes)
                  7001776c    00000004     --HOLE-- [fill = 0]
                  70017770    0000008c     drivers.am263px.r5f.ti-arm-clang.nortos.debug.lib : uart_v0_lld.obj (.text.UART_writeCancelNoCB)
                  700177fc    0000008c     libsysbm.a : close.c.obj (.text.close)
                  70017888    00000008     --HOLE-- [fill = 0]
                  70017890    0000008a     drivers.am263px.r5f.ti-arm-clang.nortos.debug.lib : bootloader.obj (.text.Bootloader_verifySegmentAddr)
                  7001791a    00000006     --HOLE-- [fill = 0]
                  70017920    00000088                                                       : mcan.obj (.text.MCAN_getProtocolStatus)
                  700179a8    00000008     --HOLE-- [fill = 0]
                  700179b0    00000088                                                       : uart_dma_edma.obj (.text.UART_edmaIsrRx)
                  70017a38    00000008     --HOLE-- [fill = 0]
                  70017a40    00000088                                                       : uart_dma_edma.obj (.text.UART_edmaIsrTx)
                  70017ac8    00000088     libc.a : fflush.c.obj (.text.__TI_doflush)
                  70017b50    00000086     board.am263px.r5f.ti-arm-clang.nortos.debug.lib : flash_nor_ospi.obj (.text.Flash_norOspiRead)
                  70017bd6    0000000a     --HOLE-- [fill = 0]
                  70017be0    00000086     drivers.am263px.r5f.ti-arm-clang.nortos.debug.lib : ospi_phy_am26x_lld.obj (.text.OSPI_lld_phyFindRxHigh)
                  70017c66    0000000a     --HOLE-- [fill = 0]
                  70017c70    00000086                                                       : ospi_phy_am26x_lld.obj (.text.OSPI_lld_phyFindRxLow)
                  70017cf6    0000000a     --HOLE-- [fill = 0]
                  70017d00    00000086                                                       : ospi_phy_am26x_lld.obj (.text.OSPI_lld_phyFindTxHigh)
                  70017d86    0000000a     --HOLE-- [fill = 0]
                  70017d90    00000086                                                       : ospi_phy_am26x_lld.obj (.text.OSPI_lld_phyFindTxLow)
                  70017e16    0000000a     --HOLE-- [fill = 0]
                  70017e20    00000086     security.am263px.r5f.ti-arm-clang.nortos.debug.lib : sipc_notify_src.obj (.text.SIPC_getReadSwQ)
                  70017ea6    0000000a     --HOLE-- [fill = 0]
                  70017eb0    00000086     drivers.am263px.r5f.ti-arm-clang.nortos.debug.lib : uart_v0_lld.obj (.text.UART_lld_flushTxFifo)
                  70017f36    0000000a     --HOLE-- [fill = 0]
                  70017f40    00000086                                                       : uart_v0_lld.obj (.text.UART_tcrTlrBitValRestore)
                  70017fc6    0000000a     --HOLE-- [fill = 0]
                  70017fd0    00000084     board.am263px.r5f.ti-arm-clang.nortos.debug.lib : flash_nor_ospi.obj (.text.Flash_norOspiRegWrite)
                  70018054    00000084     libsysbm.a : hostread.c.obj (.text.HOSTread)
                  700180d8    00000084                : hostwrite.c.obj (.text.HOSTwrite)
                  7001815c    00000004     --HOLE-- [fill = 0]
                  70018160    00000084     drivers.am263px.r5f.ti-arm-clang.nortos.debug.lib : ospi_phy_am26x_lld.obj (.text.OSPI_lld_phySetRdDelayTxRxDLL)
                  700181e4    0000000c     --HOLE-- [fill = 0]
                  700181f0    00000082                                                       : edma.obj (.text.EDMA_allocDmaChannel)
                  70018272    0000000e     --HOLE-- [fill = 0]
                  70018280    00000082                                                       : edma.obj (.text.EDMA_allocParam)
                  70018302    0000000e     --HOLE-- [fill = 0]
                  70018310    00000082                                                       : edma.obj (.text.EDMA_allocTcc)
                  70018392    0000000e     --HOLE-- [fill = 0]
                  700183a0    00000082                                                       : edma.obj (.text.EDMA_disableTccInShadowRegRegion)
                  70018422    0000000e     --HOLE-- [fill = 0]
                  70018430    00000082                                                       : edma.obj (.text.EDMA_enableTccInShadowRegRegion)
                  700184b2    0000000e     --HOLE-- [fill = 0]
                  700184c0    00000080                                                       : bootloader_soc.obj (.text.Bootloader_socCpuGetClock)
                  70018540    00000080     board.am263px.r5f.ti-arm-clang.nortos.debug.lib : flash_nor_ospi.obj (.text.Flash_norOspiRegRead)
                  700185c0    00000080     drivers.am263px.r5f.ti-arm-clang.nortos.debug.lib : uart_v0_lld.obj (.text.UART_moduleReset)
                  70018640    0000007e                                                       : bootloader.obj (.text.Bootloader_findSeq)
                  700186be    00000002     --HOLE-- [fill = 0]
                  700186c0    0000007e                                                       : i2c_v1_lld.obj (.text.I2C_lld_transferInit)
                  7001873e    00000002     --HOLE-- [fill = 0]
                  70018740    0000007e                                                       : uart_v0_lld.obj (.text.UART_readData)
                  700187be    00000002     --HOLE-- [fill = 0]
                  700187c0    0000007c     board.am263px.r5f.ti-arm-clang.nortos.debug.lib : ioexp_tca6416.obj (.text.TCA6416_open)
                  7001883c    00000004     --HOLE-- [fill = 0]
                  70018840    0000007c     nortos.am263px.r5f.ti-arm-clang.debug.lib : DebugP_log.obj (.text._DebugP_assert)
                  700188bc    00000004     --HOLE-- [fill = 0]
                  700188c0    0000007a     drivers.am263px.r5f.ti-arm-clang.nortos.debug.lib : soc_rcm.obj (.text.CSL_TopCtrl_dualCoreBootEnableEfuse)
                  7001893a    00000006     --HOLE-- [fill = 0]
                  70018940    0000007a                                                       : ospi_v0_lld.obj (.text.OSPI_lld_enablePhy)
                  700189ba    00000006     --HOLE-- [fill = 0]
                  700189c0    0000007a                                                       : uart_v0.obj (.text.UART_Params_init)
                  70018a3a    00000006     --HOLE-- [fill = 0]
                  70018a40    00000078                                                       : edma.obj (.text.EDMA_linkChannel)
                  70018ab8    00000008     --HOLE-- [fill = 0]
                  70018ac0    00000078                                                       : i2c_v1_lld.obj (.text.I2C_lld_completeCurrTransfer)
                  70018b38    00000008     --HOLE-- [fill = 0]
                  70018b40    00000078                                                       : ospi_v0_lld.obj (.text.OSPI_waitIndWriteComplete)
                  70018bb8    00000008     --HOLE-- [fill = 0]
                  70018bc0    00000078                                                       : soc_rcm.obj (.text.SOC_rcmR5ConfigLockStep)
                  70018c38    00000008     --HOLE-- [fill = 0]
                  70018c40    00000076                                                       : mcan.obj (.text.MCAN_initMsgRamConfigParams)
                  70018cb6    0000000a     --HOLE-- [fill = 0]
                  70018cc0    00000076                                                       : ospi_v0_lld.obj (.text.OSPI_isDmaRestrictedRegion)
                  70018d36    0000000a     --HOLE-- [fill = 0]
                  70018d40    00000074                                                       : bootloader_uniflash_common.obj (.text.Bootloader_uniflashFlashPhyTuningData)
                  70018db4    0000000c     --HOLE-- [fill = 0]
                  70018dc0    00000074                                                       : ospi_v0.obj (.text.OSPI_writeIndirect)
                  70018e34    0000000c     --HOLE-- [fill = 0]
                  70018e40    00000074                                                       : uart_v0_lld.obj (.text.UART_IsBaseAddrValid)
                  70018eb4    0000000c     --HOLE-- [fill = 0]
                  70018ec0    00000072                                                       : bootloader_soc.obj (.text.Bootloader_authUpdate)
                  70018f32    0000000e     --HOLE-- [fill = 0]
                  70018f40    00000072     nortos.am263px.r5f.ti-arm-clang.debug.lib : ClockP_nortos.obj (.text.ClockP_usleep)
                  70018fb2    0000000e     --HOLE-- [fill = 0]
                  70018fc0    00000072     drivers.am263px.r5f.ti-arm-clang.nortos.debug.lib : edma.obj (.text.EDMA_clrMissEvtRegion)
                  70019032    0000000e     --HOLE-- [fill = 0]
                  70019040    00000072                                                       : edma.obj (.text.EDMA_getTcErrorInfo)
                  700190b2    0000000e     --HOLE-- [fill = 0]
                  700190c0    00000072                                                       : bootloader_flash.obj (.text.Flash_imgRead)
                  70019132    0000000e     --HOLE-- [fill = 0]
                  70019140    00000072                                                       : ospi_lld_dma.obj (.text.OSPI_dmaOpen)
                  700191b2    0000000e     --HOLE-- [fill = 0]
                  700191c0    00000072                                                       : soc_rcm.obj (.text.SOC_rcmCoreR5FUnhalt)
                  70019232    0000000e     --HOLE-- [fill = 0]
                  70019240    00000070                                                       : ospi_v0_lld.obj (.text.OSPI_waitIdle)
                  700192b0    0000006e                                                       : bootloader.obj (.text.Bootloader_getX509CertLen)
                  7001931e    00000002     --HOLE-- [fill = 0]
                  70019320    0000006e                                                       : bootloader.obj (.text.Bootloader_open)
                  7001938e    00000002     --HOLE-- [fill = 0]
                  70019390    0000006e                                                       : ospi_v0_lld.obj (.text.OSPI_lld_disablePhy)
                  700193fe    00000002     --HOLE-- [fill = 0]
                  70019400    0000006e                                                       : ospi_v0_lld.obj (.text.OSPI_lld_readDirect)
                  7001946e    00000002     --HOLE-- [fill = 0]
                  70019470    0000006c                                                       : bootloader_soc.obj (.text.Bootloader_authStart)
                  700194dc    00000004     --HOLE-- [fill = 0]
                  700194e0    0000006c                                                       : edma.obj (.text.EDMA_deinit)
                  7001954c    0000006c     libsysbm.a : hostunlink.c.obj (.text.HOSTunlink)
                  700195b8    00000008     --HOLE-- [fill = 0]
                  700195c0    0000006c     drivers.am263px.r5f.ti-arm-clang.nortos.debug.lib : ospi_v0.obj (.text.OSPI_close)
                  7001962c    00000004     --HOLE-- [fill = 0]
                  70019630    0000006c     security.am263px.r5f.ti-arm-clang.nortos.debug.lib : sipc_notify_src.obj (.text.SIPC_getReadMailbox)
                  7001969c    00000004     --HOLE-- [fill = 0]
                  700196a0    0000006c                                                        : sipc_notify_src.obj (.text.SIPC_getReadMailboxClear)
                  7001970c    00000004     --HOLE-- [fill = 0]
                  70019710    0000006c                                                        : sipc_notify_src.obj (.text.SIPC_registerClient)
                  7001977c    00000004     --HOLE-- [fill = 0]
                  70019780    0000006a     board.am263px.r5f.ti-arm-clang.nortos.debug.lib : flash_nor_ospi.obj (.text.Flash_quirkSpansionUNHYSADisable)
                  700197ea    00000006     --HOLE-- [fill = 0]
                  700197f0    00000068     drivers.am263px.r5f.ti-arm-clang.nortos.debug.lib : edma.obj (.text.EDMA_getBaseAddr)
                  70019858    00000008     --HOLE-- [fill = 0]
                  70019860    00000068     board.am263px.r5f.ti-arm-clang.nortos.debug.lib : flash_nor_ospi.obj (.text.Flash_norOspiCmdRead)
                  700198c8    00000008     --HOLE-- [fill = 0]
                  700198d0    00000068     drivers.am263px.r5f.ti-arm-clang.nortos.debug.lib : ospi_v0_lld.obj (.text.OSPI_waitWriteSRAMLevel)
                  70019938    00000008     --HOLE-- [fill = 0]
                  70019940    00000068                                                       : uart_v0_lld.obj (.text.UART_divisorValCompute)
                  700199a8    00000008     --HOLE-- [fill = 0]
                  700199b0    00000066     board.am263px.r5f.ti-arm-clang.nortos.debug.lib : flash.obj (.text.Flash_open)
                  70019a16    0000000a     --HOLE-- [fill = 0]
                  70019a20    00000066     drivers.am263px.r5f.ti-arm-clang.nortos.debug.lib : i2c_v1.obj (.text.I2C_init)
                  70019a86    0000000a     --HOLE-- [fill = 0]
                  70019a90    00000066                                                       : soc_rcm.obj (.text.SOC_rcmR5SS0PowerOnReset)
                  70019af6    0000000a     --HOLE-- [fill = 0]
                  70019b00    00000066                                                       : soc_rcm.obj (.text.SOC_rcmR5SS1PowerOnReset)
                  70019b66    0000000a     --HOLE-- [fill = 0]
                  70019b70    00000066     security.am263px.r5f.ti-arm-clang.nortos.debug.lib : hsmclient.obj (.text.crc16_ccit)
                  70019bd6    0000000a     --HOLE-- [fill = 0]
                  70019be0    00000064     drivers.am263px.r5f.ti-arm-clang.nortos.debug.lib : i2c_v1.obj (.text.I2C_completeCurrTransfer)
                  70019c44    0000000c     --HOLE-- [fill = 0]
                  70019c50    00000064                                                       : soc_rcm.obj (.text.SOC_rcmGetR5Clock)
                  70019cb4    0000000c     --HOLE-- [fill = 0]
                  70019cc0    00000064                                                       : soc_rcm.obj (.text.SOC_rcmIsR5FInLockStepMode)
                  70019d24    0000000c     --HOLE-- [fill = 0]
                  70019d30    00000064                                                       : uart_v0_lld.obj (.text.UART_fifoRegisterWrite)
                  70019d94    0000000c     --HOLE-- [fill = 0]
                  70019da0    00000064                                                       : uart_v0_lld.obj (.text.UART_lld_deInitDma)
                  70019e04    0000000c     --HOLE-- [fill = 0]
                  70019e10    00000062                                                       : mcan.obj (.text.MCAN_getErrCounters)
                  70019e72    0000000e     --HOLE-- [fill = 0]
                  70019e80    00000062                                                       : mcan.obj (.text.MCAN_initTxBufElement)
                  70019ee2    0000000e     --HOLE-- [fill = 0]
                  70019ef0    00000062                                                       : soc_rcm.obj (.text.SOC_rcmInsert16)
                  70019f52    0000000e     --HOLE-- [fill = 0]
                  70019f60    00000062                                                       : soc_rcm.obj (.text.SOC_rcmInsert8)
                  70019fc2    0000000e     --HOLE-- [fill = 0]
                  70019fd0    00000062     nortos.am263px.r5f.ti-arm-clang.debug.lib : SemaphoreP_nortos.obj (.text.SemaphoreP_post)
                  7001a032    0000000e     --HOLE-- [fill = 0]
                  7001a040    00000060     drivers.am263px.r5f.ti-arm-clang.nortos.debug.lib : edma.obj (.text.EDMA_chainChannel)
                  7001a0a0    00000060     libsysbm.a : hostclose.c.obj (.text.HOSTclose)
                  7001a100    00000060     drivers.am263px.r5f.ti-arm-clang.nortos.debug.lib : ospi_lld_dma.obj (.text.OSPI_dmaCopy)
                  7001a160    00000060                                                       : uart_v0_lld.obj (.text.UART_getChar)
                  7001a1c0    00000060                                                       : uart_v0_lld.obj (.text.UART_writeData)
                  7001a220    0000005e                                                       : soc_rcm.obj (.text.SOC_rcmInsert32)
                  7001a27e    00000002     --HOLE-- [fill = 0]
                  7001a280    0000005c     ti_power_clock_config.obj (.text.Module_clockSetFrequency)
                  7001a2dc    00000004     --HOLE-- [fill = 0]
                  7001a2e0    0000005c     drivers.am263px.r5f.ti-arm-clang.nortos.debug.lib : ospi_v0_lld.obj (.text.OSPI_utilLog2)
                  7001a33c    00000004     --HOLE-- [fill = 0]
                  7001a340    0000005c                                                       : uart_v0_lld.obj (.text.UART_lld_deInit)
                  7001a39c    00000004     --HOLE-- [fill = 0]
                  7001a3a0    0000005a     security.am263px.r5f.ti-arm-clang.nortos.debug.lib : hsmclient_wait_for_boot_notify.obj (.text.HsmClient_waitForBootNotify)
                  7001a3fa    00000006     --HOLE-- [fill = 0]
                  7001a400    0000005a     drivers.am263px.r5f.ti-arm-clang.nortos.debug.lib : uart_dma_edma.obj (.text.UART_lld_dmaDisableChannel)
                  7001a45a    00000006     --HOLE-- [fill = 0]
                  7001a460    0000005a                                                       : uart_v0_lld.obj (.text.UART_regConfigModeEnable)
                  7001a4ba    00000006     --HOLE-- [fill = 0]
                  7001a4c0    00000058     ti_clocktree_pll_config.obj (.text.Bootloader_socConfigurePll)
                  7001a518    00000008     --HOLE-- [fill = 0]
                  7001a520    00000058     middleware.am263px.r5f.ti-arm-clang.nortos.debug.lib : tielfup32.obj (.text.ELFUP_init)
                  7001a578    00000008     --HOLE-- [fill = 0]
                  7001a580    00000058     board.am263px.r5f.ti-arm-clang.nortos.debug.lib : flash_nor_ospi.obj (.text.Flash_norOspiCmdWrite)
                  7001a5d8    00000008     --HOLE-- [fill = 0]
                  7001a5e0    00000058     security.am263px.r5f.ti-arm-clang.nortos.debug.lib : hsmclient_loadhsmrt.obj (.text.Hsmclient_mboxRxISR)
                  7001a638    00000008     --HOLE-- [fill = 0]
                  7001a640    00000058     drivers.am263px.r5f.ti-arm-clang.nortos.debug.lib : ospi_v0_lld.obj (.text.OSPI_writeFifoData)
                  7001a698    00000008     --HOLE-- [fill = 0]
                  7001a6a0    00000058                                                       : soc_rcm.obj (.text.SOC_rcmGetModuleClkDivVal)
                  7001a6f8    00000008     --HOLE-- [fill = 0]
                  7001a700    00000058                                                       : uart_v0.obj (.text.UART_getHandle)
                  7001a758    00000058     libc.a : fopen.c.obj (.text.__TI_cleanup)
                  7001a7b0    00000058     libsysbm.a : trgmsg.c.obj (.text.__TI_readmsg)
                  7001a808    00000058                : trgmsg.c.obj (.text.__TI_writemsg)
                  7001a860    00000056     drivers.am263px.r5f.ti-arm-clang.nortos.debug.lib : bootloader.obj (.text.Bootloader_BootImageInfo_init)
                  7001a8b6    0000000a     --HOLE-- [fill = 0]
                  7001a8c0    00000056                                                       : bootloader_soc.obj (.text.Bootloader_authFinish)
                  7001a916    0000000a     --HOLE-- [fill = 0]
                  7001a920    00000056                                                       : edma.obj (.text.EDMA_getHandle)
                  7001a976    0000000a     --HOLE-- [fill = 0]
                  7001a980    00000056                                                       : i2c_v1.obj (.text.I2C_getHandle)
                  7001a9d6    0000000a     --HOLE-- [fill = 0]
                  7001a9e0    00000056                                                       : mcan.obj (.text.MCAN_initOperModeParams)
                  7001aa36    0000000a     --HOLE-- [fill = 0]
                  7001aa40    00000056                                                       : ospi_v0_lld.obj (.text.OSPI_getCmdExt)
                  7001aa96    0000000a     --HOLE-- [fill = 0]
                  7001aaa0    00000056                                                       : ospi_v0_lld.obj (.text.OSPI_lld_configResetPin)
                  7001aaf6    0000000a     --HOLE-- [fill = 0]
                  7001ab00    00000056                                                       : uart_v0.obj (.text.UART_lld_readCompleteCallback)
                  7001ab56    0000000a     --HOLE-- [fill = 0]
                  7001ab60    00000056                                                       : uart_v0.obj (.text.UART_lld_writeCompleteCallback)
                  7001abb6    0000000a     --HOLE-- [fill = 0]
                  7001abc0    00000054                                                       : edma.obj (.text.EDMA_setPaRAM)
                  7001ac14    0000000c     --HOLE-- [fill = 0]
                  7001ac20    00000054     security.am263px.r5f.ti-arm-clang.nortos.debug.lib : hsmclient_loadhsmrt.obj (.text.Hsmclient_computeIPCChecksum)
                  7001ac74    0000000c     --HOLE-- [fill = 0]
                  7001ac80    00000054     drivers.am263px.r5f.ti-arm-clang.nortos.debug.lib : ospi_v0_lld.obj (.text.OSPI_lld_configBaudrate)
                  7001acd4    0000000c     --HOLE-- [fill = 0]
                  7001ace0    00000054                                                       : ospi_v0_lld.obj (.text.OSPI_readFifoData)
                  7001ad34    0000000c     --HOLE-- [fill = 0]
                  7001ad40    00000054                                                       : uart_v0_lld.obj (.text.UART_OperModeValid)
                  7001ad94    00000054     libc.a : exit.c.obj (.text.exit)
                  7001ade8    00000054            : getdevice.c.obj (.text.finddevice)
                  7001ae3c    00000054            : autoinit.c.obj (.text:__TI_auto_init_nobinit_nopinit)
                  7001ae90    00000052     drivers.am263px.r5f.ti-arm-clang.nortos.debug.lib : edma.obj (.text.EDMA_readIntrStatusRegion)
                  7001aee2    0000000e     --HOLE-- [fill = 0]
                  7001aef0    00000052     board.am263px.r5f.ti-arm-clang.nortos.debug.lib : flash.obj (.text.Flash_read)
                  7001af42    0000000e     --HOLE-- [fill = 0]
                  7001af50    00000052                                                     : flash.obj (.text.Flash_write)
                  7001afa2    0000000e     --HOLE-- [fill = 0]
                  7001afb0    00000052     drivers.am263px.r5f.ti-arm-clang.nortos.debug.lib : i2c_v1_lld.obj (.text.I2C_lld_deInit)
                  7001b002    0000000e     --HOLE-- [fill = 0]
                  7001b010    00000052     security.am263px.r5f.ti-arm-clang.nortos.debug.lib : sipc_notify_cfg.obj (.text.SIPC_Register_Isr)
                  7001b062    0000000e     --HOLE-- [fill = 0]
                  7001b070    00000052     drivers.am263px.r5f.ti-arm-clang.nortos.debug.lib : soc_rcm.obj (.text.SOC_rcmCoreApllRelockPreRequisite)
                  7001b0c2    0000000e     --HOLE-- [fill = 0]
                  7001b0d0    00000050     ti_board_open_close.obj (.text.Board_flashClose)
                  7001b120    00000050     ti_drivers_open_close.obj (.text.Drivers_edmaClose)
                  7001b170    00000050     ti_drivers_open_close.obj (.text.Drivers_i2cClose)
                  7001b1c0    00000050     ti_drivers_open_close.obj (.text.Drivers_ospiClose)
                  7001b210    00000050     ti_drivers_open_close.obj (.text.Drivers_uartClose)
                  7001b260    00000050     drivers.am263px.r5f.ti-arm-clang.nortos.debug.lib : pinmux.obj (.text.Pinmux_config)
                  7001b2b0    00000050                                                       : uart_v0_lld.obj (.text.UART_checkCharsAvailInFifo)
                  7001b300    0000004e                                                       : edma.obj (.text.EDMA_clrEvtRegion)
                  7001b34e    00000002     --HOLE-- [fill = 0]
                  7001b350    0000004e                                                       : edma.obj (.text.EDMA_clrIntrRegion)
                  7001b39e    00000002     --HOLE-- [fill = 0]
                  7001b3a0    0000004e                                                       : edma.obj (.text.EDMA_disableDmaEvtRegion)
                  7001b3ee    00000002     --HOLE-- [fill = 0]
                  7001b3f0    0000004e                                                       : edma.obj (.text.EDMA_disableEvtIntrRegion)
                  7001b43e    00000002     --HOLE-- [fill = 0]
                  7001b440    0000004e                                                       : edma.obj (.text.EDMA_enableDmaEvtRegion)
                  7001b48e    00000002     --HOLE-- [fill = 0]
                  7001b490    0000004e                                                       : edma.obj (.text.EDMA_enableEvtIntrRegion)
                  7001b4de    00000002     --HOLE-- [fill = 0]
                  7001b4e0    0000004e                                                       : edma.obj (.text.EDMA_getCcErrorInfo)
                  7001b52e    00000002     --HOLE-- [fill = 0]
                  7001b530    0000004e                                                       : edma.obj (.text.EDMA_setEvtRegion)
                  7001b57e    00000002     --HOLE-- [fill = 0]
                  7001b580    0000004e     security.am263px.r5f.ti-arm-clang.nortos.debug.lib : hsmclient.obj (.text.HsmClient_waitForAllResponses)
                  7001b5ce    00000002     --HOLE-- [fill = 0]
                  7001b5d0    0000004e     drivers.am263px.r5f.ti-arm-clang.nortos.debug.lib : ospi_v0.obj (.text.OSPI_readCmd)
                  7001b61e    00000002     --HOLE-- [fill = 0]
                  7001b620    0000004e                                                       : ospi_v0.obj (.text.OSPI_writeCmd)
                  7001b66e    00000002     --HOLE-- [fill = 0]
                  7001b670    0000004c     nortos.am263px.r5f.ti-arm-clang.debug.lib : ClockP_nortos.obj (.text.ClockP_construct)
                  7001b6bc    00000004     --HOLE-- [fill = 0]
                  7001b6c0    0000004c     drivers.am263px.r5f.ti-arm-clang.nortos.debug.lib : edma.obj (.text.EDMA_ccPaRAMEntry_init)
                  7001b70c    00000004     --HOLE-- [fill = 0]
                  7001b710    0000004c                                                       : edma.obj (.text.EDMA_mapQdmaChToPaRAM)
                  7001b75c    00000004     --HOLE-- [fill = 0]
                  7001b760    0000004c                                                       : edma.obj (.text.EDMA_readEventStatusRegion)
                  7001b7ac    00000004     --HOLE-- [fill = 0]
                  7001b7b0    0000004c     ti_power_clock_config.obj (.text.Module_clockDisable)
                  7001b7fc    00000004     --HOLE-- [fill = 0]
                  7001b800    0000004c     ti_power_clock_config.obj (.text.Module_clockEnable)
                  7001b84c    00000004     --HOLE-- [fill = 0]
                  7001b850    0000004c     drivers.am263px.r5f.ti-arm-clang.nortos.debug.lib : ospi_v0.obj (.text.OSPI_getHandle)
                  7001b89c    00000004     --HOLE-- [fill = 0]
                  7001b8a0    0000004c                                                       : ospi_v0_lld.obj (.text.OSPI_lld_readBaudRateDivFromReg)
                  7001b8ec    00000004     --HOLE-- [fill = 0]
                  7001b8f0    0000004a                                                       : bootloader_profile.obj (.text.Bootloader_profileAddProfilePoint)
                  7001b93a    00000006     --HOLE-- [fill = 0]
                  7001b940    0000004a                                                       : mcan.obj (.text.MCAN_initSetBitTimeParams)
                  7001b98a    00000006     --HOLE-- [fill = 0]
                  7001b990    0000004a                                                       : mcan.obj (.text.MCAN_setExtIDAndMask)
                  7001b9da    00000006     --HOLE-- [fill = 0]
                  7001b9e0    0000004a                                                       : soc_rcm.obj (.text.SOC_rcmGetCR5SysclkInFrequency)
                  7001ba2a    00000006     --HOLE-- [fill = 0]
                  7001ba30    0000004a                                                       : uart_v0_lld.obj (.text.UART_getIntrIdentityStatus)
                  7001ba7a    00000006     --HOLE-- [fill = 0]
                  7001ba80    0000004a                                                       : uart_v0_lld.obj (.text.UART_lineCharConfig)
                  7001baca    00000006     --HOLE-- [fill = 0]
                  7001bad0    00000048                                                       : edma.obj (.text.EDMA_clearTcErrors)
                  7001bb18    00000008     --HOLE-- [fill = 0]
                  7001bb20    00000048                                                       : ospi_v0_lld.obj (.text.OSPI_lld_enableDacMode)
                  7001bb68    00000008     --HOLE-- [fill = 0]
                  7001bb70    00000048                                                       : ospi_v0_lld.obj (.text.OSPI_lld_setDeviceSize)
                  7001bbb8    00000008     --HOLE-- [fill = 0]
                  7001bbc0    00000048                                                       : ospi_v0_lld.obj (.text.OSPI_lld_setNumAddrBytes)
                  7001bc08    00000008     --HOLE-- [fill = 0]
                  7001bc10    00000048                                                       : uart_v0_lld.obj (.text.UART_resetModule)
                  7001bc58    00000048     libsysbm.a : unlink.c.obj (.text.unlink)
                  7001bca0    00000046     nortos.am263px.r5f.ti-arm-clang.debug.lib : DebugP_uartLogWriter.obj (.text.DebugP_uartLogWriterPutChar)
                  7001bce6    0000000a     --HOLE-- [fill = 0]
                  7001bcf0    00000046     drivers.am263px.r5f.ti-arm-clang.nortos.debug.lib : i2c_v1.obj (.text.I2C_hwiFxn)
                  7001bd36    0000000a     --HOLE-- [fill = 0]
                  7001bd40    00000046                                                       : mcan.obj (.text.MCAN_initGlobalFilterConfigParams)
                  7001bd86    0000000a     --HOLE-- [fill = 0]
                  7001bd90    00000046                                                       : ospi_v0_lld.obj (.text.OSPI_lld_disableDacMode)
                  7001bdd6    0000000a     --HOLE-- [fill = 0]
                  7001bde0    00000046                                                       : ospi_phy_am26x_lld.obj (.text.OSPI_lld_phyTuneDDR)
                  7001be26    0000000a     --HOLE-- [fill = 0]
                  7001be30    00000046                                                       : uart_v0_lld.obj (.text.UART_i2310WA)
                  7001be76    0000000a     --HOLE-- [fill = 0]
                  7001be80    00000046                                                       : uart_v0_lld.obj (.text.UART_readLineStatus)
                  7001bec6    0000000a     --HOLE-- [fill = 0]
                  7001bed0    00000044     ti_dpl_config.obj (.text.Dpl_init)
                  7001bf14    0000000c     --HOLE-- [fill = 0]
                  7001bf20    00000044     drivers.am263px.r5f.ti-arm-clang.nortos.debug.lib : ospi_lld_dma.obj (.text.OSPI_dmaClose)
                  7001bf64    0000000c     --HOLE-- [fill = 0]
                  7001bf70    00000044                                                       : ospi_lld_dma.obj (.text.OSPI_isDmaInterruptEnabled)
                  7001bfb4    0000000c     --HOLE-- [fill = 0]
                  7001bfc0    00000044                                                       : soc_rcm.obj (.text.SBL_rcmIsDualCoreSwitchSupported)
                  7001c004    0000000c     --HOLE-- [fill = 0]
                  7001c010    00000044     security.am263px.r5f.ti-arm-clang.nortos.debug.lib : sipc_notify_src.obj (.text.SIPC_unregisterClient)
                  7001c054    0000000c     --HOLE-- [fill = 0]
                  7001c060    00000044     drivers.am263px.r5f.ti-arm-clang.nortos.debug.lib : soc_rcm.obj (.text.SOC_rcmExtract8)
                  7001c0a4    0000000c     --HOLE-- [fill = 0]
                  7001c0b0    00000044                                                       : soc_rcm.obj (.text.SOC_rcmMake16)
                  7001c0f4    0000000c     --HOLE-- [fill = 0]
                  7001c100    00000044                                                       : soc_rcm.obj (.text.SOC_rcmMake8)
                  7001c144    0000000c     --HOLE-- [fill = 0]
                  7001c150    00000044     nortos.am263px.r5f.ti-arm-clang.debug.lib : SemaphoreP_nortos.obj (.text.SemaphoreP_construct)
                  7001c194    0000000c     --HOLE-- [fill = 0]
                  7001c1a0    00000044                                               : DebugP_nortos.obj (.text._DebugP_logZone)
                  7001c1e4    0000000c     --HOLE-- [fill = 0]
                  7001c1f0    00000044                                               : printf.obj (.text._strnlen_s)
                  7001c234    0000000c     --HOLE-- [fill = 0]
                  7001c240    00000042     drivers.am263px.r5f.ti-arm-clang.nortos.debug.lib : bootloader.obj (.text.Bootloader_initCpu)
                  7001c282    0000000e     --HOLE-- [fill = 0]
                  7001c290    00000042     nortos.am263px.r5f.ti-arm-clang.debug.lib : ClockP_nortos.obj (.text.ClockP_start)
                  7001c2d2    0000000e     --HOLE-- [fill = 0]
                  7001c2e0    00000042     drivers.am263px.r5f.ti-arm-clang.nortos.debug.lib : uart_v0.obj (.text.UART_checkOpenParams)
                  7001c322    0000000e     --HOLE-- [fill = 0]
                  7001c330    00000040                                                       : i2c_v1_lld.obj (.text.I2C_lld_transferIntr)
                  7001c370    00000040                                                       : i2c_v1_lld.obj (.text.I2C_lld_transferPoll)
                  7001c3b0    00000040                                                       : soc_rcm.obj (.text.SOC_rcmMake32)
                  7001c3f0    00000040     libc.a : memory.c.obj (.text.free_list_insert)
                  7001c430    00000040            : memcmp.c.obj (.text.memcmp)
                  7001c470    0000003e     board.am263px.r5f.ti-arm-clang.nortos.debug.lib : flash.obj (.text.Flash_eraseBlk)
                  7001c4ae    00000002     --HOLE-- [fill = 0]
                  7001c4b0    0000003e                                                     : flash.obj (.text.Flash_eraseSector)
                  7001c4ee    00000002     --HOLE-- [fill = 0]
                  7001c4f0    0000003e                                                     : flash.obj (.text.Flash_getAttrs)
                  7001c52e    00000002     --HOLE-- [fill = 0]
                  7001c530    0000003e     drivers.am263px.r5f.ti-arm-clang.nortos.debug.lib : bootloader_flash.obj (.text.Flash_imgDacModeToggle)
                  7001c56e    00000002     --HOLE-- [fill = 0]
                  7001c570    0000003e                                                       : pinmux.obj (.text.Pinmux_unlockMMR)
                  7001c5ae    00000002     --HOLE-- [fill = 0]
                  7001c5b0    0000003e                                                       : uart_v0_lld.obj (.text.UART_IsHWFlowCtrlValid)
                  7001c5ee    00000002     --HOLE-- [fill = 0]
                  7001c5f0    0000003e                                                       : uart_v0_lld.obj (.text.UART_spaceAvail)
                  7001c62e    00000002     --HOLE-- [fill = 0]
                  7001c630    0000003c                                                       : ospi_v0_lld.obj (.text.OSPI_lld_setRdDataCaptureDelay)
                  7001c66c    00000004     --HOLE-- [fill = 0]
                  7001c670    0000003c                                                       : uart_v0_lld.obj (.text.UART_IsParityTypeValid)
                  7001c6ac    00000004     --HOLE-- [fill = 0]
                  7001c6b0    0000003c                                                       : uart_v0_lld.obj (.text.UART_IsTxRxFifoEmpty)
                  7001c6ec    00000004     --HOLE-- [fill = 0]
                  7001c6f0    0000003c                                                       : uart_v0_lld.obj (.text.UART_enhanFuncEnable)
                  7001c72c    00000004     --HOLE-- [fill = 0]
                  7001c730    0000003a                                                       : bootloader_soc.obj (.text.Bootloader_socGetBootSeqOid)
                  7001c76a    00000006     --HOLE-- [fill = 0]
                  7001c770    0000003a     board.am263px.r5f.ti-arm-clang.nortos.debug.lib : flash.obj (.text.Flash_disableDacMode)
                  7001c7aa    00000006     --HOLE-- [fill = 0]
                  7001c7b0    0000003a                                                     : flash.obj (.text.Flash_enableDacMode)
                  7001c7ea    00000006     --HOLE-- [fill = 0]
                  7001c7f0    0000003a     drivers.am263px.r5f.ti-arm-clang.nortos.debug.lib : mcan.obj (.text.MCAN_txBufAddReq)
                  7001c82a    00000006     --HOLE-- [fill = 0]
                  7001c830    0000003a                                                       : ospi_edma_lld.obj (.text.OSPI_EdmaParams_init)
                  7001c86a    00000006     --HOLE-- [fill = 0]
                  7001c870    0000003a                                                       : ospi_v0.obj (.text.OSPI_enableSDR)
                  7001c8aa    00000006     --HOLE-- [fill = 0]
                  7001c8b0    0000003a                                                       : soc.obj (.text.SOC_moduleSetClockFrequency)
                  7001c8ea    00000006     --HOLE-- [fill = 0]
                  7001c8f0    0000003a     nortos.am263px.r5f.ti-arm-clang.debug.lib : printf.obj (.text._atoi)
                  7001c92a    00000006     --HOLE-- [fill = 0]
                  7001c930    00000038     drivers.am263px.r5f.ti-arm-clang.nortos.debug.lib : bootloader_soc.obj (.text.Bootloader_socCpuResetRelease)
                  7001c968    00000008     --HOLE-- [fill = 0]
                  7001c970    00000038                                                       : ospi_phy_am26x_lld.obj (.text.CSL_REG32_FINS_RAW)
                  7001c9a8    00000008     --HOLE-- [fill = 0]
                  7001c9b0    00000038                                                       : ospi_v0_lld.obj (.text.CSL_REG32_FINS_RAW)
                  7001c9e8    00000008     --HOLE-- [fill = 0]
                  7001c9f0    00000038                                                       : edma.obj (.text.EDMA_qdmaClrMissEvtRegion)
                  7001ca28    00000008     --HOLE-- [fill = 0]
                  7001ca30    00000038                                                       : i2c_v1.obj (.text.I2C_LLD_transferCompleteCallback)
                  7001ca68    00000008     --HOLE-- [fill = 0]
                  7001ca70    00000038                                                       : ospi_v0.obj (.text.OSPI_configBaudrate)
                  7001caa8    00000008     --HOLE-- [fill = 0]
                  7001cab0    00000038                                                       : ospi_v0.obj (.text.OSPI_getBaudRateDivFromObj)
                  7001cae8    00000008     --HOLE-- [fill = 0]
                  7001caf0    00000038                                                       : ospi_v0.obj (.text.OSPI_setRdDataCaptureDelay)
                  7001cb28    00000008     --HOLE-- [fill = 0]
                  7001cb30    00000038                                                       : ospi_v0.obj (.text.OSPI_setResetPinStatus)
                  7001cb68    00000008     --HOLE-- [fill = 0]
                  7001cb70    00000038     security.am263px.r5f.ti-arm-clang.nortos.debug.lib : sipc_notify_src.obj (.text.SIPC_Params_init)
                  7001cba8    00000008     --HOLE-- [fill = 0]
                  7001cbb0    00000038                                                        : sipc_notify_src.obj (.text.SIPC_getIntrConfig)
                  7001cbe8    00000008     --HOLE-- [fill = 0]
                  7001cbf0    00000038     drivers.am263px.r5f.ti-arm-clang.nortos.debug.lib : soc.obj (.text.SOC_getCoreName)
                  7001cc28    00000008     --HOLE-- [fill = 0]
                  7001cc30    00000038                                                       : uart_v0_lld.obj (.text.UART_writeDataPolling)
                  7001cc68    00000038     nortos.am263px.r5f.ti-arm-clang.debug.lib : PmuP_armv7r_asm.obj (.text.pmu)
                  7001cca0    00000036     drivers.am263px.r5f.ti-arm-clang.nortos.debug.lib : edma.obj (.text.EDMA_getRegionId)
                  7001ccd6    0000000a     --HOLE-- [fill = 0]
                  7001cce0    00000036     board.am263px.r5f.ti-arm-clang.nortos.debug.lib : flash.obj (.text.Flash_getHandle)
                  7001cd16    0000000a     --HOLE-- [fill = 0]
                  7001cd20    00000036     drivers.am263px.r5f.ti-arm-clang.nortos.debug.lib : ospi_v0_lld.obj (.text.OSPI_lld_enableDdrRdCmds)
                  7001cd56    0000000a     --HOLE-- [fill = 0]
                  7001cd60    00000036                                                       : ospi_v0_lld.obj (.text.OSPI_lld_readCmdParams_init)
                  7001cd96    0000000a     --HOLE-- [fill = 0]
                  7001cda0    00000034                                                       : bootloader_uniflash_rprc.obj (.text.Bootloader_Uniflash_RPRC_flashVerifyXIPFile)
                  7001cdd4    0000000c     --HOLE-- [fill = 0]
                  7001cde0    00000034                                                       : bootloader.obj (.text.Bootloader_close)
                  7001ce14    0000000c     --HOLE-- [fill = 0]
                  7001ce20    00000034     security.am263px.r5f.ti-arm-clang.nortos.debug.lib : hsmclient.obj (.text.HsmClient_init)
                  7001ce54    0000000c     --HOLE-- [fill = 0]
                  7001ce60    00000034     drivers.am263px.r5f.ti-arm-clang.nortos.debug.lib : mcan.obj (.text.MCAN_SsAddr)
                  7001ce94    0000000c     --HOLE-- [fill = 0]
                  7001cea0    00000034                                                       : mcan.obj (.text.MCAN_calcCfgAddr)
                  7001ced4    0000000c     --HOLE-- [fill = 0]
                  7001cee0    00000034                                                       : ospi_v0.obj (.text.OSPI_disableDacMode)
                  7001cf14    0000000c     --HOLE-- [fill = 0]
                  7001cf20    00000034                                                       : ospi_v0.obj (.text.OSPI_disablePhy)
                  7001cf54    0000000c     --HOLE-- [fill = 0]
                  7001cf60    00000034                                                       : ospi_v0.obj (.text.OSPI_enableDacMode)
                  7001cf94    0000000c     --HOLE-- [fill = 0]
                  7001cfa0    00000034                                                       : ospi_v0.obj (.text.OSPI_enablePhy)
                  7001cfd4    0000000c     --HOLE-- [fill = 0]
                  7001cfe0    00000034                                                       : ospi_v0.obj (.text.OSPI_enablePhyPipeline)
                  7001d014    0000000c     --HOLE-- [fill = 0]
                  7001d020    00000034                                                       : ospi_v0_lld.obj (.text.OSPI_lld_disablePhyPipeline)
                  7001d054    0000000c     --HOLE-- [fill = 0]
                  7001d060    00000034                                                       : ospi_v0_lld.obj (.text.OSPI_lld_enableDDR)
                  7001d094    0000000c     --HOLE-- [fill = 0]
                  7001d0a0    00000034                                                       : ospi_v0_lld.obj (.text.OSPI_lld_enablePhyPipeline)
                  7001d0d4    0000000c     --HOLE-- [fill = 0]
                  7001d0e0    00000034                                                       : ospi_v0_lld.obj (.text.OSPI_lld_enableSDR)
                  7001d114    0000000c     --HOLE-- [fill = 0]
                  7001d120    00000034                                                       : ospi_v0_lld.obj (.text.OSPI_lld_isChipSelectValid)
                  7001d154    0000000c     --HOLE-- [fill = 0]
                  7001d160    00000034                                                       : ospi_v0_lld.obj (.text.OSPI_lld_isFrameFormatValid)
                  7001d194    0000000c     --HOLE-- [fill = 0]
                  7001d1a0    00000034                                                       : ospi_v0_lld.obj (.text.OSPI_lld_setResetPinStatus)
                  7001d1d4    0000000c     --HOLE-- [fill = 0]
                  7001d1e0    00000034                                                       : ospi_v0.obj (.text.OSPI_setXferOpCodes)
                  7001d214    0000000c     --HOLE-- [fill = 0]
                  7001d220    00000034                                                       : pinmux.obj (.text.Pinmux_lockMMR)
                  7001d254    0000000c     --HOLE-- [fill = 0]
                  7001d260    00000034     nortos.am263px.r5f.ti-arm-clang.debug.lib : TimerP_rti_priv.obj (.text.TimerP_Params_initPriv)
                  7001d294    0000000c     --HOLE-- [fill = 0]
                  7001d2a0    00000034     drivers.am263px.r5f.ti-arm-clang.nortos.debug.lib : uart_v0_lld.obj (.text.UART_IsDataLengthValid)
                  7001d2d4    0000000c     --HOLE-- [fill = 0]
                  7001d2e0    00000034                                                       : uart_v0_lld.obj (.text.UART_checkTransaction)
                  7001d314    00000034     libc.a : memory.c.obj (.text.free_list_remove)
                  7001d348    00000034     libsysbm.a : lseek.c.obj (.text.lseek)
                  7001d37c    00000034                : write.c.obj (.text.write)
                  7001d3b0    00000032     drivers.am263px.r5f.ti-arm-clang.nortos.debug.lib : bootloader.obj (.text.Bootloader_runSelfCpu)
                  7001d3e2    0000000e     --HOLE-- [fill = 0]
                  7001d3f0    00000032                                                       : bootloader_uniflash.obj (.text.Bootloader_uniflashInitRespHeader)
                  7001d422    0000000e     --HOLE-- [fill = 0]
                  7001d430    00000032                                                       : edma.obj (.text.HW_WR_FIELD32_RAW)
                  7001d462    0000000e     --HOLE-- [fill = 0]
                  7001d470    00000032                                                       : mcan.obj (.text.HW_WR_FIELD32_RAW)
                  7001d4a2    0000000e     --HOLE-- [fill = 0]
                  7001d4b0    00000032                                                       : uart_v0_lld.obj (.text.HW_WR_FIELD32_RAW)
                  7001d4e2    0000000e     --HOLE-- [fill = 0]
                  7001d4f0    00000032                                                       : i2c_v1_lld.obj (.text.I2C_lld_Message_init)
                  7001d522    0000000e     --HOLE-- [fill = 0]
                  7001d530    00000032                                                       : mcan.obj (.text.MCAN_isMemInitDone)
                  7001d562    0000000e     --HOLE-- [fill = 0]
                  7001d570    00000032                                                       : ospi_v0_lld.obj (.text.OSPI_lld_setCmdDummyCycles)
                  7001d5a2    0000000e     --HOLE-- [fill = 0]
                  7001d5b0    00000032                                                       : ospi_v0_lld.obj (.text.OSPI_lld_setReadDummyCycles)
                  7001d5e2    0000000e     --HOLE-- [fill = 0]
                  7001d5f0    00000032                                                       : ospi_v0_lld.obj (.text.OSPI_lld_writeCmdParams_init)
                  7001d622    0000000e     --HOLE-- [fill = 0]
                  7001d630    00000032     board.am263px.r5f.ti-arm-clang.nortos.debug.lib : ioexp_tca6416.obj (.text.TCA6416_close)
                  7001d662    0000000e     --HOLE-- [fill = 0]
                  7001d670    00000032     nortos.am263px.r5f.ti-arm-clang.debug.lib : TimerP_rti_priv.obj (.text.TimerP_getCountPriv)
                  7001d6a2    0000000e     --HOLE-- [fill = 0]
                  7001d6b0    00000032     drivers.am263px.r5f.ti-arm-clang.nortos.debug.lib : uart_v0_lld.obj (.text.UART_enhanFuncBitValRestore)
                  7001d6e2    0000000e     --HOLE-- [fill = 0]
                  7001d6f0    00000032                                                       : uart_v0_lld.obj (.text.UART_hardwareFlowCtrlOptSet)
                  7001d722    0000000e     --HOLE-- [fill = 0]
                  7001d730    00000030                                                       : bootloader.obj (.text.Bootloader_isCorePresent)
                  7001d760    00000030                                                       : bootloader_profile.obj (.text.Bootloader_profileReset)
                  7001d790    00000030     board.am263px.r5f.ti-arm-clang.nortos.debug.lib : flash.obj (.text.Flash_close)
                  7001d7c0    00000030                                                     : flash_nor_ospi.obj (.text.Flash_norOspiDacModeDisable)
                  7001d7f0    00000030                                                     : flash_nor_ospi.obj (.text.Flash_norOspiDacModeEnable)
                  7001d820    00000030     drivers.am263px.r5f.ti-arm-clang.nortos.debug.lib : i2c_v1_lld.obj (.text.I2CControllerControl)
                  7001d850    00000030                                                       : ospi_phy_am26x.obj (.text.OSPI_phyReadAttackVector)
                  7001d880    00000030                                                       : ospi_phy_am26x.obj (.text.OSPI_phyTuneDDR)
                  7001d8b0    00000030                                                       : uart_v0_lld.obj (.text.UART_flowCtrlTrigLvlConfig)
                  7001d8e0    0000002e                                                       : bootloader_soc.obj (.text.Bootloader_socGetCoreName)
                  7001d90e    00000002     --HOLE-- [fill = 0]
                  7001d910    0000002e                                                       : i2c_v1.obj (.text.I2C_deinit)
                  7001d93e    00000002     --HOLE-- [fill = 0]
                  7001d940    0000002e                                                       : ospi_v0.obj (.text.OSPI_deinit)
                  7001d96e    00000002     --HOLE-- [fill = 0]
                  7001d970    0000002e                                                       : ospi_v0_lld.obj (.text.OSPI_disableInterrupt)
                  7001d99e    00000002     --HOLE-- [fill = 0]
                  7001d9a0    0000002e                                                       : ospi_v0_lld.obj (.text.OSPI_enableInterrupt)
                  7001d9ce    00000002     --HOLE-- [fill = 0]
                  7001d9d0    0000002e                                                       : soc_rcm.obj (.text.SOC_rcmMemInitMailboxMemory)
                  7001d9fe    00000002     --HOLE-- [fill = 0]
                  7001da00    0000002e                                                       : uart_v0.obj (.text.UART_deinit)
                  7001da2e    00000002     --HOLE-- [fill = 0]
                  7001da30    0000002e                                                       : uart_dma_edma.obj (.text.UART_lld_dmaInit)
                  7001da5e    00000002     --HOLE-- [fill = 0]
                  7001da60    0000002e     nortos.am263px.r5f.ti-arm-clang.debug.lib : printf.obj (.text._is_digit)
                  7001da8e    00000002     --HOLE-- [fill = 0]
                  7001da90    0000002e     drivers.am263px.r5f.ti-arm-clang.nortos.debug.lib : bootloader_can.obj (.text.mcanConfigTxMsg)
                  7001dabe    00000002     --HOLE-- [fill = 0]
                  7001dac0    0000002c                                                       : bootloader_soc.obj (.text.Bootloader_socCpuGetClkDefault)
                  7001daec    00000004     --HOLE-- [fill = 0]
                  7001daf0    0000002c     nortos.am263px.r5f.ti-arm-clang.debug.lib : DebugP_log.obj (.text.DebugP_logZoneEnable)
                  7001db1c    00000004     --HOLE-- [fill = 0]
                  7001db20    0000002c     drivers.am263px.r5f.ti-arm-clang.nortos.debug.lib : i2c_v1_lld.obj (.text.I2CModeControl)
                  7001db4c    00000004     --HOLE-- [fill = 0]
                  7001db50    0000002c                                                       : ospi_v0.obj (.text.OSPI_getInputClk)
                  7001db7c    00000004     --HOLE-- [fill = 0]
                  7001db80    0000002c                                                       : ospi_v0.obj (.text.OSPI_isDacEnable)
                  7001dbac    00000004     --HOLE-- [fill = 0]
                  7001dbb0    0000002c                                                       : ospi_v0.obj (.text.OSPI_isPhyEnable)
                  7001dbdc    00000004     --HOLE-- [fill = 0]
                  7001dbe0    0000002c                                                       : ospi_v0.obj (.text.OSPI_setDeviceSize)
                  7001dc0c    00000004     --HOLE-- [fill = 0]
                  7001dc10    0000002c     nortos.am263px.r5f.ti-arm-clang.debug.lib : SemaphoreP_nortos.obj (.text.SemaphoreP_constructBinary)
                  7001dc3c    00000004     --HOLE-- [fill = 0]
                  7001dc40    0000002a     drivers.am263px.r5f.ti-arm-clang.nortos.debug.lib : bootloader_uniflash_mcelf.obj (.text.Bootloader_Uniflash_MCELF_flashVerifyXIPFile)
                  7001dc6a    00000006     --HOLE-- [fill = 0]
                  7001dc70    0000002a                                                       : bootloader_uniflash_rprc.obj (.text.Bootloader_Uniflash_RPRC_flashXIPFile)
                  7001dc9a    00000006     --HOLE-- [fill = 0]
                  7001dca0    0000002a                                                       : bootloader_soc.obj (.text.Bootloader_socCpuSetClock)
                  7001dcca    00000006     --HOLE-- [fill = 0]
                  7001dcd0    0000002a                                                       : bootloader_soc.obj (.text.Bootloader_socIsAuthRequired)
                  7001dcfa    00000006     --HOLE-- [fill = 0]
                  7001dd00    0000002a     nortos.am263px.r5f.ti-arm-clang.debug.lib : ClockP_nortos.obj (.text.ClockP_sleepTicks)
                  7001dd2a    00000006     --HOLE-- [fill = 0]
                  7001dd30    0000002a     drivers.am263px.r5f.ti-arm-clang.nortos.debug.lib : i2c_v1_lld.obj (.text.I2C_lld_Transaction_init)
                  7001dd5a    00000006     --HOLE-- [fill = 0]
                  7001dd60    0000002a                                                       : i2c_v1.obj (.text.I2C_transferCallback)
                  7001dd8a    00000006     --HOLE-- [fill = 0]
                  7001dd90    0000002a                                                       : ospi_v0_lld.obj (.text.OSPI_lld_setModeBits)
                  7001ddba    00000006     --HOLE-- [fill = 0]
                  7001ddc0    0000002a                                                       : uart_v0.obj (.text.UART_Transaction_init)
                  7001ddea    00000006     --HOLE-- [fill = 0]
                  7001ddf0    0000002a                                                       : uart_v0_lld.obj (.text.UART_intr2Disable)
                  7001de1a    00000006     --HOLE-- [fill = 0]
                  7001de20    0000002a                                                       : uart_v0_lld.obj (.text.UART_lld_Transaction_init)
                  7001de4a    00000006     --HOLE-- [fill = 0]
                  7001de50    0000002a                                                       : uart_v0_lld.obj (.text.UART_operatingModeSelect)
                  7001de7a    00000006     --HOLE-- [fill = 0]
                  7001de80    0000002a     main.obj (.text.flashFixUpOspiBoot)
                  7001deaa    00000006     --HOLE-- [fill = 0]
                  7001deb0    00000028     nortos.am263px.r5f.ti-arm-clang.debug.lib : CpuId_armv7r.obj (.text.CSL_armR5GetCpuID)
                  7001ded8    00000008     --HOLE-- [fill = 0]
                  7001dee0    00000028     drivers.am263px.r5f.ti-arm-clang.nortos.debug.lib : ospi_v0_lld.obj (.text.OSPI_lld_Transaction_init)
                  7001df08    00000008     --HOLE-- [fill = 0]
                  7001df10    00000028                                                       : ospi_v0_lld.obj (.text.OSPI_lld_clearDualOpCodeMode)
                  7001df38    00000008     --HOLE-- [fill = 0]
                  7001df40    00000028                                                       : ospi_v0_lld.obj (.text.OSPI_lld_enableModeBitsCmd)
                  7001df68    00000008     --HOLE-- [fill = 0]
                  7001df70    00000028                                                       : ospi_v0_lld.obj (.text.OSPI_lld_enableModeBitsRead)
                  7001df98    00000008     --HOLE-- [fill = 0]
                  7001dfa0    00000028                                                       : ospi_v0_lld.obj (.text.OSPI_lld_setDualOpCodeMode)
                  7001dfc8    00000008     --HOLE-- [fill = 0]
                  7001dfd0    00000028                                                       : ospi_v0.obj (.text.OSPI_setCmdDummyCycles)
                  7001dff8    00000008     --HOLE-- [fill = 0]
                  7001e000    00000028                                                       : ospi_v0.obj (.text.OSPI_setCmdExtType)
                  7001e028    00000008     --HOLE-- [fill = 0]
                  7001e030    00000028                                                       : ospi_v0.obj (.text.OSPI_setModeBits)
                  7001e058    00000008     --HOLE-- [fill = 0]
                  7001e060    00000028                                                       : ospi_v0.obj (.text.OSPI_setNumAddrBytes)
                  7001e088    00000008     --HOLE-- [fill = 0]
                  7001e090    00000028                                                       : ospi_v0.obj (.text.OSPI_setPhyEnableSuccess)
                  7001e0b8    00000008     --HOLE-- [fill = 0]
                  7001e0c0    00000028                                                       : ospi_v0.obj (.text.OSPI_setProtocol)
                  7001e0e8    00000008     --HOLE-- [fill = 0]
                  7001e0f0    00000028                                                       : ospi_v0.obj (.text.OSPI_setReadDummyCycles)
                  7001e118    00000008     --HOLE-- [fill = 0]
                  7001e120    00000028     nortos.am263px.r5f.ti-arm-clang.debug.lib : printf.obj (.text.vprintf_)
                  7001e148    00000008     --HOLE-- [fill = 0]
                  7001e150    00000026     drivers.am263px.r5f.ti-arm-clang.nortos.debug.lib : edma.obj (.text.EDMA_disableQdmaEvtRegion)
                  7001e176    0000000a     --HOLE-- [fill = 0]
                  7001e180    00000026                                                       : edma.obj (.text.EDMA_enableQdmaEvtRegion)
                  7001e1a6    0000000a     --HOLE-- [fill = 0]
                  7001e1b0    00000026                                                       : edma.obj (.text.EDMA_getIntrStatusRegion)
                  7001e1d6    0000000a     --HOLE-- [fill = 0]
                  7001e1e0    00000026                                                       : edma.obj (.text.EDMA_intrStatusHighGetRegion)
                  7001e206    0000000a     --HOLE-- [fill = 0]
                  7001e210    00000026                                                       : edma.obj (.text.EDMA_validateIntrObject)
                  7001e236    0000000a     --HOLE-- [fill = 0]
                  7001e240    00000024                                                       : bootloader.obj (.text.Bootloader_CpuInfo_init)
                  7001e264    0000000c     --HOLE-- [fill = 0]
                  7001e270    00000024                                                       : ospi_phy_am26x_lld.obj (.text.CSL_REG32_FEXT_RAW)
                  7001e294    0000000c     --HOLE-- [fill = 0]
                  7001e2a0    00000024                                                       : ospi_v0_lld.obj (.text.CSL_REG32_FEXT_RAW)
                  7001e2c4    0000000c     --HOLE-- [fill = 0]
                  7001e2d0    00000024     board.am263px.r5f.ti-arm-clang.nortos.debug.lib : flash.obj (.text.Flash_getPhyTuningOffset)
                  7001e2f4    0000000c     --HOLE-- [fill = 0]
                  7001e300    00000024                                                     : flash_nor_ospi.obj (.text.Flash_norOspiClose)
                  7001e324    0000000c     --HOLE-- [fill = 0]
                  7001e330    00000024     drivers.am263px.r5f.ti-arm-clang.nortos.debug.lib : i2c_v1_lld.obj (.text.I2CControllerBusBusy)
                  7001e354    0000000c     --HOLE-- [fill = 0]
                  7001e360    00000024                                                       : i2c_v1.obj (.text.I2C_Transaction_init)
                  7001e384    0000000c     --HOLE-- [fill = 0]
                  7001e390    00000024                                                       : ospi_v0.obj (.text.OSPI_clearDualOpCodeMode)
                  7001e3b4    0000000c     --HOLE-- [fill = 0]
                  7001e3c0    00000024                                                       : ospi_edma_lld.obj (.text.OSPI_edmaIsrFxn)
                  7001e3e4    0000000c     --HOLE-- [fill = 0]
                  7001e3f0    00000024                                                       : ospi_v0.obj (.text.OSPI_enableModeBitsCmd)
                  7001e414    0000000c     --HOLE-- [fill = 0]
                  7001e420    00000024                                                       : ospi_v0.obj (.text.OSPI_enableModeBitsRead)
                  7001e444    0000000c     --HOLE-- [fill = 0]
                  7001e450    00000024                                                       : ospi_v0_lld.obj (.text.OSPI_lld_isDecoderChipSelectValid)
                  7001e474    0000000c     --HOLE-- [fill = 0]
                  7001e480    00000024                                                       : soc_rcm.obj (.text.SOC_rcmR5SS0TriggerReset)
                  7001e4a4    0000000c     --HOLE-- [fill = 0]
                  7001e4b0    00000024     nortos.am263px.r5f.ti-arm-clang.debug.lib : SemaphoreP_nortos.obj (.text.SemaphoreP_constructMutex)
                  7001e4d4    0000000c     --HOLE-- [fill = 0]
                  7001e4e0    00000024     ti_drivers_config.obj (.text.System_init)
                  7001e504    0000000c     --HOLE-- [fill = 0]
                  7001e510    00000024     drivers.am263px.r5f.ti-arm-clang.nortos.debug.lib : uart_v0_lld.obj (.text.UART_IsRxTrigLvlValid)
                  7001e534    0000000c     --HOLE-- [fill = 0]
                  7001e540    00000024                                                       : uart_v0_lld.obj (.text.UART_IsStopBitsValid)
                  7001e564    0000000c     --HOLE-- [fill = 0]
                  7001e570    00000024                                                       : uart_v0_lld.obj (.text.UART_IsTxTrigLvlValid)
                  7001e594    00000024     libclang_rt.builtins.a : aeabi_uldivmod.S.obj (.text.__aeabi_uldivmod)
                  7001e5b8    00000008     --HOLE-- [fill = 0]
                  7001e5c0    00000024     nortos.am263px.r5f.ti-arm-clang.debug.lib : printf.obj (.text._out_char)
                  7001e5e4    0000000c     --HOLE-- [fill = 0]
                  7001e5f0    00000022     drivers.am263px.r5f.ti-arm-clang.nortos.debug.lib : bootloader_profile.obj (.text.Bootloader_profileAddCore)
                  7001e612    0000000e     --HOLE-- [fill = 0]
                  7001e620    00000022                                                       : edma.obj (.text.EDMA_channelToParamMap)
                  7001e642    0000000e     --HOLE-- [fill = 0]
                  7001e650    00000022                                                       : ospi_v0_lld.obj (.text.OSPI_lld_param_check)
                  7001e672    0000000e     --HOLE-- [fill = 0]
                  7001e680    00000022                                                       : soc_rcm.obj (.text.SOC_rcmR5SS1TriggerReset)
                  7001e6a2    0000000e     --HOLE-- [fill = 0]
                  7001e6b0    00000022                                                       : i2c_v1_lld.obj (.text.lld_check_param)
                  7001e6d2    0000000e     --HOLE-- [fill = 0]
                  7001e6e0    00000020                                                       : bootloader_uniflash_mcelf.obj (.text.Bootloader_Uniflash_MCELF_flashXIPFile)
                  7001e700    00000020                                                       : bootloader.obj (.text.Bootloader_getMulticoreImageSize)
                  7001e720    00000020     nortos.am263px.r5f.ti-arm-clang.debug.lib : ClockP_nortos.obj (.text.ClockP_isActive)
                  7001e740    00000020                                               : ClockP_nortos.obj (.text.ClockP_usecToTicks)
                  7001e760    00000020     drivers.am263px.r5f.ti-arm-clang.nortos.debug.lib : mcan.obj (.text.HW_RD_FIELD32_RAW)
                  7001e780    00000020                                                       : uart_v0_lld.obj (.text.HW_RD_FIELD32_RAW)
                  7001e7a0    00000020                                                       : ospi_v0_lld.obj (.text.OSPI_lld_readCompleteCallback)
                  7001e7c0    00000020     security.am263px.r5f.ti-arm-clang.nortos.debug.lib : sipc_notify_src.obj (.text.SIPC_insertClientIds)
                  7001e7e0    00000020                                                        : sipc_notify_src.obj (.text.SIPC_readSelfCoreID)
                  7001e800    00000020     ti_drivers_config.obj (.text.System_deinit)
                  7001e820    0000001e     drivers.am263px.r5f.ti-arm-clang.nortos.debug.lib : bootloader_profile.obj (.text.Bootloader_profileUpdateMediaAndClk)
                  7001e83e    00000002     --HOLE-- [fill = 0]
                  7001e840    0000001e     nortos.am263px.r5f.ti-arm-clang.debug.lib : ClockP_nortos.obj (.text.ClockP_Params_init)
                  7001e85e    00000002     --HOLE-- [fill = 0]
                  7001e860    0000001e     drivers.am263px.r5f.ti-arm-clang.nortos.debug.lib : edma.obj (.text.EDMA_getEventStatusHigh)
                  7001e87e    00000002     --HOLE-- [fill = 0]
                  7001e880    0000001e                                                       : i2c_v1_lld.obj (.text.I2CControllerEnable)
                  7001e89e    00000002     --HOLE-- [fill = 0]
                  7001e8a0    0000001e                                                       : i2c_v1_lld.obj (.text.I2CTargetEnable)
                  7001e8be    00000002     --HOLE-- [fill = 0]
                  7001e8c0    0000001e                                                       : mcan.obj (.text.MCAN_setOpMode)
                  7001e8de    00000002     --HOLE-- [fill = 0]
                  7001e8e0    0000001e                                                       : ospi_v0.obj (.text.OSPI_dmaInterruptCallback)
                  7001e8fe    00000002     --HOLE-- [fill = 0]
                  7001e900    0000001e                                                       : ospi_v0_lld.obj (.text.OSPI_getSramLevel)
                  7001e91e    00000002     --HOLE-- [fill = 0]
                  7001e920    0000001e                                                       : ospi_v0_lld.obj (.text.OSPI_getWriteSramLevel)
                  7001e93e    00000002     --HOLE-- [fill = 0]
                  7001e940    0000001e                                                       : ospi_v0.obj (.text.OSPI_interruptCallback)
                  7001e95e    00000002     --HOLE-- [fill = 0]
                  7001e960    0000001e                                                       : ospi_v0_lld.obj (.text.OSPI_lld_getFlashDataBaseAddr)
                  7001e97e    00000002     --HOLE-- [fill = 0]
                  7001e980    0000001e                                                       : ospi_v0_lld.obj (.text.OSPI_lld_getInputClk)
                  7001e99e    00000002     --HOLE-- [fill = 0]
                  7001e9a0    0000001e                                                       : soc.obj (.text.SOC_getSelfCpuClk)
                  7001e9be    00000002     --HOLE-- [fill = 0]
                  7001e9c0    0000001e                                                       : soc.obj (.text.SOC_moduleClockEnable)
                  7001e9de    00000002     --HOLE-- [fill = 0]
                  7001e9e0    0000001e                                                       : uart_v0_lld.obj (.text.UART_breakCtl)
                  7001e9fe    00000002     --HOLE-- [fill = 0]
                  7001ea00    0000001e                                                       : uart_v0_lld.obj (.text.UART_lld_Transaction_deInit)
                  7001ea1e    00000002     --HOLE-- [fill = 0]
                  7001ea20    0000001e                                                       : uart_v0_lld.obj (.text.UART_writeInterrupt)
                  7001ea3e    00000002     --HOLE-- [fill = 0]
                  7001ea40    0000001c     ti_board_open_close.obj (.text.Board_driversOpen)
                  7001ea5c    00000004     --HOLE-- [fill = 0]
                  7001ea60    0000001c     drivers.am263px.r5f.ti-arm-clang.nortos.debug.lib : edma.obj (.text.EDMA_errIntrHighStatusGet)
                  7001ea7c    00000004     --HOLE-- [fill = 0]
                  7001ea80    0000001c                                                       : edma.obj (.text.EDMA_getCCErrStatus)
                  7001ea9c    00000004     --HOLE-- [fill = 0]
                  7001eaa0    0000001c                                                       : edma.obj (.text.EDMA_getErrIntrStatus)
                  7001eabc    00000004     --HOLE-- [fill = 0]
                  7001eac0    0000001c                                                       : edma.obj (.text.EDMA_getEventStatus)
                  7001eadc    00000004     --HOLE-- [fill = 0]
                  7001eae0    0000001c                                                       : edma.obj (.text.EDMA_qdmaGetErrIntrStatus)
                  7001eafc    00000004     --HOLE-- [fill = 0]
                  7001eb00    0000001c                                                       : mcan.obj (.text.MCAN_writeProtectedRegAccessLock)
                  7001eb1c    00000004     --HOLE-- [fill = 0]
                  7001eb20    0000001c                                                       : mcan.obj (.text.MCAN_writeProtectedRegAccessUnlock)
                  7001eb3c    00000004     --HOLE-- [fill = 0]
                  7001eb40    0000001c                                                       : ospi_v0_lld.obj (.text.OSPI_clearInterrupt)
                  7001eb5c    00000004     --HOLE-- [fill = 0]
                  7001eb60    0000001c                                                       : ospi_phy_am26x_lld.obj (.text.OSPI_lld_phyGetTuningData)
                  7001eb7c    00000004     --HOLE-- [fill = 0]
                  7001eb80    0000001c     board.am263px.r5f.ti-arm-clang.nortos.debug.lib : ioexp_tca6416.obj (.text.TCA6416_Params_init)
                  7001eb9c    00000004     --HOLE-- [fill = 0]
                  7001eba0    0000001c     drivers.am263px.r5f.ti-arm-clang.nortos.debug.lib : uart_v0_lld.obj (.text.UART_IsParameter)
                  7001ebbc    00000004     --HOLE-- [fill = 0]
                  7001ebc0    0000001c     ti_dpl_config.obj (.text.putchar_)
                  7001ebdc    0000001c     libsysbm.a : hostrename.c.obj (.text.strlen)
                  7001ebf8    0000001c     libc.a : memcpy32.S.obj (.text:TI_memcpy_small)
                  7001ec14    0000000c     --HOLE-- [fill = 0]
                  7001ec20    0000001a     drivers.am263px.r5f.ti-arm-clang.nortos.debug.lib : i2c_v1.obj (.text.I2C_Params_init)
                  7001ec3a    00000006     --HOLE-- [fill = 0]
                  7001ec40    0000001a                                                       : mcan.obj (.text.MCAN_getOpMode)
                  7001ec5a    00000006     --HOLE-- [fill = 0]
                  7001ec60    0000001a                                                       : ospi_v0_lld.obj (.text.OSPI_lld_setCmdExtType)
                  7001ec7a    00000006     --HOLE-- [fill = 0]
                  7001ec80    0000001a                                                       : soc_rcm.obj (.text.SOC_rcmGetModuleClkDivRegVal)
                  7001ec9a    00000006     --HOLE-- [fill = 0]
                  7001eca0    0000001a                                                       : soc_rcm.obj (.text.SOC_rcmSetR5Clock)
                  7001ecba    00000006     --HOLE-- [fill = 0]
                  7001ecc0    0000001a                                                       : uart_v0_lld.obj (.text.UART_fifoCharGet)
                  7001ecda    00000006     --HOLE-- [fill = 0]
                  7001ece0    0000001a                                                       : uart_v0_lld.obj (.text.UART_timeGuardConfig)
                  7001ecfa    00000006     --HOLE-- [fill = 0]
                  7001ed00    0000001a     ti_board_config.obj (.text.board_flash_reset)
                  7001ed1a    00000006     --HOLE-- [fill = 0]
                  7001ed20    00000018     ti_drivers_open_close.obj (.text.Drivers_close)
                  7001ed38    00000008     --HOLE-- [fill = 0]
                  7001ed40    00000018     ti_drivers_open_close.obj (.text.Drivers_open)
                  7001ed58    00000008     --HOLE-- [fill = 0]
                  7001ed60    00000018     drivers.am263px.r5f.ti-arm-clang.nortos.debug.lib : edma.obj (.text.EDMA_clrCCErr)
                  7001ed78    00000008     --HOLE-- [fill = 0]
                  7001ed80    00000018                                                       : edma.obj (.text.EDMA_isInterruptEnabled)
                  7001ed98    00000008     --HOLE-- [fill = 0]
                  7001eda0    00000018                                                       : bootloader_flash.obj (.text.Flash_imgSeek)
                  7001edb8    00000008     --HOLE-- [fill = 0]
                  7001edc0    00000018                                                       : i2c_v1_lld.obj (.text.I2CControllerDataPut)
                  7001edd8    00000008     --HOLE-- [fill = 0]
                  7001ede0    00000018                                                       : i2c_v1_lld.obj (.text.I2CControllerErr)
                  7001edf8    00000008     --HOLE-- [fill = 0]
                  7001ee00    00000018                                                       : i2c_v1_lld.obj (.text.I2CControllerIntDisableEx)
                  7001ee18    00000008     --HOLE-- [fill = 0]
                  7001ee20    00000018                                                       : i2c_v1_lld.obj (.text.I2CControllerIntEnableEx)
                  7001ee38    00000008     --HOLE-- [fill = 0]
                  7001ee40    00000018                                                       : ospi_v0.obj (.text.OSPI_ReadCmdParams_init)
                  7001ee58    00000008     --HOLE-- [fill = 0]
                  7001ee60    00000018                                                       : ospi_v0.obj (.text.OSPI_Transaction_init)
                  7001ee78    00000008     --HOLE-- [fill = 0]
                  7001ee80    00000018                                                       : ospi_v0.obj (.text.OSPI_WriteCmdParams_init)
                  7001ee98    00000008     --HOLE-- [fill = 0]
                  7001eea0    00000018                                                       : ospi_edma_lld.obj (.text.OSPI_edmaItrStatus)
                  7001eeb8    00000008     --HOLE-- [fill = 0]
                  7001eec0    00000018                                                       : ospi_v0_lld.obj (.text.OSPI_lld_setPhyEnableSuccess)
                  7001eed8    00000008     --HOLE-- [fill = 0]
                  7001eee0    00000018     security.am263px.r5f.ti-arm-clang.nortos.debug.lib : sipc_notify_src.obj (.text.SIPC_mailboxClearAllInt)
                  7001eef8    00000008     --HOLE-- [fill = 0]
                  7001ef00    00000018     drivers.am263px.r5f.ti-arm-clang.nortos.debug.lib : soc_rcm.obj (.text.SOC_rcmSetR5ClockSource)
                  7001ef18    00000008     --HOLE-- [fill = 0]
                  7001ef20    00000018     nortos.am263px.r5f.ti-arm-clang.debug.lib : SemaphoreP_nortos.obj (.text.SemaphoreP_Params_init)
                  7001ef38    00000008     --HOLE-- [fill = 0]
                  7001ef40    00000018     board.am263px.r5f.ti-arm-clang.nortos.debug.lib : ioexp_tca6416.obj (.text.TCA6416_getAttrs)
                  7001ef58    00000008     --HOLE-- [fill = 0]
                  7001ef60    00000018     nortos.am263px.r5f.ti-arm-clang.debug.lib : TimerP_rti_priv.obj (.text.TimerP_getReloadCountPriv)
                  7001ef78    00000008     --HOLE-- [fill = 0]
                  7001ef80    00000018     drivers.am263px.r5f.ti-arm-clang.nortos.debug.lib : uart_v0_lld.obj (.text.UART_divisorLatchDisable)
                  7001ef98    00000008     --HOLE-- [fill = 0]
                  7001efa0    00000018                                                       : uart_v0_lld.obj (.text.UART_modemControlReset)
                  7001efb8    00000008     --HOLE-- [fill = 0]
                  7001efc0    00000018                                                       : uart_v0_lld.obj (.text.UART_putChar)
                  7001efd8    00000018     libc.a : memset32.S.obj (.text:TI_memset_small)
                  7001eff0    00000016     drivers.am263px.r5f.ti-arm-clang.nortos.debug.lib : bootloader_profile.obj (.text.Bootloader_profileUpdateAppimageSize)
                  7001f006    0000000a     --HOLE-- [fill = 0]
                  7001f010    00000016                                                       : bootloader_flash.obj (.text.Flash_imgOpen)
                  7001f026    0000000a     --HOLE-- [fill = 0]
                  7001f030    00000016     security.am263px.r5f.ti-arm-clang.nortos.debug.lib : hsmclient.obj (.text.HsmClient_unregister)
                  7001f046    0000000a     --HOLE-- [fill = 0]
                  7001f050    00000016     drivers.am263px.r5f.ti-arm-clang.nortos.debug.lib : i2c_v1_lld.obj (.text.I2CControllerDisable)
                  7001f066    0000000a     --HOLE-- [fill = 0]
                  7001f070    00000016                                                       : i2c_v1_lld.obj (.text.I2CControllerIntStatusEx)
                  7001f086    0000000a     --HOLE-- [fill = 0]
                  7001f090    00000016                                                       : i2c_v1_lld.obj (.text.I2CControllerStart)
                  7001f0a6    0000000a     --HOLE-- [fill = 0]
                  7001f0b0    00000016                                                       : i2c_v1_lld.obj (.text.I2CControllerStop)
                  7001f0c6    0000000a     --HOLE-- [fill = 0]
                  7001f0d0    00000016                                                       : mcan.obj (.text.MCAN_getTxBufTransmissionStatus)
                  7001f0e6    0000000a     --HOLE-- [fill = 0]
                  7001f0f0    00000016                                                       : ospi_v0_lld.obj (.text.OSPI_lld_isDacEnable)
                  7001f106    0000000a     --HOLE-- [fill = 0]
                  7001f110    00000016                                                       : ospi_v0_lld.obj (.text.OSPI_lld_isPhyEnable)
                  7001f126    0000000a     --HOLE-- [fill = 0]
                  7001f130    00000016     nortos.am263px.r5f.ti-arm-clang.debug.lib : TimerP_rti_priv.obj (.text.TimerP_startPriv)
                  7001f146    0000000a     --HOLE-- [fill = 0]
                  7001f150    00000016                                               : TimerP_rti_priv.obj (.text.TimerP_stopPriv)
                  7001f166    0000000a     --HOLE-- [fill = 0]
                  7001f170    00000016     drivers.am263px.r5f.ti-arm-clang.nortos.debug.lib : uart_v0_lld.obj (.text.UART_divideRoundCloset)
                  7001f186    0000000a     --HOLE-- [fill = 0]
                  7001f190    00000016                                                       : uart_v0_lld.obj (.text.UART_regConfModeRestore)
                  7001f1a6    0000000a     --HOLE-- [fill = 0]
                  7001f1b0    00000014                                                       : bootloader.obj (.text.Bootloader_Params_init)
                  7001f1c4    0000000c     --HOLE-- [fill = 0]
                  7001f1d0    00000014     nortos.am263px.r5f.ti-arm-clang.debug.lib : DebugP_uartLogWriter.obj (.text.DebugP_uartSetDrvIndex)
                  7001f1e4    0000000c     --HOLE-- [fill = 0]
                  7001f1f0    00000014     drivers.am263px.r5f.ti-arm-clang.nortos.debug.lib : edma.obj (.text.HW_WR_REG16_RAW)
                  7001f204    0000000c     --HOLE-- [fill = 0]
                  7001f210    00000014     security.am263px.r5f.ti-arm-clang.nortos.debug.lib : hsmclient.obj (.text.HsmClient_SecureBootQueueInit)
                  7001f224    0000000c     --HOLE-- [fill = 0]
                  7001f230    00000014     drivers.am263px.r5f.ti-arm-clang.nortos.debug.lib : i2c_v1_lld.obj (.text.I2CControllerIntClearEx)
                  7001f244    0000000c     --HOLE-- [fill = 0]
                  7001f250    00000014                                                       : i2c_v1_lld.obj (.text.I2CControllerTargetAddrSet)
                  7001f264    0000000c     --HOLE-- [fill = 0]
                  7001f270    00000014                                                       : i2c_v1_lld.obj (.text.I2CIntVectGet)
                  7001f284    0000000c     --HOLE-- [fill = 0]
                  7001f290    00000014                                                       : i2c_v1_lld.obj (.text.I2COwnAddressSet)
                  7001f2a4    0000000c     --HOLE-- [fill = 0]
                  7001f2b0    00000014                                                       : i2c_v1_lld.obj (.text.I2CSetDataCount)
                  7001f2c4    0000000c     --HOLE-- [fill = 0]
                  7001f2d0    00000014                                                       : ospi_phy_am26x.obj (.text.OSPI_phyGetTuningData)
                  7001f2e4    0000000c     --HOLE-- [fill = 0]
                  7001f2f0    00000014     security.am263px.r5f.ti-arm-clang.nortos.debug.lib : sipc_notify_src.obj (.text.SIPC_mailboxClearPendingIntr)
                  7001f304    0000000c     --HOLE-- [fill = 0]
                  7001f310    00000014     drivers.am263px.r5f.ti-arm-clang.nortos.debug.lib : soc_rcm.obj (.text.SOC_rcmGetModuleClkDivFromRegVal)
                  7001f324    0000000c     --HOLE-- [fill = 0]
                  7001f330    00000014     nortos.am263px.r5f.ti-arm-clang.debug.lib : TimerP_rti_priv.obj (.text.TimerP_clearOverflowIntPriv)
                  7001f344    0000000c     --HOLE-- [fill = 0]
                  7001f350    00000014                                               : TimerP_rti_nortos.obj (.text.TimerP_setup)
                  7001f364    0000000c     --HOLE-- [fill = 0]
                  7001f370    00000012     ti_drivers_config.obj (.text.HsmClient_unRegister)
                  7001f382    0000000e     --HOLE-- [fill = 0]
                  7001f390    00000012     security.am263px.r5f.ti-arm-clang.nortos.debug.lib : hsmclient_loadhsmrt.obj (.text.Hsmclient_updateBootNotificationRegister)
                  7001f3a2    0000000e     --HOLE-- [fill = 0]
                  7001f3b0    00000012     drivers.am263px.r5f.ti-arm-clang.nortos.debug.lib : i2c_v1_lld.obj (.text.I2CControllerDataGet)
                  7001f3c2    0000000e     --HOLE-- [fill = 0]
                  7001f3d0    00000012     ti_pinmux_config.obj (.text.Pinmux_init)
                  7001f3e2    0000000e     --HOLE-- [fill = 0]
                  7001f3f0    00000010     drivers.am263px.r5f.ti-arm-clang.nortos.debug.lib : ospi_phy_am26x_lld.obj (.text.CSL_REG32_WR_RAW)
                  7001f400    00000010                                                       : ospi_v0_lld.obj (.text.CSL_REG32_WR_RAW)
                  7001f410    00000010                                                       : pinmux.obj (.text.CSL_REG32_WR_RAW)
                  7001f420    00000010                                                       : soc.obj (.text.CSL_REG32_WR_RAW)
                  7001f430    00000010     nortos.am263px.r5f.ti-arm-clang.debug.lib : ClockP_nortos_r5.obj (.text.ClockP_getTimerCount)
                  7001f440    00000010                                               : ClockP_nortos_r5.obj (.text.ClockP_timerClearOverflowInt)
                  7001f450    00000010     drivers.am263px.r5f.ti-arm-clang.nortos.debug.lib : bootloader_flash.obj (.text.Flash_imgGetCurOffset)
                  7001f460    00000010                                                       : edma.obj (.text.HW_RD_REG32_RAW)
                  7001f470    00000010                                                       : mcan.obj (.text.HW_RD_REG32_RAW)
                  7001f480    00000010                                                       : uart_v0_lld.obj (.text.HW_RD_REG32_RAW)
                  7001f490    00000010                                                       : edma.obj (.text.HW_WR_REG32_RAW)
                  7001f4a0    00000010                                                       : mcan.obj (.text.HW_WR_REG32_RAW)
                  7001f4b0    00000010                                                       : uart_v0_lld.obj (.text.HW_WR_REG32_RAW)
                  7001f4c0    00000010     security.am263px.r5f.ti-arm-clang.nortos.debug.lib : sipc_notify_src.obj (.text.SIPC_mailboxGetPendingIntr)
                  7001f4d0    00000010     nortos.am263px.r5f.ti-arm-clang.debug.lib : TimerP_rti_nortos.obj (.text.TimerP_Params_init)
                  7001f4e0    00000010                                               : TimerP_rti_nortos.obj (.text.TimerP_clearOverflowInt)
                  7001f4f0    00000010                                               : TimerP_rti_nortos.obj (.text.TimerP_getCount)
                  7001f500    00000010                                               : TimerP_rti_nortos.obj (.text.TimerP_getReloadCount)
                  7001f510    00000010                                               : TimerP_rti_nortos.obj (.text.TimerP_start)
                  7001f520    00000010     libclang_rt.builtins.a : aeabi_memset.S.obj (.text.__aeabi_memset)
                  7001f530    00000010     nortos.am263px.r5f.ti-arm-clang.debug.lib : printf.obj (.text._out_null)
                  7001f540    00000010     libc.a : fputc.c.obj (.text.putchar)
                  7001f550    0000000e     drivers.am263px.r5f.ti-arm-clang.nortos.debug.lib : bootloader_soc.obj (.text.Bootloader_socCpuResetReleaseSelf)
                  7001f55e    00000002     --HOLE-- [fill = 0]
                  7001f560    0000000c                                                       : bootloader_soc.obj (.text.Bootloader_socInitL2MailBoxMemory)
                  7001f56c    00000004     --HOLE-- [fill = 0]
                  7001f570    0000000c                                                       : ospi_phy_am26x_lld.obj (.text.CSL_REG32_RD_RAW)
                  7001f57c    00000004     --HOLE-- [fill = 0]
                  7001f580    0000000c                                                       : ospi_v0_lld.obj (.text.CSL_REG32_RD_RAW)
                  7001f58c    00000004     --HOLE-- [fill = 0]
                  7001f590    0000000c     nortos.am263px.r5f.ti-arm-clang.debug.lib : ClockP_nortos.obj (.text.ClockP_getTicks)
                  7001f59c    00000004     --HOLE-- [fill = 0]
                  7001f5a0    0000000c     ti_power_clock_config.obj (.text.PowerClock_init)
                  7001f5ac    00000004     --HOLE-- [fill = 0]
                  7001f5b0    0000000c     security.am263px.r5f.ti-arm-clang.nortos.debug.lib : sipc_notify_src.obj (.text.SIPC_getSelfCoreId)
                  7001f5bc    00000004     --HOLE-- [fill = 0]
                  7001f5c0    0000000c     libc.a : strcmp32.S.obj (.text)
                  7001f5cc    00000004     --HOLE-- [fill = 0]
                  7001f5d0    0000000a     drivers.am263px.r5f.ti-arm-clang.nortos.debug.lib : bootloader_soc.obj (.text.Bootloader_socCpuRelease)
                  7001f5da    00000006     --HOLE-- [fill = 0]
                  7001f5e0    0000000a                                                       : bootloader_soc.obj (.text.Bootloader_socCpuRequest)
                  7001f5ea    00000006     --HOLE-- [fill = 0]
                  7001f5f0    0000000a                                                       : bootloader_soc.obj (.text.Bootloader_socGetSBLMem)
                  7001f5fa    00000006     --HOLE-- [fill = 0]
                  7001f600    0000000a                                                       : bootloader_flash.obj (.text.Flash_imgClose)
                  7001f60a    00000006     --HOLE-- [fill = 0]
                  7001f610    0000000a     nortos.am263px.r5f.ti-arm-clang.debug.lib : HwiP_armv7r_vim.obj (.text.Hwip_dataAndInstructionBarrier)
                  7001f61a    00000006     --HOLE-- [fill = 0]
                  7001f620    0000000a     main.obj (.text.Keyring_init)
                  7001f62a    00000006     --HOLE-- [fill = 0]
                  7001f630    0000000a     drivers.am263px.r5f.ti-arm-clang.nortos.debug.lib : soc_rcm.obj (.text.SOC_rcmGetBaseAddressMSSRCM)
                  7001f63a    00000006     --HOLE-- [fill = 0]
                  7001f640    0000000a                                                       : uart_dma_edma.obj (.text.UART_edmaDoNothing)
                  7001f64a    00000006     --HOLE-- [fill = 0]
                  7001f650    00000008     ti_drivers_config.obj (.text.Drivers_uartInit)
                  7001f658    00000008     --HOLE-- [fill = 0]
                  7001f660    00000008     ti_power_clock_config.obj (.text.PowerClock_deinit)
                  7001f668    00000008     --HOLE-- [fill = 0]
                  7001f670    00000008     drivers.am263px.r5f.ti-arm-clang.nortos.debug.lib : soc_rcm.obj (.text.SOC_rcmGetBaseAddressMSSCTRL)
                  7001f678    00000008     --HOLE-- [fill = 0]
                  7001f680    00000008                                                       : soc_rcm.obj (.text.SOC_rcmGetBaseAddressTOPCTRL)
                  7001f688    00000008     --HOLE-- [fill = 0]
                  7001f690    00000008                                                       : soc_rcm.obj (.text.SOC_rcmGetBaseAddressTOPRCM)
                  7001f698    00000008     --HOLE-- [fill = 0]
                  7001f6a0    00000008     nortos.am263px.r5f.ti-arm-clang.debug.lib : SemaphoreP_nortos.obj (.text.SemaphoreP_destruct)
                  7001f6a8    00000008     --HOLE-- [fill = 0]
                  7001f6b0    00000006     security.am263px.r5f.ti-arm-clang.nortos.debug.lib : sipc_notify_src.obj (.text.asm_dsb_memory)
                  7001f6b6    0000000a     --HOLE-- [fill = 0]
                  7001f6c0    00000006                                                        : sipc_notify_src.obj (.text.asm_isb_memory)
                  7001f6c6    0000000a     --HOLE-- [fill = 0]
                  7001f6d0    00000002     ti_dpl_config.obj (.text.Dpl_deinit)
                  7001f6d2    0000000e     --HOLE-- [fill = 0]
                  7001f6e0    00000002     ti_drivers_open_close.obj (.text.Drivers_mcanClose)
                  7001f6e2    0000000e     --HOLE-- [fill = 0]
                  7001f6f0    00000002     ti_drivers_open_close.obj (.text.Drivers_mcanOpen)
                  7001f6f2    0000000e     --HOLE-- [fill = 0]
                  7001f700    00000002     nortos.am263px.r5f.ti-arm-clang.debug.lib : TaskP_nortos.obj (.text.TaskP_yield)

.text.hwi 
*          0    7001f710    00000e48     
                  7001f710    000006c0     nortos.am263px.r5f.ti-arm-clang.debug.lib : HwiP_armv7r_vim.obj (.text.hwi)
                  7001fdd0    0000059a                                               : HwiP_armv7r_handlers_nortos.obj (.text.hwi)
                  7002036a    00000002     --HOLE-- [fill = 0]
                  7002036c    0000017c                                               : HwiP_armv7r_handlers_nortos_asm.obj (.text.hwi)
                  700204e8    00000070                                               : HwiP_armv7r_asm.obj (.text.hwi)

.text.cache 
*          0    70020560    00000498     
                  70020560    00000340     nortos.am263px.r5f.ti-arm-clang.debug.lib : CacheP_armv7r_asm.obj (.text.cache)
                  700208a0    00000158                                               : CacheP_armv7r.obj (.text.cache)

.text.mpu 
*          0    70020a00    000003b8     
                  70020a00    00000340     nortos.am263px.r5f.ti-arm-clang.debug.lib : MpuP_armv7r.obj (.text.mpu)
                  70020d40    00000078                                               : MpuP_armv7r_asm.obj (.text.mpu)

.text.boot 
*          0    70020dc0    000001bc     
                  70020dc0    00000144     nortos.am263px.r5f.ti-arm-clang.debug.lib : boot_armv7r_asm.obj (.text.boot)
                  70020f04    0000000c     --HOLE-- [fill = 0]
                  70020f10    00000024                                               : DebugP_log.obj (.text.boot)
                  70020f34    0000000c     --HOLE-- [fill = 0]
                  70020f40    00000024                                               : boot_armv7r.obj (.text.boot)
                  70020f64    0000000c     --HOLE-- [fill = 0]
                  70020f70    0000000c     ti_dpl_config.obj (.text.boot)

.data      0    70020f80    00000b85     
                  70020f80    000000f0     libc.a : defs.c.obj (.data._ftable)
                  70021070    00000098     ti_drivers_config.obj (.data.gOspiAttrs)
                  70021108    00000098     ti_pinmux_config.obj (.data.gPinMuxMainDomainCfg)
                  700211a0    00000088     ti_drivers_config.obj (.data.gEdmaAttrs)
                  70021228    00000084     ti_board_open_close.obj (.data.gFlashDevCfg_IS25LX256)
                  700212ac    00000080     drivers.am263px.r5f.ti-arm-clang.nortos.debug.lib : ospi_phy_am26x_lld.obj (.data.gOspiFlashAttackVector)
                  7002132c    00000080                                                       : ospi_phy_am26x_lld.obj (.data.gReadBuf)
                  700213ac    00000078     libsysbm.a : host_device.c.obj (.data._device)
                  70021424    00000070     drivers.am263px.r5f.ti-arm-clang.nortos.debug.lib : bootloader_soc.obj (.data.gAddrTranslateInfo)
                  70021494    00000064     security.am263px.r5f.ti-arm-clang.nortos.debug.lib : sipc_notify_cfg.obj (.data.gSIPC_InterruptConfig)
                  700214f8    00000058     ti_drivers_open_close.obj (.data.gUartParams)
                  70021550    00000050     libsysbm.a : host_device.c.obj (.data._stream)
                  700215a0    00000050     security.am263px.r5f.ti-arm-clang.nortos.debug.lib : sipc_notify_cfg.obj (.data.gSIPC_HsmMboxConfig)
                  700215f0    00000050                                                        : sipc_notify_cfg.obj (.data.gSIPC_SecureHostMboxConfig)
                  70021640    00000048     drivers.am263px.r5f.ti-arm-clang.nortos.debug.lib : bootloader_can.obj (.data.gCANMsgsList)
                  70021688    0000003c     ti_power_clock_config.obj (.data.gSocModulesClockFrequency)
                  700216c4    00000038     ti_board_open_close.obj (.data.gFlashAttrs_IS25LX256)
                  700216fc    00000030     drivers.am263px.r5f.ti-arm-clang.nortos.debug.lib : bootloader_soc.obj (.data.gCoreBootInfo)
                  7002172c    0000002c     ti_drivers_config.obj (.data.gBootloaderConfig)
                  70021758    00000024     board.am263px.r5f.ti-arm-clang.nortos.debug.lib : flash_nor_ospi.obj (.data.gFlashNorOspiFxns)
                  7002177c    00000024                                                     : flash_nor_ospi.obj (.data.gFlashToSpiProtocolMap)
                  700217a0    00000020     ti_drivers_config.obj (.data.gMcanBitTimingDefaultParams)
                  700217c0    00000018     drivers.am263px.r5f.ti-arm-clang.nortos.debug.lib : soc.obj (.data.SOC_getCoreName.coreIdNames)
                  700217d8    00000018                                                       : bootloader_flash.obj (.data.gBootloaderFlashFxns)
                  700217f0    00000018     ti_dpl_config.obj (.data.gClockConfig)
                  70021808    00000018     drivers.am263px.r5f.ti-arm-clang.nortos.debug.lib : soc_rcm.obj (.data.gControlssPllClkSrcValMap)
                  70021820    00000018                                                       : soc_rcm.obj (.data.gCptsClkSrcValMap)
                  70021838    00000018     ti_board_open_close.obj (.data.gFlashConfig)
                  70021850    00000018     drivers.am263px.r5f.ti-arm-clang.nortos.debug.lib : soc_rcm.obj (.data.gI2cClkSrcValMap)
                  70021868    00000018     ti_drivers_config.obj (.data.gI2cHwAttrs)
                  70021880    00000018     drivers.am263px.r5f.ti-arm-clang.nortos.debug.lib : soc_rcm.obj (.data.gIcssmUartClkSrcValMap)
                  70021898    00000018                                                       : soc_rcm.obj (.data.gLinUartClkSrcValMap)
                  700218b0    00000018                                                       : soc_rcm.obj (.data.gMcSpiClkSrcValMap)
                  700218c8    00000018                                                       : soc_rcm.obj (.data.gMcanClkSrcValMap)
                  700218e0    00000018                                                       : soc_rcm.obj (.data.gMmcClkSrcValMap)
                  700218f8    00000018                                                       : soc_rcm.obj (.data.gOspiClkSrcValMap)
                  70021910    00000018     ti_drivers_config.obj (.data.gOspiDmaRestrictRegions)
                  70021928    00000018     drivers.am263px.r5f.ti-arm-clang.nortos.debug.lib : soc_rcm.obj (.data.gR5SysClkSrcValMap)
                  70021940    00000018                                                       : soc_rcm.obj (.data.gRtiClkSrcValMap)
                  70021958    00000018                                                       : soc_rcm.obj (.data.gWdtClkSrcValMap)
                  70021970    00000014                                                       : i2c_v1.obj (.data.gI2cDrvObj)
                  70021984    00000014                                                       : ospi_v0.obj (.data.gOspiDrvObj)
                  70021998    00000014                                                       : bootloader_soc.obj (.data.gResMemSection)
                  700219ac    00000014     ti_power_clock_config.obj (.data.gSocModules)
                  700219c0    00000014     drivers.am263px.r5f.ti-arm-clang.nortos.debug.lib : uart_v0.obj (.data.gUartDrvObj)
                  700219d4    00000010     ti_drivers_config.obj (.data.gBootloader0Args)
                  700219e4    00000010     drivers.am263px.r5f.ti-arm-clang.nortos.debug.lib : ospi_edma_lld.obj (.data.gOspiDmaEdmaFxns)
                  700219f4    0000000c     nortos.am263px.r5f.ti-arm-clang.debug.lib : AddrTranslateP_32bit.obj (.data.gAddrTranslateConfig)
                  70021a00    0000000c     ti_drivers_open_close.obj (.data.gI2cParams)
                  70021a0c    0000000c     ti_drivers_config.obj (.data.gOspiDmaConfig)
                  70021a18    00000008     libc.a : exit.c.obj (.data..L_MergedGlobals)
                  70021a20    00000008     ti_drivers_config.obj (.data.gEdmaConfig)
                  70021a28    00000008     ti_drivers_open_close.obj (.data.gEdmaParams)
                  70021a30    00000008     ti_board_open_close.obj (.data.gFlashParams)
                  70021a38    00000008     ti_drivers_config.obj (.data.gI2cConfig)
                  70021a40    00000008     ti_drivers_config.obj (.data.gOspiConfig)
                  70021a48    00000008     security.am263px.r5f.ti-arm-clang.nortos.debug.lib : sipc_notify_cfg.obj (.data.gSIPC_QueHsmToSecureHost)
                  70021a50    00000008                                                        : sipc_notify_cfg.obj (.data.gSIPC_QueSecureHostToHsm)
                  70021a58    00000008     ti_drivers_config.obj (.data.gUartAttrs)
                  70021a60    00000008     ti_drivers_config.obj (.data.gUartConfig)
                  70021a68    00000008     ti_drivers_config.obj (.data.operatingMode)
                  70021a70    00000008     nortos.am263px.r5f.ti-arm-clang.debug.lib : PmuP_armv7r.obj (.data.pmu)
                  70021a78    00000004     libc.a : defs.c.obj (.data.__TI_ft_end)
                  70021a7c    00000004            : _lock.c.obj (.data._lock)
                  70021a80    00000004            : _lock.c.obj (.data._unlock)
                  70021a84    00000004     security.am263px.r5f.ti-arm-clang.nortos.debug.lib : hsmclient.obj (.data.gBootNotificationReceived)
                  70021a88    00000004     ti_drivers_config.obj (.data.gBootloaderConfigNum)
                  70021a8c    00000004     nortos.am263px.r5f.ti-arm-clang.debug.lib : DebugP_log.obj (.data.gDebugLogZone)
                  70021a90    00000004                                               : DebugP_uartLogWriter.obj (.data.gDebugP_uartDrvIndex)
                  70021a94    00000004     ti_drivers_config.obj (.data.gEdmaConfigNum)
                  70021a98    00000004     ti_board_open_close.obj (.data.gFlashConfigNum)
                  70021a9c    00000004     security.am263px.r5f.ti-arm-clang.nortos.debug.lib : hsmclient_loadhsmrt.obj (.data.gHsmRtDownloadComplete)
                  70021aa0    00000004                                                        : hsmclient.obj (.data.gHsmrtLoadStatus)
                  70021aa4    00000004     ti_dpl_config.obj (.data.gHwiConfig)
                  70021aa8    00000004     ti_drivers_config.obj (.data.gI2cConfigNum)
                  70021aac    00000004     security.am263px.r5f.ti-arm-clang.nortos.debug.lib : hsmclient.obj (.data.gLastEnqueuedIndex)
                  70021ab0    00000004                                                        : hsmclient.obj (.data.gLastSentIndex)
                  70021ab4    00000004                                                        : hsmclient.obj (.data.gNum_HsmRequestSent)
                  70021ab8    00000004                                                        : hsmclient.obj (.data.gNum_HsmResponseReceived)
                  70021abc    00000004     ti_drivers_config.obj (.data.gOspiConfigNum)
                  70021ac0    00000004     ti_drivers_config.obj (.data.gOspiDmaConfigNum)
                  70021ac4    00000004     ti_drivers_open_close.obj (.data.gOspiParams)
                  70021ac8    00000004     drivers.am263px.r5f.ti-arm-clang.nortos.debug.lib : bootloader_soc.obj (.data.gR5ss0Core1ImagePresent)
                  70021acc    00000004                                                       : bootloader_soc.obj (.data.gR5ss0MemInitDone)
                  70021ad0    00000004                                                       : bootloader_soc.obj (.data.gR5ss1Core1ImagePresent)
                  70021ad4    00000004                                                       : bootloader_soc.obj (.data.gR5ss1MemInitDone)
                  70021ad8    00000004                                                       : bootloader_soc.obj (.data.gR5ss1PORDone)
                  70021adc    00000004     security.am263px.r5f.ti-arm-clang.nortos.debug.lib : hsmclient.obj (.data.gSecureBootStatus)
                  70021ae0    00000004     drivers.am263px.r5f.ti-arm-clang.nortos.debug.lib : bootloader_soc.obj (.data.gStreamId)
                  70021ae4    00000004     ti_drivers_config.obj (.data.gUartConfigNum)
                  70021ae8    00000004     ti_drivers_open_close.obj (.data.gUartDmaChConfig)
                  70021aec    00000004     security.am263px.r5f.ti-arm-clang.nortos.debug.lib : hsmclient.obj (.data.hsm_client_msg_queue_size)
                  70021af0    00000004                                                        : hsmclient_loadhsmrt.obj (.data.ptrMSSCtrlRegs)
                  70021af4    00000004     drivers.am263px.r5f.ti-arm-clang.nortos.debug.lib : bootloader_soc.obj (.data.ptrTopCtrlRegs)
                  70021af8    00000004                                                       : bootloader.obj (.data.vec_size)
                  70021afc    00000004                                                       : bootloader.obj (.data.vector_table_loc)
                  70021b00    00000001                                                       : soc.obj (.data.isMapAvailable)
                  70021b01    00000003     --HOLE-- [fill = 0]
                  70021b04    00000001     libc.a : memory.c.obj (.data.memory_is_initialized)

.rodata    0    70021b08    00001504     
                  70021b08    00000064     ti_dpl_config.obj (.rodata.cfg)
                  70021b6c    00000061     drivers.am263px.r5f.ti-arm-clang.nortos.debug.lib : bootloader.obj (.rodata.str1.10218919752055685820.1)
                  70021bcd    00000003     main.obj (.rodata.str1.17100691992556644108.1)
                  70021bd0    00000050     nortos.am263px.r5f.ti-arm-clang.debug.lib : printf.obj (.rodata._ftoa.pow10)
                  70021c20    00000048     drivers.am263px.r5f.ti-arm-clang.nortos.debug.lib : soc_rcm.obj (.rodata.gADPLLJConfigTbl)
                  70021c68    00000046     board.am263px.r5f.ti-arm-clang.nortos.debug.lib : flash_nor_ospi.obj (.rodata.str1.13779914010620811852.1)
                  70021cae    00000042     drivers.am263px.r5f.ti-arm-clang.nortos.debug.lib : soc_rcm.obj (.rodata.str1.6995560061672649380.1)
                  70021cf0    00000042                                                       : soc_rcm.obj (.rodata.str1.8407350469959805165.1)
                  70021d32    00000042                                                       : soc_rcm.obj (.rodata.str1.9492239733735185226.1)
                  70021d74    00000041     security.am263px.r5f.ti-arm-clang.nortos.debug.lib : hsmclient.obj (.rodata.str1.6860530134828891372.1)
                  70021db5    00000003     drivers.am263px.r5f.ti-arm-clang.nortos.debug.lib : bootloader_profile.obj (.rodata.str1.8473622371870992188.1)
                  70021db8    00000040                                                       : mcan.obj (.rodata.gDataSize)
                  70021df8    00000040                                                       : soc_rcm.obj (.rodata.str1.10455832150672089953.1)
                  70021e38    00000040                                                       : bootloader_can.obj (.rodata.str1.7564021324061838394.1)
                  70021e78    0000003e                                                       : bootloader_profile.obj (.rodata.str1.12128280208344349982.1)
                  70021eb6    0000003e                                                       : bootloader_profile.obj (.rodata.str1.7542300954813231692.1)
                  70021ef4    0000003d     nortos.am263px.r5f.ti-arm-clang.debug.lib : TimerP_rti_priv.obj (.rodata.str1.11388379688747141303.1)
                  70021f31    0000003d     security.am263px.r5f.ti-arm-clang.nortos.debug.lib : hsmclient.obj (.rodata.str1.7828111062026553345.1)
                  70021f6e    0000003c     drivers.am263px.r5f.ti-arm-clang.nortos.debug.lib : bootloader_can.obj (.rodata.str1.3077481831105756175.1)
                  70021faa    0000003c     security.am263px.r5f.ti-arm-clang.nortos.debug.lib : hsmclient.obj (.rodata.str1.9403394270237628570.1)
                  70021fe6    0000003b     drivers.am263px.r5f.ti-arm-clang.nortos.debug.lib : bootloader_profile.obj (.rodata.str1.11641127682323724390.1)
                  70022021    00000038                                                       : bootloader_profile.obj (.rodata.str1.10011185142925992937.1)
                  70022059    00000038     ti_drivers_open_close.obj (.rodata.str1.7750254725308216577.1)
                  70022091    00000037     drivers.am263px.r5f.ti-arm-clang.nortos.debug.lib : bootloader_hsmRt_load.obj (.rodata.str1.12375796919973758842.1)
                  700220c8    00000036                                                       : bootloader_hsmRt_load.obj (.rodata.str1.14484052729778540281.1)
                  700220fe    00000036     ti_board_open_close.obj (.rodata.str1.760704006985994805.1)
                  70022134    00000035     ti_drivers_open_close.obj (.rodata.str1.10252002122772422448.1)
                  70022169    00000035     drivers.am263px.r5f.ti-arm-clang.nortos.debug.lib : bootloader_profile.obj (.rodata.str1.12783125186691083700.1)
                  7002219e    00000035     ti_drivers_open_close.obj (.rodata.str1.2554706296470369595.1)
                  700221d3    00000035     ti_drivers_open_close.obj (.rodata.str1.871795152488895636.1)
                  70022208    00000034     drivers.am263px.r5f.ti-arm-clang.nortos.debug.lib : soc_rcm.obj (.rodata.str1.6320624314545346468.1)
                  7002223c    00000033     main.obj (.rodata.str1.15996357275703397564.1)
                  7002226f    00000032     drivers.am263px.r5f.ti-arm-clang.nortos.debug.lib : bootloader.obj (.rodata.str1.15526777834658975876.1)
                  700222a1    00000031                                                       : bootloader_profile.obj (.rodata.str1.10898170017834132210.1)
                  700222d2    00000031                                                       : bootloader_profile.obj (.rodata.str1.16122531525948675393.1)
                  70022303    00000031                                                       : soc_rcm.obj (.rodata.str1.17917365173342587755.1)
                  70022334    0000002c                                                       : i2c_v1.obj (.rodata.I2C_defaultTransaction)
                  70022360    0000002c     security.am263px.r5f.ti-arm-clang.nortos.debug.lib : hsmclient.obj (.rodata.str1.13408186326143254281.1)
                  7002238c    0000002c     drivers.am263px.r5f.ti-arm-clang.nortos.debug.lib : bootloader.obj (.rodata.str1.17709848550151440161.1)
                  700223b8    0000002c                                                       : bootloader_soc.obj (.rodata.str1.758133230464634327.1)
                  700223e4    0000002a                                                       : bootloader_hsmRt_load.obj (.rodata.str1.15781484254665038843.1)
                  7002240e    0000002a     nortos.am263px.r5f.ti-arm-clang.debug.lib : DebugP_log.obj (.rodata.str1.227947788441500939.1)
                  70022438    00000028     drivers.am263px.r5f.ti-arm-clang.nortos.debug.lib : soc_rcm.obj (.rodata.str1.13550309975525380474.1)
                  70022460    00000028                                                       : bootloader_soc.obj (.rodata.str1.13597811311604317403.1)
                  70022488    00000027     nortos.am263px.r5f.ti-arm-clang.debug.lib : ClockP_nortos_r5.obj (.rodata.str1.12743090444791882666.1)
                  700224af    00000027     drivers.am263px.r5f.ti-arm-clang.nortos.debug.lib : soc_rcm.obj (.rodata.str1.15254166369472350524.1)
                  700224d6    00000027                                                       : soc_rcm.obj (.rodata.str1.6544491175687285993.1)
                  700224fd    00000027                                                       : soc_rcm.obj (.rodata.str1.6883917863849351830.1)
                  70022524    00000024                                                       : edma.obj (.rodata.str1.11535555375892780929.1)
                  70022548    00000024                                                       : soc_rcm.obj (.rodata.str1.14690907752718593297.1)
                  7002256c    00000024                                                       : bootloader_hsmRt_load.obj (.rodata.str1.15233958391154112668.1)
                  70022590    00000024                                                       : soc_rcm.obj (.rodata.str1.4724400533006430171.1)
                  700225b4    00000023                                                       : soc_rcm.obj (.rodata.str1.2078190104202520215.1)
                  700225d7    00000023     nortos.am263px.r5f.ti-arm-clang.debug.lib : ClockP_nortos_r5.obj (.rodata.str1.7689125538912326484.1)
                  700225fa    00000022     drivers.am263px.r5f.ti-arm-clang.nortos.debug.lib : edma.obj (.rodata.str1.12976018205622752890.1)
                  7002261c    00000021     nortos.am263px.r5f.ti-arm-clang.debug.lib : ClockP_nortos_r5.obj (.rodata.str1.8559540482768925367.1)
                  7002263d    00000002     drivers.am263px.r5f.ti-arm-clang.nortos.debug.lib : soc_rcm.obj (.rodata.gCR5ClkSrcInfoMap)
                  7002263f    00000001     --HOLE-- [fill = 0]
                  70022640    00000020                                                       : mcan.obj (.rodata.gMsgObjSize)
                  70022660    00000020                                                       : ospi_v0_lld.obj (.rodata.gTable)
                  70022680    00000020                                                       : uart_v0.obj (.rodata.str1.16594507886308206351.1)
                  700226a0    00000020                                                       : bootloader_hsmRt_load.obj (.rodata.str1.17514089804878980774.1)
                  700226c0    0000001f     nortos.am263px.r5f.ti-arm-clang.debug.lib : ClockP_nortos_r5.obj (.rodata.str1.2746619892315392655.1)
                  700226df    0000001e     main.obj (.rodata.str1.14112174005742061988.1)
                  700226fd    0000001e     drivers.am263px.r5f.ti-arm-clang.nortos.debug.lib : soc_rcm.obj (.rodata.str1.14548009026550256494.1)
                  7002271b    0000001e     ti_drivers_config.obj (.rodata.str1.7767457247551078139.1)
                  70022739    0000001d     drivers.am263px.r5f.ti-arm-clang.nortos.debug.lib : bootloader_soc.obj (.rodata.str1.12326270906577760919.1)
                  70022756    0000001d     nortos.am263px.r5f.ti-arm-clang.debug.lib : TimerP_rti_priv.obj (.rodata.str1.1727973701797049581.1)
                  70022773    0000001d                                               : TimerP_rti_priv.obj (.rodata.str1.4425773406285945039.1)
                  70022790    0000001d     drivers.am263px.r5f.ti-arm-clang.nortos.debug.lib : uart_v0.obj (.rodata.str1.4697665093340446018.1)
                  700227ad    0000001d                                                       : bootloader.obj (.rodata.str1.5963387784432681875.1)
                  700227ca    0000001d     board.obj (.rodata.str1.6418571003999367838.1)
                  700227e7    0000001d     nortos.am263px.r5f.ti-arm-clang.debug.lib : TimerP_rti_priv.obj (.rodata.str1.7297095892955669843.1)
                  70022804    0000001d     drivers.am263px.r5f.ti-arm-clang.nortos.debug.lib : ospi_v0.obj (.rodata.str1.9709051275431913386.1)
                  70022821    0000001c                                                       : bootloader_can.obj (.rodata.str1.13532410931443344374.1)
                  7002283d    0000001b                                                       : bootloader_soc.obj (.rodata.str1.12772591696291441472.1)
                  70022858    0000001b     main.obj (.rodata.str1.14402440632258215044.1)
                  70022873    0000001b     drivers.am263px.r5f.ti-arm-clang.nortos.debug.lib : edma.obj (.rodata.str1.16672221102796607080.1)
                  7002288e    0000001b                                                       : soc_rcm.obj (.rodata.str1.3692981583693152116.1)
                  700228a9    0000001b                                                       : bootloader_can.obj (.rodata.str1.7819334394367145010.1)
                  700228c4    0000001a     board.obj (.rodata.str1.10345935079445805060.1)
                  700228de    0000001a     main.obj (.rodata.str1.12180500075719773345.1)
                  700228f8    0000001a     drivers.am263px.r5f.ti-arm-clang.nortos.debug.lib : bootloader_can.obj (.rodata.str1.15512110733839908029.1)
                  70022912    0000001a                                                       : soc_rcm.obj (.rodata.str1.16907879152045164286.1)
                  7002292c    0000001a                                                       : i2c_v1.obj (.rodata.str1.2708024660006642838.1)
                  70022946    0000001a     nortos.am263px.r5f.ti-arm-clang.debug.lib : ClockP_nortos_r5.obj (.rodata.str1.3810757863367538396.1)
                  70022960    0000001a     drivers.am263px.r5f.ti-arm-clang.nortos.debug.lib : bootloader_hsmRt_load.obj (.rodata.str1.6398333492730878928.1)
                  7002297a    0000001a                                                       : bootloader_soc.obj (.rodata.str1.6530055611811043708.1)
                  70022994    0000001a                                                       : edma.obj (.rodata.str1.7525109154754115535.1)
                  700229ae    00000019     nortos.am263px.r5f.ti-arm-clang.debug.lib : TimerP_rti_priv.obj (.rodata.str1.5494506574634759136.1)
                  700229c7    00000001     --HOLE-- [fill = 0]
                  700229c8    00000018     drivers.am263px.r5f.ti-arm-clang.nortos.debug.lib : i2c_v1_lld.obj (.rodata.I2C_lld_defaultMessage)
                  700229e0    00000018                                                       : soc_rcm.obj (.rodata.gPeripheralClkSrcInfoMap)
                  700229f8    00000018                                                       : i2c_v1.obj (.rodata.str1.16369086400766814308.1)
                  70022a10    00000018                                                       : uart_v0.obj (.rodata.str1.16507871919775359273.1)
                  70022a28    00000018                                                       : soc_rcm.obj (.rodata.str1.17101430071927342085.1)
                  70022a40    00000018     ti_drivers_config.obj (.rodata.str1.2211846465855763212.1)
                  70022a58    00000018     drivers.am263px.r5f.ti-arm-clang.nortos.debug.lib : soc_rcm.obj (.rodata.str1.2233712739639673237.1)
                  70022a70    00000018                                                       : soc_rcm.obj (.rodata.str1.2918502748189006786.1)
                  70022a88    00000018                                                       : soc_rcm.obj (.rodata.str1.3545355937057541302.1)
                  70022aa0    00000018                                                       : i2c_v1.obj (.rodata.str1.4713777613235169076.1)
                  70022ab8    00000018                                                       : i2c_v1.obj (.rodata.str1.706085228479171695.1)
                  70022ad0    00000017                                                       : soc_rcm.obj (.rodata.str1.10238261936043285561.1)
                  70022ae7    00000017                                                       : soc_rcm.obj (.rodata.str1.1263028196474875090.1)
                  70022afe    00000017                                                       : soc_rcm.obj (.rodata.str1.14566101093493230310.1)
                  70022b15    00000016                                                       : ospi_v0.obj (.rodata.str1.11859302641611729341.1)
                  70022b2b    00000016                                                       : bootloader.obj (.rodata.str1.14376141685787114521.1)
                  70022b41    00000016     board.obj (.rodata.str1.15710912057274121847.1)
                  70022b57    00000016     drivers.am263px.r5f.ti-arm-clang.nortos.debug.lib : soc_rcm.obj (.rodata.str1.15837709475095375462.1)
                  70022b6d    00000016                                                       : soc_rcm.obj (.rodata.str1.18101715471844446405.1)
                  70022b83    00000016                                                       : soc_rcm.obj (.rodata.str1.503491203257075565.1)
                  70022b99    00000016                                                       : soc_rcm.obj (.rodata.str1.7023207857097194628.1)
                  70022baf    00000015                                                       : bootloader_profile.obj (.rodata.str1.11504950858693018614.1)
                  70022bc4    00000015                                                       : soc_rcm.obj (.rodata.str1.14531647829147925505.1)
                  70022bd9    00000015                                                       : soc_rcm.obj (.rodata.str1.2452496540137352989.1)
                  70022bee    00000015                                                       : edma.obj (.rodata.str1.9771253703579349310.1)
                  70022c03    00000014                                                       : edma.obj (.rodata.str1.14977302951450442404.1)
                  70022c17    00000014                                                       : edma.obj (.rodata.str1.16586217098785273673.1)
                  70022c2b    00000014                                                       : edma.obj (.rodata.str1.6479261940699871955.1)
                  70022c3f    00000013                                                       : soc_rcm.obj (.rodata.str1.1513614241493853460.1)
                  70022c52    00000013                                                       : uart_v0.obj (.rodata.str1.8511823138002593779.1)
                  70022c65    00000012                                                       : uart_v0.obj (.rodata.str1.10085477686273322470.1)
                  70022c77    00000012                                                       : soc_rcm.obj (.rodata.str1.13766728229239614249.1)
                  70022c89    00000012                                                       : ospi_v0.obj (.rodata.str1.18098494674240039306.1)
                  70022c9b    00000012                                                       : uart_v0.obj (.rodata.str1.1906408950570946892.1)
                  70022cad    00000012     main.obj (.rodata.str1.288608917962107522.1)
                  70022cbf    00000012     drivers.am263px.r5f.ti-arm-clang.nortos.debug.lib : bootloader.obj (.rodata.str1.4238517662877779100.1)
                  70022cd1    00000012     board.am263px.r5f.ti-arm-clang.nortos.debug.lib : flash_nor_ospi.obj (.rodata.str1.4376659186122576720.1)
                  70022ce3    00000012     drivers.am263px.r5f.ti-arm-clang.nortos.debug.lib : soc_rcm.obj (.rodata.str1.6089483996110695684.1)
                  70022cf5    00000012                                                       : edma.obj (.rodata.str1.8988798825313313125.1)
                  70022d07    00000011     ti_drivers_open_close.obj (.rodata.str1.12213835641041270557.1)
                  70022d18    00000011     drivers.am263px.r5f.ti-arm-clang.nortos.debug.lib : edma.obj (.rodata.str1.13359792024450833872.1)
                  70022d29    00000011     ti_drivers_open_close.obj (.rodata.str1.17021506947730909760.1)
                  70022d3a    00000011     drivers.am263px.r5f.ti-arm-clang.nortos.debug.lib : uart_v0.obj (.rodata.str1.18277465892467933209.1)
                  70022d4b    00000011     ti_drivers_open_close.obj (.rodata.str1.6292539624901818759.1)
                  70022d5c    00000011     ti_drivers_config.obj (.rodata.str1.6903391077677833475.1)
                  70022d6d    00000011     drivers.am263px.r5f.ti-arm-clang.nortos.debug.lib : edma.obj (.rodata.str1.7198617623142260305.1)
                  70022d7e    00000011     nortos.am263px.r5f.ti-arm-clang.debug.lib : TimerP_rti_priv.obj (.rodata.str1.7786169893402823657.1)
                  70022d8f    00000010     drivers.am263px.r5f.ti-arm-clang.nortos.debug.lib : i2c_v1.obj (.rodata.str1.15304174031418066064.1)
                  70022d9f    00000010                                                       : edma.obj (.rodata.str1.16687974986316968853.1)
                  70022daf    00000010     ti_board_open_close.obj (.rodata.str1.1844215614325442070.1)
                  70022dbf    00000010     ti_drivers_open_close.obj (.rodata.str1.6437641722977580707.1)
                  70022dcf    0000000f     drivers.am263px.r5f.ti-arm-clang.nortos.debug.lib : i2c_v1.obj (.rodata.str1.11436736645546584573.1)
                  70022dde    0000000f                                                       : edma.obj (.rodata.str1.12381575634899622488.1)
                  70022ded    0000000f                                                       : edma.obj (.rodata.str1.15707078201242323249.1)
                  70022dfc    0000000f                                                       : edma.obj (.rodata.str1.2781376525681532154.1)
                  70022e0b    0000000f                                                       : edma.obj (.rodata.str1.4907917467944964367.1)
                  70022e1a    0000000e                                                       : edma.obj (.rodata.str1.1669868279207928169.1)
                  70022e28    0000000e                                                       : edma.obj (.rodata.str1.6128441279204879358.1)
                  70022e36    0000000e                                                       : edma.obj (.rodata.str1.6928588723460450634.1)
                  70022e44    0000000e                                                       : bootloader_profile.obj (.rodata.str1.815047616517892051.1)
                  70022e52    0000000d                                                       : edma.obj (.rodata.str1.14657363906792235350.1)
                  70022e5f    0000000d     nortos.am263px.r5f.ti-arm-clang.debug.lib : TimerP_rti_priv.obj (.rodata.str1.15140844044942405278.1)
                  70022e6c    0000000d     main.obj (.rodata.str1.8154729771448623357.1)
                  70022e79    00000003     --HOLE-- [fill = 0]
                  70022e7c    0000000c     drivers.am263px.r5f.ti-arm-clang.nortos.debug.lib : soc_rcm.obj (.rodata.gPLLFreqId2FOutMap)
                  70022e88    0000000c     nortos.am263px.r5f.ti-arm-clang.debug.lib : ClockP_nortos_r5.obj (.rodata.str1.13463193513887205357.1)
                  70022e94    0000000c     drivers.am263px.r5f.ti-arm-clang.nortos.debug.lib : ospi_v0.obj (.rodata.str1.1381366092953500863.1)
                  70022ea0    0000000c     main.obj (.rodata.str1.15159059442110792349.1)
                  70022eac    0000000c     main.obj (.rodata.str1.18227636981041470289.1)
                  70022eb8    0000000c     drivers.am263px.r5f.ti-arm-clang.nortos.debug.lib : edma.obj (.rodata.str1.8587431144907355806.1)
                  70022ec4    0000000b                                                       : uart_v0.obj (.rodata.str1.1151567497034493012.1)
                  70022ecf    0000000b                                                       : edma.obj (.rodata.str1.597652134494230196.1)
                  70022eda    0000000b                                                       : uart_v0.obj (.rodata.str1.6746041542798830823.1)
                  70022ee5    0000000b     board.obj (.rodata.str1.9453984286452795027.1)
                  70022ef0    0000000a     ti_board_open_close.obj (.rodata.str1.12245025114167949655.1)
                  70022efa    0000000a     drivers.am263px.r5f.ti-arm-clang.nortos.debug.lib : edma.obj (.rodata.str1.1531866724018994888.1)
                  70022f04    0000000a                                                       : edma.obj (.rodata.str1.15529668034699970473.1)
                  70022f0e    0000000a                                                       : ospi_v0.obj (.rodata.str1.2522741049104592306.1)
                  70022f18    0000000a     main.obj (.rodata.str1.2846389346932560359.1)
                  70022f22    0000000a     drivers.am263px.r5f.ti-arm-clang.nortos.debug.lib : i2c_v1.obj (.rodata.str1.3288561361854740495.1)
                  70022f2c    0000000a                                                       : soc_rcm.obj (.rodata.str1.3349473071634452315.1)
                  70022f36    0000000a                                                       : bootloader_profile.obj (.rodata.str1.5589998758638195867.1)
                  70022f40    0000000a                                                       : ospi_v0.obj (.rodata.str1.6252689431402132518.1)
                  70022f4a    0000000a                                                       : bootloader_profile.obj (.rodata.str1.7850315960985325470.1)
                  70022f54    0000000a                                                       : uart_v0.obj (.rodata.str1.7892831408302009747.1)
                  70022f5e    0000000a                                                       : uart_v0.obj (.rodata.str1.8477608605346433529.1)
                  70022f68    00000009                                                       : i2c_v1.obj (.rodata.str1.6120977755438783109.1)
                  70022f71    00000009     main.obj (.rodata.str1.7702501944640899365.1)
                  70022f7a    00000002     --HOLE-- [fill = 0]
                  70022f7c    00000008     drivers.am263px.r5f.ti-arm-clang.nortos.debug.lib : mcan.obj (.rodata.gMcanOffsetAddr)
                  70022f84    00000008                                                       : soc_rcm.obj (.rodata.gXTALInfo)
                  70022f8c    00000008                                                       : bootloader_profile.obj (.rodata.str1.12702259841437340804.1)
                  70022f94    00000008                                                       : bootloader_profile.obj (.rodata.str1.14812433315294294563.1)
                  70022f9c    00000008                                                       : soc.obj (.rodata.str1.14910504016491482532.1)
                  70022fa4    00000008     main.obj (.rodata.str1.16265332423659789559.1)
                  70022fac    00000007     drivers.am263px.r5f.ti-arm-clang.nortos.debug.lib : soc.obj (.rodata.str1.12179086363571468349.1)
                  70022fb3    00000007                                                       : soc.obj (.rodata.str1.12254199422641571827.1)
                  70022fba    00000007                                                       : soc.obj (.rodata.str1.15593236263752157262.1)
                  70022fc1    00000007                                                       : soc.obj (.rodata.str1.17262473269405332311.1)
                  70022fc8    00000007                                                       : soc.obj (.rodata.str1.17795343983633703126.1)
                  70022fcf    00000006                                                       : soc_rcm.obj (.rodata.str1.12246138248821672736.1)
                  70022fd5    00000006                                                       : bootloader_can.obj (.rodata.str1.1479592885919460657.1)
                  70022fdb    00000005                                                       : bootloader_profile.obj (.rodata.str1.13129104178328155083.1)
                  70022fe0    00000005                                                       : bootloader_profile.obj (.rodata.str1.2835458291861791747.1)
                  70022fe5    00000005                                                       : bootloader_profile.obj (.rodata.str1.5214204957232506372.1)
                  70022fea    00000005     main.obj (.rodata.str1.8309300403304547201.1)
                  70022fef    00000005     nortos.am263px.r5f.ti-arm-clang.debug.lib : printf.obj (.rodata.str1.8544352122861784523.1)
                  70022ff4    00000005                                               : printf.obj (.rodata.str1.8812429412984920041.1)
                  70022ff9    00000003     --HOLE-- [fill = 0]
                  70022ffc    00000004                                               : CacheP_armv7r.obj (.rodata.gCacheL1dCacheLineSize)
                  70023000    00000004                                               : CacheP_armv7r.obj (.rodata.gCacheL1pCacheLineSize)
                  70023004    00000004                                               : printf.obj (.rodata.str1.13278797451342649413.1)
                  70023008    00000004                                               : printf.obj (.rodata.str1.17155598869870286803.1)

.bss       0    70023080    000193f8     UNINITIALIZED
                  70023080    0000e080     (.common:gPHTBuffer)
                  70031100    00008000     main.obj (.bss)
                  70039100    00001000     (.common:gX509Cert)
                  7003a100    0000080c     (.common:gHwiCtrl)
                  7003a90c    00000004     nortos.am263px.r5f.ti-arm-clang.debug.lib : HwiP_armv7r_vim.obj (.bss.gdummy)
                  7003a910    00000340     ti_drivers_config.obj (.bss.sipc_hsm_queue_mem)
                  7003ac50    00000340     ti_drivers_config.obj (.bss.sipc_secure_host_queue_mem)
                  7003af90    00000340     (.common:gHsmClientMsgQueue)
                  7003b2d0    0000002c     (.common:gHSMClient)
                  7003b2fc    00000004     libc.a : memory.c.obj (.bss.sys_free)
                  7003b300    00000300     (.common:vec_addrs)
                  7003b600    00000280     (.common:gNoteSegBuffer)
                  7003b880    00000240     (.common:gSecureBootStreamArray)
                  7003bac0    000001b0     ti_drivers_config.obj (.bss.gUartObjects)
                  7003bc70    00000144     ti_drivers_config.obj (.bss.gOspiObjects)
                  7003bdb4    00000120     libsysbm.a : trgmsg.c.obj (.bss:_CIOBUF_)
                  7003bed4    00000118     (.common:gProfileObj)
                  7003bfec    000000e8     ti_drivers_config.obj (.bss.gI2cObjects)
                  7003c0d4    000000b0     ti_drivers_config.obj (.bss.gEdmaObjects)
                  7003c184    000000a0     libc.a : defs.c.obj (.bss.__TI_tmpnams)
                  7003c224    00000044     (.common:gSIPC_ctrl)
                  7003c268    00000014     (.common:gFlashObject_IS25LX256)
                  7003c27c    00000004     (.common:gEdmaHandle)
                  7003c280    00000080     (.common:gElfHBuffer)
                  7003c300    00000068     (.common:grxMsg)
                  7003c368    00000064     (.common:gtxMsg)
                  7003c3cc    00000038     (.common:gOspiEdmaArgs)
                  7003c404    00000024     board.obj (.bss.gTCA6416_Config)
                  7003c428    00000020     (.common:gClockCtrl)
                  7003c448    00000010     (.common:virtToPhymap)
                  7003c458    00000008     libsysbm.a : hostopen.c.obj (.bss.parmbuf)
                  7003c460    00000004     (.common:gFlashHandle)
                  7003c464    00000004     (.common:gI2cHandle)
                  7003c468    00000004     (.common:gMcanBaseAddr)
                  7003c46c    00000004     (.common:gOspiHandle)
                  7003c470    00000004     (.common:gRunApp)
                  7003c474    00000004     (.common:gUartHandle)

.stack     0    7003c478    00002000     UNINITIALIZED
                  7003c478    00000004     nortos.am263px.r5f.ti-arm-clang.debug.lib : boot_armv7r_asm.obj (.stack)
                  7003c47c    00001ffc     --HOLE--

.sysmem    0    7003e478    00002000     UNINITIALIZED
                  7003e478    00000010     libc.a : memory.c.obj (.sysmem)
                  7003e488    00001ff0     --HOLE--

.irqstack 
*          0    70040478    00000100     UNINITIALIZED
                  70040478    00000100     --HOLE--

.fiqstack 
*          0    70040578    00000100     UNINITIALIZED
                  70040578    00000100     --HOLE--

.svcstack 
*          0    70040678    00001000     UNINITIALIZED
                  70040678    00001000     --HOLE--

.abortstack 
*          0    70041678    00000100     UNINITIALIZED
                  70041678    00000100     --HOLE--

.undefinedstack 
*          0    70041778    00000100     UNINITIALIZED
                  70041778    00000100     --HOLE--

.rodata.hsmrt 
*          0    70050000    0000a6e4     
                  70050000    0000a6e4     main.obj (.rodata.hsmrt)

.bss.filebuf 
*          0    70090000    00170000     NOLOAD SECTION
                  70090000    00170000     main.obj (.bss.filebuf)

__llvm_prf_cnts 
*          0    70002100    00000000     UNINITIALIZED

__llvm_prf_bits 
*          0    70002100    00000000     UNINITIALIZED

MODULE SUMMARY

       Module                                code     ro data   rw data
       ------                                ----     -------   -------
    obj/debug/
       main.obj                              1146     42948     1540100
       ti_drivers_config.obj                 266      71        4848   
       ti_drivers_open_close.obj             1042     282       132    
       ti_board_open_close.obj               298      80        248    
       ti_power_clock_config.obj             264      0         80     
       board.obj                             192      88        36     
       ti_dpl_config.obj                     110      100       28     
       ti_pinmux_config.obj                  18       0         152    
       ti_clocktree_pll_config.obj           88       0         0      
       ti_board_config.obj                   26       0         0      
    +--+-------------------------------------+--------+---------+---------+
       Total:                                3450     43569     1545624
                                                                       
    /home/epswbld5/ti/ccs2030/ccs/tools/compiler/ti-cgt-armllvm_4.0.3.LTS/lib/armv7r-ti-none-eabihf/c/libc.a
       memory.c.obj                          1136     0         5      
       strcmp32.S.obj                        924      0         0      
       defs.c.obj                            0        0         404    
       setvbuf.c.obj                         324      0         0      
       getdevice.c.obj                       284      0         0      
       fputc.c.obj                           256      0         0      
       fseek.c.obj                           184      0         0      
       fclose.c.obj                          176      0         0      
       _io_perm.c.obj                        156      0         0      
       fflush.c.obj                          136      0         0      
       exit.c.obj                            92       0         8      
       fopen.c.obj                           88       0         0      
       autoinit.c.obj                        84       0         0      
       memcmp.c.obj                          64       0         0      
       memcpy32.S.obj                        28       0         0      
       memset32.S.obj                        24       0         0      
       _lock.c.obj                           4        0         8      
    +--+-------------------------------------+--------+---------+---------+
       Total:                                3960     0         425    
                                                                       
    /home/epswbld5/ti/ccs2030/ccs/tools/compiler/ti-cgt-armllvm_4.0.3.LTS/lib/armv7r-ti-none-eabihf/c/libsysbm.a
       trgmsg.c.obj                          176      0         288    
       hostrename.c.obj                      216      0         0      
       host_device.c.obj                     0        0         200    
       hostopen.c.obj                        148      0         8      
       hostlseek.c.obj                       152      0         0      
       close.c.obj                           140      0         0      
       hostread.c.obj                        132      0         0      
       hostwrite.c.obj                       132      0         0      
       hostunlink.c.obj                      108      0         0      
       hostclose.c.obj                       96       0         0      
       unlink.c.obj                          72       0         0      
       lseek.c.obj                           52       0         0      
       write.c.obj                           52       0         0      
       hostexit.c.obj                        8        0         0      
       remove.c.obj                          4        0         0      
    +--+-------------------------------------+--------+---------+---------+
       Total:                                1488     0         496    
                                                                       
    /home/epswbld5/ti/ccs2030/ccs/tools/compiler/ti-cgt-armllvm_4.0.3.LTS/lib/armv7r-ti-none-eabihf/libclang_rt.builtins.a
       udivmoddi4.S.obj                      280      0         0      
       aeabi_uldivmod.S.obj                  36       0         0      
       aeabi_memset.S.obj                    28       0         0      
       aeabi_div0.c.obj                      4        0         0      
       aeabi_memcpy.S.obj                    4        0         0      
    +--+-------------------------------------+--------+---------+---------+
       Total:                                352      0         0      
                                                                       
    /nightlybuilds/mcupsdk_internal/jenkins/mcu_plus_sdk_am263px_11_00_00_19/source/board/lib/board.am263px.r5f.ti-arm-clang.nortos.debug.lib
       flash_nor_ospi.obj                    6396     88        72     
       flash.obj                             1092     0         0      
       ioexp_tca6416.obj                     800      0         0      
    +--+-------------------------------------+--------+---------+---------+
       Total:                                8288     88        72     
                                                                       
    /nightlybuilds/mcupsdk_internal/jenkins/mcu_plus_sdk_am263px_11_00_00_19/source/drivers/lib/drivers.am263px.r5f.ti-arm-clang.nortos.debug.lib
       bootloader.obj                        4092     260       63112  
       soc_rcm.obj                           10752    1194      288    
       edma.obj                              10368    430       0      
       ospi_v0_lld.obj                       7824     32        0      
       uart_v0_lld.obj                       7392     0         0      
       i2c_v1_lld.obj                        6596     24        0      
       mcan.obj                              5086     104       0      
       ospi_phy_am26x_lld.obj                4322     0         256    
       i2c_v1.obj                            3030     192       20     
       ospi_v0.obj                           2972     101       20     
       uart_v0.obj                           2766     199       20     
       bootloader_can.obj                    2438     211       280    
       soc.obj                               2576     43        41     
       uart_dma_edma.obj                     2316     0         0      
       bootloader_soc.obj                    1544     166       208    
       ospi_edma_lld.obj                     1620     0         16     
       bootloader_profile.obj                752      479       280    
       bootloader_uniflash_common.obj        1372     0         0      
       bootloader_uniflash.obj               874      0         0      
       bootloader_hsmRt_load.obj             272      245       0      
       bootloader_uniflash_rprc.obj          496      0         0      
       bootloader_uniflash_mcelf.obj         478      0         0      
       ospi_lld_dma.obj                      346      0         0      
       bootloader_flash.obj                  248      0         24     
       pinmux.obj                            210      0         0      
       ospi_phy_am26x.obj                    116      0         0      
    +--+-------------------------------------+--------+---------+---------+
       Total:                                80858    3680      64565  
                                                                       
    /nightlybuilds/mcupsdk_internal/jenkins/mcu_plus_sdk_am263px_11_00_00_19/source/kernel/nortos/lib/nortos.am263px.r5f.ti-arm-clang.debug.lib
       printf.obj                            6936     98        0      
       HwiP_armv7r_vim.obj                   1738     0         2064   
       HwiP_armv7r_handlers_nortos.obj       1434     0         0      
       ClockP_nortos.obj                     1262     0         32     
       TimerP_rti_priv.obj                   660      203       0      
       CacheP_armv7r_asm.obj                 832      0         0      
       MpuP_armv7r.obj                       832      0         0      
       SemaphoreP_nortos.obj                 536      0         0      
       ClockP_nortos_r5.obj                  342      176       0      
       HwiP_armv7r_handlers_nortos_asm.obj   380      0         0      
       CacheP_armv7r.obj                     344      8         0      
       boot_armv7r_asm.obj                   324      0         0      
       DebugP_log.obj                        204      42        4      
       AddrTranslateP_32bit.obj              208      0         12     
       PmuP_armv7r.obj                       186      0         8      
       HwiP_armv7r_vectors_nortos_asm.obj    128      0         0      
       MpuP_armv7r_asm.obj                   120      0         0      
       HwiP_armv7r_asm.obj                   112      0         0      
       TimerP_rti_nortos.obj                 100      0         0      
       DebugP_uartLogWriter.obj              90       0         4      
       DebugP_nortos.obj                     68       0         0      
       PmuP_armv7r_asm.obj                   56       0         0      
       CpuId_armv7r.obj                      40       0         0      
       boot_armv7r.obj                       36       0         0      
       CpuId_armv7r_asm.obj                  12       0         0      
       TaskP_nortos.obj                      2        0         0      
    +--+-------------------------------------+--------+---------+---------+
       Total:                                16982    527       2124   
                                                                       
    /nightlybuilds/mcupsdk_internal/jenkins/mcu_plus_sdk_am263px_11_00_00_19/source/middleware/lib/middleware.am263px.r5f.ti-arm-clang.nortos.debug.lib
       tielfup32.obj                         508      0         0      
    +--+-------------------------------------+--------+---------+---------+
       Total:                                508      0         0      
                                                                       
    /nightlybuilds/mcupsdk_internal/jenkins/mcu_plus_sdk_am263px_11_00_00_19/source/security/lib/security.am263px.r5f.ti-arm-clang.nortos.debug.lib
       hsmclient.obj                         2488     230       32     
       sipc_notify_src.obj                   2678     0         68     
       hsmclient_loadhsmrt.obj               580      0         8      
       sipc_notify_cfg.obj                   82       0         276    
       hsmclient_wait_for_boot_notify.obj    90       0         0      
    +--+-------------------------------------+--------+---------+---------+
       Total:                                5918     230       384    
                                                                       
       Heap:                                 0        0         8192   
       Stack:                                0        0         8192   
    +--+-------------------------------------+--------+---------+---------+
       Grand Total:                          121804   48094     1630074


GLOBAL SYMBOLS: SORTED ALPHABETICALLY BY Name 

address   name                                        
-------   ----                                        
70014021  AddrTranslateP_getLocalAddr                 
7001ea41  Board_driversOpen                           
7001b0d1  Board_flashClose                            
700151a1  Board_flashOpen                             
7001a861  Bootloader_BootImageInfo_init               
7000e7c1  Bootloader_CANInit                          
70004861  Bootloader_CANReceiveFile                   
70013481  Bootloader_CANTransmitResp                  
7001e241  Bootloader_CpuInfo_init                     
7001f1b1  Bootloader_Params_init                      
7001dc41  Bootloader_Uniflash_MCELF_flashVerifyXIPFile
7001e6e1  Bootloader_Uniflash_MCELF_flashXIPFile      
7001cda1  Bootloader_Uniflash_RPRC_flashVerifyXIPFile 
7001dc71  Bootloader_Uniflash_RPRC_flashXIPFile       
7001a8c1  Bootloader_authFinish                       
70019471  Bootloader_authStart                        
70018ec1  Bootloader_authUpdate                       
7001cde1  Bootloader_close                            
70018641  Bootloader_findSeq                          
70011e81  Bootloader_getMsgLen                        
7001e701  Bootloader_getMulticoreImageSize            
700192b1  Bootloader_getX509CertLen                   
7001c241  Bootloader_initCpu                          
7001d731  Bootloader_isCorePresent                    
70019321  Bootloader_open                             
700036c1  Bootloader_parseAndLoadMultiCoreELF         
70011f91  Bootloader_parseNoteSegment                 
7001e5f1  Bootloader_profileAddCore                   
7001b8f1  Bootloader_profileAddProfilePoint           
7000b051  Bootloader_profilePrintProfileLog           
7001d761  Bootloader_profileReset                     
7001eff1  Bootloader_profileUpdateAppimageSize        
7001e821  Bootloader_profileUpdateMediaAndClk         
70016b81  Bootloader_runCpu                           
7001d3b1  Bootloader_runSelfCpu                       
7001a4c1  Bootloader_socConfigurePll                  
7001dac1  Bootloader_socCpuGetClkDefault              
700184c1  Bootloader_socCpuGetClock                   
7000f131  Bootloader_socCpuPowerOnReset               
7001f5d1  Bootloader_socCpuRelease                    
7001f5e1  Bootloader_socCpuRequest                    
7001c931  Bootloader_socCpuResetRelease               
7001f551  Bootloader_socCpuResetReleaseSelf           
7001dca1  Bootloader_socCpuSetClock                   
7001c731  Bootloader_socGetBootSeqOid                 
7001d8e1  Bootloader_socGetCoreName                   
7001f5f1  Bootloader_socGetSBLMem                     
7001f561  Bootloader_socInitL2MailBoxMemory           
7001dcd1  Bootloader_socIsAuthRequired                
70011b51  Bootloader_socLoadHsmRtFw                   
70016fd1  Bootloader_socMemInitCpu                    
700174a1  Bootloader_socSetAutoClock                  
700169a1  Bootloader_socTranslateSectionAddr          
7000dd91  Bootloader_uniflashFlashErase               
7000d5c1  Bootloader_uniflashFlashFile                
700127e1  Bootloader_uniflashFlashFileSector          
70018d41  Bootloader_uniflashFlashPhyTuningData       
70013661  Bootloader_uniflashFlashVerifyFile          
700080c1  Bootloader_uniflashProcessFlashCommands     
70004f78  C$$EXIT                                     
7001a854  C$$IO$$                                     
7001deb1  CSL_armR5GetCpuID                           
70006224  CSL_armR5ReadMpidrReg                       
70020870  CacheP_configForceWrThru                    
70020931  CacheP_disable                              
70020560  CacheP_disableL1d                           
70020588  CacheP_disableL1p                           
70020981  CacheP_enable                               
700205a0  CacheP_enableL1d                            
700205b8  CacheP_enableL1p                            
70020864  CacheP_getCacheLevelInfo                    
7002082c  CacheP_getEnabled                           
700208a1  CacheP_init                                 
700209c1  CacheP_inv                                  
700205d0  CacheP_invL1d                               
70020644  CacheP_invL1dAll                            
70020608  CacheP_invL1p                               
7002064c  CacheP_invL1pAll                            
70020890  CacheP_setDLFO                              
70020654  CacheP_wb                                   
700206cc  CacheP_wbAll                                
70020690  CacheP_wbInv                                
70020774  CacheP_wbInvAll                             
7002078c  CacheP_wbInvAllAsm                          
7001e841  ClockP_Params_init                          
7001b671  ClockP_construct                            
70015ff1  ClockP_destruct                             
7001f591  ClockP_getTicks                             
70017071  ClockP_getTimeUsec                          
7001f431  ClockP_getTimerCount                        
7000ff31  ClockP_init                                 
7001e721  ClockP_isActive                             
7001c291  ClockP_start                                
700153e1  ClockP_stop                                 
7001f441  ClockP_timerClearOverflowInt                
70015261  ClockP_timerTickIsr                         
7001e741  ClockP_usecToTicks                          
70018f41  ClockP_usleep                               
70015551  CycleCounterP_enableUserAccess              
7001cc68  CycleCounterP_getCount32                    
700154a1  CycleCounterP_init                          
70015511  CycleCounterP_nsToTicks                     
700154c1  CycleCounterP_reset                         
7001daf1  DebugP_logZoneEnable                        
7001bca1  DebugP_uartLogWriterPutChar                 
7001f1d1  DebugP_uartSetDrvIndex                      
7001f6d1  Dpl_deinit                                  
7001bed1  Dpl_init                                    
7001ed21  Drivers_close                               
7001b121  Drivers_edmaClose                           
70016151  Drivers_edmaOpen                            
7001b171  Drivers_i2cClose                            
700160a1  Drivers_i2cOpen                             
7001f6e1  Drivers_mcanClose                           
7001f6f1  Drivers_mcanOpen                            
7001ed41  Drivers_open                                
7001b1c1  Drivers_ospiClose                           
70016201  Drivers_ospiOpen                            
7001b211  Drivers_uartClose                           
7001f651  Drivers_uartInit                            
70015e91  Drivers_uartOpen                            
700181f1  EDMA_allocDmaChannel                        
70018281  EDMA_allocParam                             
70018311  EDMA_allocTcc                               
7001b6c1  EDMA_ccPaRAMEntry_init                      
7001a041  EDMA_chainChannel                           
7001e621  EDMA_channelToParamMap                      
70014b81  EDMA_close                                  
7001ed61  EDMA_clrCCErr                               
7001b301  EDMA_clrEvtRegion                           
7001b351  EDMA_clrIntrRegion                          
70018fc1  EDMA_clrMissEvtRegion                       
70014d21  EDMA_configureChannelRegion                 
700194e1  EDMA_deinit                                 
70014501  EDMA_disableChInShadowRegRegion             
7001b3a1  EDMA_disableDmaEvtRegion                    
7001b3f1  EDMA_disableEvtIntrRegion                   
7001e151  EDMA_disableQdmaEvtRegion                   
70017531  EDMA_disableTransferRegion                  
700146a1  EDMA_enableChInShadowRegRegion              
7001b441  EDMA_enableDmaEvtRegion                     
7001b491  EDMA_enableEvtIntrRegion                    
7001e181  EDMA_enableQdmaEvtRegion                    
700175c1  EDMA_enableTransferRegion                   
7001ea61  EDMA_errIntrHighStatusGet                   
70013571  EDMA_freeChannelRegion                      
70013841  EDMA_freeDmaChannel                         
70013751  EDMA_freeParam                              
70013921  EDMA_freeTcc                                
700197f1  EDMA_getBaseAddr                            
7001ea81  EDMA_getCCErrStatus                         
7001eaa1  EDMA_getErrIntrStatus                       
7001eac1  EDMA_getEventStatus                         
7001e861  EDMA_getEventStatusHigh                     
7001a921  EDMA_getHandle                              
7001e1b1  EDMA_getIntrStatusRegion                    
7001cca1  EDMA_getRegionId                            
70017651  EDMA_init                                   
7001e1e1  EDMA_intrStatusHighGetRegion                
7001ed81  EDMA_isInterruptEnabled                     
70018a41  EDMA_linkChannel                            
700149e1  EDMA_mapChToEvtQ                            
7001b711  EDMA_mapQdmaChToPaRAM                       
7000abe1  EDMA_open                                   
7001c9f1  EDMA_qdmaClrMissEvtRegion                   
7001eae1  EDMA_qdmaGetErrIntrStatus                   
7001b761  EDMA_readEventStatusRegion                  
7001ae91  EDMA_readIntrStatusRegion                   
700101b1  EDMA_registerIntr                           
7001b531  EDMA_setEvtRegion                           
7001abc1  EDMA_setPaRAM                               
70017111  EDMA_unmapChToEvtQ                          
7000e4f1  EDMA_unregisterIntr                         
7001a521  ELFUP_init                                  
7000c8b1  ELFUP_update                                
7001d791  Flash_close                                 
7001c771  Flash_disableDacMode                        
7001c7b1  Flash_enableDacMode                         
7001c471  Flash_eraseBlk                              
7001c4b1  Flash_eraseSector                           
7001c4f1  Flash_getAttrs                              
7001cce1  Flash_getHandle                             
7001e2d1  Flash_getPhyTuningOffset                    
70014de1  Flash_offsetToBlkPage                       
70014c51  Flash_offsetToSectorPage                    
700199b1  Flash_open                                  
70019781  Flash_quirkSpansionUNHYSADisable            
7001aef1  Flash_read                                  
7001af51  Flash_write                                 
700204a8  GET_ADFSR                                   
700204c0  GET_AIFSR                                   
700204b0  GET_DFAR                                    
700204a0  GET_DFSR                                    
700204c8  GET_IFAR                                    
700204b8  GET_IFSR                                    
700204d0  GET_SPSR                                    
7001a0a0  HOSTclose                                   
70004f78  HOSTexit                                    
70016a3c  HOSTlseek                                   
70016df4  HOSTopen                                    
70018054  HOSTread                                    
700163f8  HOSTrename                                  
7001954c  HOSTunlink                                  
700180d8  HOSTwrite                                   
7001f211  HsmClient_SecureBootQueueInit               
70014771  HsmClient_checkAndWaitForBootNotification   
70015d31  HsmClient_config                            
7001ce21  HsmClient_init                              
7000e0a1  HsmClient_isr                               
70011d71  HsmClient_procAuthBootFinish                
7000fa31  HsmClient_procAuthBootStart                 
700128e1  HsmClient_procAuthBootUpdate                
700172f1  HsmClient_register                          
7001f371  HsmClient_unRegister                        
7001f031  HsmClient_unregister                        
7001a3a1  HsmClient_waitForBootNotify                 
7000d751  Hsmclient_loadHSMRtFirmware                 
7001f391  Hsmclient_updateBootNotificationRegister    
7001f861  HwiP_Params_init                            
7001f7e1  HwiP_clearInt                               
7001f891  HwiP_construct                              
700203e0  HwiP_data_abort_handler                     
70020271  HwiP_data_abort_handler_c                   
7001fa81  HwiP_destruct                               
700204e8  HwiP_disable                                
700204f8  HwiP_disableFIQ                             
7001f751  HwiP_disableInt                             
70020540  HwiP_disableVIC                             
70020508  HwiP_enable                                 
70020518  HwiP_enableFIQ                              
7001f711  HwiP_enableInt                              
70020530  HwiP_enableVIC                              
7001ff71  HwiP_fiq_handler                            
70020550  HwiP_getCPSR                                
7001fca1  HwiP_inISR                                  
7001faf1  HwiP_init                                   
7002036c  HwiP_irq_handler                            
7001fdd1  HwiP_irq_handler_c                          
7001f821  HwiP_post                                   
70020424  HwiP_prefetch_abort_handler                 
70020191  HwiP_prefetch_abort_handler_c               
700200d1  HwiP_reserved_handler                       
70020528  HwiP_restore                                
7001f7b1  HwiP_restoreInt                             
7001fdc1  HwiP_restoreVimIrqPriMask                   
7001fd21  HwiP_setVimIrqPriMaskAtomic                 
7001fcd1  HwiP_setVimIrqPriMaskNonAtomic              
70020151  HwiP_svc_handler                            
70020470  HwiP_undefined_handler                      
70020111  HwiP_undefined_handler_c                    
70020331  HwiP_user_data_abort_handler_c              
70020231  HwiP_user_prefetch_abort_handler_c          
70020131  HwiP_user_undefined_handler_c               
7001ec21  I2C_Params_init                             
7001e361  I2C_Transaction_init                        
700122c1  I2C_close                                   
70022334  I2C_defaultTransaction                      
7001d911  I2C_deinit                                  
7001a981  I2C_getHandle                               
70019a21  I2C_init                                    
7001d4f1  I2C_lld_Message_init                        
7001dd31  I2C_lld_Transaction_init                    
70009361  I2C_lld_controllerIsr                       
7001afb1  I2C_lld_deInit                              
700229c8  I2C_lld_defaultMessage                      
7000e661  I2C_lld_init                                
700106a1  I2C_lld_mem_read                            
70011491  I2C_lld_mem_readIntr                        
7000fb71  I2C_lld_mem_write                           
70010a31  I2C_lld_mem_writeIntr                       
70008741  I2C_lld_targetIsr                           
7001c331  I2C_lld_transferIntr                        
7001c371  I2C_lld_transferPoll                        
70007d71  I2C_open                                    
7000b8c1  I2C_transfer                                
7001f621  Keyring_init                                
70017411  MCAN_addExtMsgIDFilter                      
7001cea1  MCAN_calcCfgAddr                            
7000dc01  MCAN_calcMsgRamParamsStartAddr              
70010901  MCAN_config                                 
70019e11  MCAN_getErrCounters                         
7001ec41  MCAN_getOpMode                              
70017921  MCAN_getProtocolStatus                      
700162b1  MCAN_getRxFIFOStatus                        
7001f0d1  MCAN_getTxBufTransmissionStatus             
700102f1  MCAN_init                                   
7001bd41  MCAN_initGlobalFilterConfigParams           
70018c41  MCAN_initMsgRamConfigParams                 
7001a9e1  MCAN_initOperModeParams                     
7001b941  MCAN_initSetBitTimeParams                   
70019e81  MCAN_initTxBufElement                       
7001d531  MCAN_isMemInitDone                          
70009621  MCAN_msgRAMConfig                           
7000fcb1  MCAN_readMsgRam                             
7000ee91  MCAN_setBitTime                             
7001b991  MCAN_setExtIDAndMask                        
7001e8c1  MCAN_setOpMode                              
7001c7f1  MCAN_txBufAddReq                            
70015911  MCAN_writeMsgRam                            
70015de1  MCAN_writeRxFIFOAck                         
7001b7b1  Module_clockDisable                         
7001b801  Module_clockEnable                          
7001a281  Module_clockSetFrequency                    
70020a61  MpuP_RegionAttrs_init                       
70020b31  MpuP_disable                                
70020d40  MpuP_disableAsm                             
70020d58  MpuP_disableBRAsm                           
70020b71  MpuP_enable                                 
70020d68  MpuP_enableAsm                              
70020d80  MpuP_enableBRAsm                            
70020a01  MpuP_getAttrs                               
70020bc1  MpuP_init                                   
70020b21  MpuP_isEnable                               
70020d90  MpuP_isEnableAsm                            
70020c61  MpuP_isUserAuthorizedToAccessMemory         
70020a91  MpuP_setRegion                              
70020da4  MpuP_setRegionAsm                           
7001c831  OSPI_EdmaParams_init                        
7001ee41  OSPI_ReadCmdParams_init                     
7001ee61  OSPI_Transaction_init                       
7001ee81  OSPI_WriteCmdParams_init                    
7001e391  OSPI_clearDualOpCodeMode                    
700195c1  OSPI_close                                  
7001ca71  OSPI_configBaudrate                         
7001d941  OSPI_deinit                                 
7001cee1  OSPI_disableDacMode                         
7001cf21  OSPI_disablePhy                             
7001bf21  OSPI_dmaClose                               
7001a101  OSPI_dmaCopy                                
70019141  OSPI_dmaOpen                                
70008d91  OSPI_edmaCopy                               
700131b1  OSPI_edmaDeInit                             
7000b491  OSPI_edmaInit                               
7001eea1  OSPI_edmaItrStatus                          
7001cf61  OSPI_enableDacMode                          
7001e3f1  OSPI_enableModeBitsCmd                      
7001e421  OSPI_enableModeBitsRead                     
7001cfa1  OSPI_enablePhy                              
7001cfe1  OSPI_enablePhyPipeline                      
7001c871  OSPI_enableSDR                              
7001cab1  OSPI_getBaudRateDivFromObj                  
7001b851  OSPI_getHandle                              
7001db51  OSPI_getInputClk                            
70016e91  OSPI_init                                   
7001db81  OSPI_isDacEnable                            
7001bf71  OSPI_isDmaInterruptEnabled                  
7001dbb1  OSPI_isPhyEnable                            
7001dee1  OSPI_lld_Transaction_init                   
7001df11  OSPI_lld_clearDualOpCodeMode                
7001ac81  OSPI_lld_configBaudrate                     
7001aaa1  OSPI_lld_configResetPin                     
70017251  OSPI_lld_deInit                             
700164a1  OSPI_lld_deInitDma                          
7001bd91  OSPI_lld_disableDacMode                     
70019391  OSPI_lld_disablePhy                         
7001d021  OSPI_lld_disablePhyPipeline                 
7001d061  OSPI_lld_enableDDR                          
7001bb21  OSPI_lld_enableDacMode                      
7001cd21  OSPI_lld_enableDdrRdCmds                    
7001df41  OSPI_lld_enableModeBitsCmd                  
7001df71  OSPI_lld_enableModeBitsRead                 
70018941  OSPI_lld_enablePhy                          
7001d0a1  OSPI_lld_enablePhyPipeline                  
7001d0e1  OSPI_lld_enableSDR                          
7001e961  OSPI_lld_getFlashDataBaseAddr               
7001e981  OSPI_lld_getInputClk                        
700117f1  OSPI_lld_init                               
7000efe1  OSPI_lld_initDma                            
7001f0f1  OSPI_lld_isDacEnable                        
7001f111  OSPI_lld_isPhyEnable                        
7000b271  OSPI_lld_isr                                
70016861  OSPI_lld_phyBasicConfig                     
70002101  OSPI_lld_phyFindOTP1                        
70017be1  OSPI_lld_phyFindRxHigh                      
70017c71  OSPI_lld_phyFindRxLow                       
70017d01  OSPI_lld_phyFindTxHigh                      
70017d91  OSPI_lld_phyFindTxLow                       
7001eb61  OSPI_lld_phyGetTuningData                   
70017381  OSPI_lld_phyReadAttackVector                
70014ab1  OSPI_lld_phyResyncDLL                       
70018161  OSPI_lld_phySetRdDelayTxRxDLL               
7001bde1  OSPI_lld_phyTuneDDR                         
7001b8a1  OSPI_lld_readBaudRateDivFromReg             
7000d0e1  OSPI_lld_readCmd                            
7001cd61  OSPI_lld_readCmdParams_init                 
7001e7a1  OSPI_lld_readCompleteCallback               
70019401  OSPI_lld_readDirect                         
7000c1f1  OSPI_lld_readDirectDma                      
7001d571  OSPI_lld_setCmdDummyCycles                  
7001ec61  OSPI_lld_setCmdExtType                      
7001bb71  OSPI_lld_setDeviceSize                      
7001dfa1  OSPI_lld_setDualOpCodeMode                  
7001dd91  OSPI_lld_setModeBits                        
7001bbc1  OSPI_lld_setNumAddrBytes                    
7001eec1  OSPI_lld_setPhyEnableSuccess                
700126e1  OSPI_lld_setProtocol                        
7001c631  OSPI_lld_setRdDataCaptureDelay              
7001d5b1  OSPI_lld_setReadDummyCycles                 
7001d1a1  OSPI_lld_setResetPinStatus                  
70016541  OSPI_lld_setXferOpCodes                     
7000e381  OSPI_lld_writeCmd                           
7001d5f1  OSPI_lld_writeCmdParams_init                
7000be61  OSPI_lld_writeIndirect                      
70007a21  OSPI_open                                   
7001f2d1  OSPI_phyGetTuningData                       
7001d851  OSPI_phyReadAttackVector                    
7001d881  OSPI_phyTuneDDR                             
7001b5d1  OSPI_readCmd                                
70015321  OSPI_readDirect                             
7001dfd1  OSPI_setCmdDummyCycles                      
7001e001  OSPI_setCmdExtType                          
7001dbe1  OSPI_setDeviceSize                          
7001e031  OSPI_setModeBits                            
7001e061  OSPI_setNumAddrBytes                        
7001e091  OSPI_setPhyEnableSuccess                    
7001e0c1  OSPI_setProtocol                            
7001caf1  OSPI_setRdDataCaptureDelay                  
7001e0f1  OSPI_setReadDummyCycles                     
7001cb31  OSPI_setResetPinStatus                      
7001d1e1  OSPI_setXferOpCodes                         
7001b621  OSPI_writeCmd                               
70018dc1  OSPI_writeIndirect                          
7001b261  Pinmux_config                               
7001f3d1  Pinmux_init                                 
7001cc90  PmuP_clearOverflowStatus                    
7001cc80  PmuP_disableCounters                        
7001cc78  PmuP_enableCounters                         
7001cc88  PmuP_getOverflowStatus                      
7001cc98  PmuP_setUserEnable                          
7001cc70  PmuP_setup                                  
7001f661  PowerClock_deinit                           
7001f5a1  PowerClock_init                             
7001cb71  SIPC_Params_init                            
7001b011  SIPC_Register_Isr                           
7001f5b1  SIPC_getSelfCoreId                          
7000b6b1  SIPC_init                                   
70012ce1  SIPC_isr                                    
70019711  SIPC_registerClient                         
700140f1  SIPC_sendMsg                                
7001c011  SIPC_unregisterClient                       
70010c91  SOC_controlModuleLockMMR                    
7000ea81  SOC_controlModuleUnlockMMR                  
7001cbf1  SOC_getCoreName                             
7001e9a1  SOC_getSelfCpuClk                           
7001e9c1  SOC_moduleClockEnable                       
7001c8b1  SOC_moduleSetClockFrequency                 
70006f31  SOC_phyToVirt                               
70012be1  SOC_rcmCoreApllConfig                       
7000a501  SOC_rcmCoreApllHSDivConfig                  
7001b071  SOC_rcmCoreApllRelockPreRequisite           
700191c1  SOC_rcmCoreR5FUnhalt                        
70005601  SOC_rcmEnablePeripheralClock                
70010ef1  SOC_rcmGetPeripheralClockFrequency          
70019c51  SOC_rcmGetR5Clock                           
70019cc1  SOC_rcmIsR5FInLockStepMode                  
700130c1  SOC_rcmMemInitL2Memory                      
7001d9d1  SOC_rcmMemInitMailboxMemory                 
70009df1  SOC_rcmPerApllConfig                        
70015851  SOC_rcmR5ConfigDualCore                     
70018bc1  SOC_rcmR5ConfigLockStep                     
70019a91  SOC_rcmR5SS0PowerOnReset                    
7001e481  SOC_rcmR5SS0TriggerReset                    
70019b01  SOC_rcmR5SS1PowerOnReset                    
7001e681  SOC_rcmR5SS1TriggerReset                    
700159c1  SOC_rcmSetPeripheralClock                   
7001eca1  SOC_rcmSetR5Clock                           
7001ef01  SOC_rcmSetR5ClockSource                     
700141c1  SOC_rcmStartMemInitTCMA                     
70014291  SOC_rcmStartMemInitTCMB                     
70014361  SOC_rcmWaitMemInitTCMA                      
70014431  SOC_rcmWaitMemInitTCMB                      
70012ae1  SOC_rcmsetR5SysClock                        
70008a81  SOC_virtToPhy                               
7001ef21  SemaphoreP_Params_init                      
7001c151  SemaphoreP_construct                        
7001dc11  SemaphoreP_constructBinary                  
7001e4b1  SemaphoreP_constructMutex                   
7001f6a1  SemaphoreP_destruct                         
700123d1  SemaphoreP_pend                             
70019fd1  SemaphoreP_post                             
7001e801  System_deinit                               
7001e4e1  System_init                                 
7001eb81  TCA6416_Params_init                         
7001d631  TCA6416_close                               
70011131  TCA6416_config                              
7001ef41  TCA6416_getAttrs                            
700187c1  TCA6416_open                                
70011011  TCA6416_setOutput                           
7001ebf8  TI_memcpy_small                             
7001efd8  TI_memset_small                             
7001f701  TaskP_yield                                 
7001f4d1  TimerP_Params_init                          
7001d261  TimerP_Params_initPriv                      
7001f4e1  TimerP_clearOverflowInt                     
7001f331  TimerP_clearOverflowIntPriv                 
7001f4f1  TimerP_getCount                             
7001d671  TimerP_getCountPriv                         
7001f501  TimerP_getReloadCount                       
7001ef61  TimerP_getReloadCountPriv                   
7001f351  TimerP_setup                                
7000bab1  TimerP_setupPriv                            
7001f511  TimerP_start                                
7001f131  TimerP_startPriv                            
7001f151  TimerP_stopPriv                             
7001c6b1  UART_IsTxRxFifoEmpty                        
700189c1  UART_Params_init                            
7001ddc1  UART_Transaction_init                       
7001b2b1  UART_checkCharsAvailInFifo                  
7000c561  UART_close                                  
7001da01  UART_deinit                                 
70014f61  UART_flushTxFifo                            
7001a161  UART_getChar                                
7001a701  UART_getHandle                              
7001ba31  UART_getIntrIdentityStatus                  
70015a71  UART_init                                   
7001ddf1  UART_intr2Disable                           
70013bc1  UART_intrDisable                            
70013a01  UART_intrEnable                             
7001ea01  UART_lld_Transaction_deInit                 
7001de21  UART_lld_Transaction_init                   
7000d281  UART_lld_controllerIsr                      
7001a341  UART_lld_deInit                             
70019da1  UART_lld_deInitDma                          
7000ae21  UART_lld_dmaDeInit                          
7001a401  UART_lld_dmaDisableChannel                  
7001da31  UART_lld_dmaInit                            
70011371  UART_lld_dmaRead                            
7000c3b1  UART_lld_dmaWrite                           
70017eb1  UART_lld_flushTxFifo                        
700107d1  UART_lld_init                               
7000ebe1  UART_lld_initDma                            
70013f41  UART_lld_write                              
700145d1  UART_lld_writeDma                           
70014911  UART_lld_writeIntr                          
70006b31  UART_open                                   
7001de51  UART_operatingModeSelect                    
70010071  UART_procLineStatusErr                      
7001efc1  UART_putChar                                
7001be81  UART_readLineStatus                         
7001c5f1  UART_spaceAvail                             
7000cda1  UART_write                                  
70017771  UART_writeCancelNoCB                        
7003bdb4  _CIOBUF_                                    
70018841  _DebugP_assert                              
70020f11  _DebugP_assertNoLog                         
7001c1a1  _DebugP_logZone                             
70041778  __ABORT_STACK_END                           
00000100  __ABORT_STACK_SIZE                          
70041678  __ABORT_STACK_START                         
7003c478  __BSS_END                                   
70023080  __BSS_START                                 
7003bdb4  __CIOBUF_                                   
70040678  __FIQ_STACK_END                             
00000100  __FIQ_STACK_SIZE                            
70040578  __FIQ_STACK_START                           
70040578  __IRQ_STACK_END                             
00000100  __IRQ_STACK_SIZE                            
70040478  __IRQ_STACK_START                           
7003e478  __STACK_END                                 
00002000  __STACK_SIZE                                
70041678  __SVC_STACK_END                             
00001000  __SVC_STACK_SIZE                            
70040678  __SVC_STACK_START                           
00002000  __SYSMEM_SIZE                               
00000000  __TI_ATRegion0_region_sz                    
00000000  __TI_ATRegion0_src_addr                     
00000000  __TI_ATRegion0_trg_addr                     
00000000  __TI_ATRegion1_region_sz                    
00000000  __TI_ATRegion1_src_addr                     
00000000  __TI_ATRegion1_trg_addr                     
00000000  __TI_ATRegion2_region_sz                    
00000000  __TI_ATRegion2_src_addr                     
00000000  __TI_ATRegion2_trg_addr                     
UNDEFED   __TI_CINIT_Base                             
UNDEFED   __TI_CINIT_Limit                            
UNDEFED   __TI_Handler_Table_Base                     
UNDEFED   __TI_Handler_Table_Limit                    
7001ae3c  __TI_auto_init_nobinit_nopinit              
7001a758  __TI_cleanup                                
70021a18  __TI_cleanup_ptr                            
70015b20  __TI_closefile                              
70017ac8  __TI_doflush                                
70021a1c  __TI_dtors_ptr                              
70021a78  __TI_ft_end                                 
ffffffff  __TI_pprof_out_hndl                         
ffffffff  __TI_prof_data_size                         
ffffffff  __TI_prof_data_start                        
7001a7b0  __TI_readmsg                                
00000000  __TI_static_base__                          
7003c184  __TI_tmpnams                                
7001a808  __TI_writemsg                               
70016900  __TI_wrt_ok                                 
70041878  __UNDEFINED_STACK_END                       
00000100  __UNDEFINED_STACK_SIZE                      
70041778  __UNDEFINED_STACK_START                     
70002c7c  __aeabi_ldiv0                               
700036b4  __aeabi_memclr                              
700036b4  __aeabi_memclr4                             
700036b4  __aeabi_memclr8                             
700040ac  __aeabi_memcpy                              
700040ac  __aeabi_memcpy4                             
700040ac  __aeabi_memcpy8                             
7001f520  __aeabi_memset                              
7001f520  __aeabi_memset4                             
7001f520  __aeabi_memset8                             
7001e594  __aeabi_uldivmod                            
ffffffff  __binit__                                   
70020f71  __mpu_init                                  
7003c478  __stack                                     
70002100  __start___llvm_prf_bits                     
70002100  __start___llvm_prf_cnts                     
70002100  __stop___llvm_prf_bits                      
70002100  __stop___llvm_prf_cnts                      
700115ac  __udivmoddi4                                
70020de4  _c_int00                                    
70020dc0  _c_int00_sbl                                
700213ac  _device                                     
70020f80  _ftable                                     
70021a7c  _lock                                       
70005c38  _nop                                        
70021550  _stream                                     
7003e478  _sys_memory                                 
UNDEFED   _system_post_cinit                          
70020f41  _system_pre_init                            
70021a80  _unlock                                     
00000000  _vectors                                    
700055f8  abort                                       
7000ca54  aligned_alloc                               
ffffffff  binit                                       
7001ed01  board_flash_reset                           
700177fc  close                                       
7001ad94  exit                                        
7001ade8  finddevice                                  
7001de81  flashFixUpOspiBoot                          
70012ed4  fputc                                       
7000c708  free                                        
70005c3c  fseek                                       
700156d8  fseeko                                      
70021c20  gADPLLJConfigTbl                            
700219f4  gAddrTranslateConfig                        
70021424  gAddrTranslateInfo                          
700219d4  gBootloader0Args                            
7002172c  gBootloaderConfig                           
70021a88  gBootloaderConfigNum                        
700217d8  gBootloaderFlashFxns                        
70021640  gCANMsgsList                                
7002263d  gCR5ClkSrcInfoMap                           
70021b08  gCacheConfig                                
70022ffc  gCacheL1dCacheLineSize                      
70023000  gCacheL1pCacheLineSize                      
700217f0  gClockConfig                                
7003c428  gClockCtrl                                  
700216fc  gCoreBootInfo                               
70021a8c  gDebugLogZone                               
70021a90  gDebugP_uartDrvIndex                        
70021a20  gEdmaConfig                                 
70021a94  gEdmaConfigNum                              
7003c27c  gEdmaHandle                                 
70021a28  gEdmaParams                                 
7003c280  gElfHBuffer                                 
700216c4  gFlashAttrs_IS25LX256                       
70021838  gFlashConfig                                
70021a98  gFlashConfigNum                             
70021228  gFlashDevCfg_IS25LX256                      
7003c460  gFlashHandle                                
70021758  gFlashNorOspiFxns                           
7003c268  gFlashObject_IS25LX256                      
70021a30  gFlashParams                                
7002177c  gFlashToSpiProtocolMap                      
7003b2d0  gHSMClient                                  
7003af90  gHsmClientMsgQueue                          
70021a9c  gHsmRtDownloadComplete                      
70050000  gHsmRtFw                                    
70021aa0  gHsmrtLoadStatus                            
70021aa4  gHwiConfig                                  
7003a100  gHwiCtrl                                    
70021a38  gI2cConfig                                  
70021aa8  gI2cConfigNum                               
7003c464  gI2cHandle                                  
70021a00  gI2cParams                                  
7003c468  gMcanBaseAddr                               
700217a0  gMcanBitTimingDefaultParams                 
70021b10  gMpuConfig                                  
70021b1c  gMpuRegionConfig                            
7003b600  gNoteSegBuffer                              
70021a40  gOspiConfig                                 
70021abc  gOspiConfigNum                              
70021a0c  gOspiDmaConfig                              
70021ac0  gOspiDmaConfigNum                           
700219e4  gOspiDmaEdmaFxns                            
7003c3cc  gOspiEdmaArgs                               
7003c46c  gOspiHandle                                 
70021ac4  gOspiParams                                 
70023080  gPHTBuffer                                  
70022e7c  gPLLFreqId2FOutMap                          
700229e0  gPeripheralClkSrcInfoMap                    
7003bed4  gProfileObj                                 
7003a910  gQueue_HsmToSecureHost                      
7003ac50  gQueue_SecureHostToHsm                      
70021ac8  gR5ss0Core1ImagePresent                     
70021acc  gR5ss0MemInitDone                           
70021ad0  gR5ss1Core1ImagePresent                     
70021ad4  gR5ss1MemInitDone                           
70021ad8  gR5ss1PORDone                               
70021998  gResMemSection                              
7003c470  gRunApp                                     
700215a0  gSIPC_HsmMboxConfig                         
70021494  gSIPC_InterruptConfig                       
70021a48  gSIPC_QueHsmToSecureHost                    
70021a50  gSIPC_QueSecureHostToHsm                    
700215f0  gSIPC_SecureHostMboxConfig                  
7003c224  gSIPC_ctrl                                  
7003b880  gSecureBootStreamArray                      
700219ac  gSocModules                                 
70021688  gSocModulesClockFrequency                   
70021ae0  gStreamId                                   
70021a60  gUartConfig                                 
70021ae4  gUartConfigNum                              
70021ae8  gUartDmaChConfig                            
70020f80  gUartDmaHandle                              
7003c474  gUartHandle                                 
700214f8  gUartParams                                 
70090000  gUniflashFileBuf                            
70031100  gUniflashVerifyBuf                          
70039100  gX509Cert                                   
70022f84  gXTALInfo                                   
7001483c  getdevice                                   
7003c300  grxMsg                                      
7003c368  gtxMsg                                      
70021b00  isMapAvailable                              
7001d348  lseek                                       
700066e1  main                                        
70004854  malloc                                      
7001da91  mcanConfigTxMsg                             
700150e1  mcanEnableTransceiver                       
7000ca54  memalign                                    
7001c430  memcmp                                      
70021a68  operatingMode                               
7003c458  parmbuf                                     
70021af0  ptrMSSCtrlRegs                              
70021af4  ptrTopCtrlRegs                              
7001f540  putchar                                     
7001ebc1  putchar_                                    
70006b28  remove                                      
7000f514  setvbuf                                     
70007320  strcmp                                      
7001bc58  unlink                                      
7003b300  vec_addrs                                   
70021af8  vec_size                                    
70021afc  vector_table_loc                            
7003c448  virtToPhymap                                
7001e121  vprintf_                                    
7001d37c  write                                       


GLOBAL SYMBOLS: SORTED BY Symbol Address 

address   name                                        
-------   ----                                        
00000000  __TI_ATRegion0_region_sz                    
00000000  __TI_ATRegion0_src_addr                     
00000000  __TI_ATRegion0_trg_addr                     
00000000  __TI_ATRegion1_region_sz                    
00000000  __TI_ATRegion1_src_addr                     
00000000  __TI_ATRegion1_trg_addr                     
00000000  __TI_ATRegion2_region_sz                    
00000000  __TI_ATRegion2_src_addr                     
00000000  __TI_ATRegion2_trg_addr                     
00000000  __TI_static_base__                          
00000000  _vectors                                    
00000100  __ABORT_STACK_SIZE                          
00000100  __FIQ_STACK_SIZE                            
00000100  __IRQ_STACK_SIZE                            
00000100  __UNDEFINED_STACK_SIZE                      
00001000  __SVC_STACK_SIZE                            
00002000  __STACK_SIZE                                
00002000  __SYSMEM_SIZE                               
70002100  __start___llvm_prf_bits                     
70002100  __start___llvm_prf_cnts                     
70002100  __stop___llvm_prf_bits                      
70002100  __stop___llvm_prf_cnts                      
70002101  OSPI_lld_phyFindOTP1                        
70002c7c  __aeabi_ldiv0                               
700036b4  __aeabi_memclr                              
700036b4  __aeabi_memclr4                             
700036b4  __aeabi_memclr8                             
700036c1  Bootloader_parseAndLoadMultiCoreELF         
700040ac  __aeabi_memcpy                              
700040ac  __aeabi_memcpy4                             
700040ac  __aeabi_memcpy8                             
70004854  malloc                                      
70004861  Bootloader_CANReceiveFile                   
70004f78  C$$EXIT                                     
70004f78  HOSTexit                                    
700055f8  abort                                       
70005601  SOC_rcmEnablePeripheralClock                
70005c38  _nop                                        
70005c3c  fseek                                       
70006224  CSL_armR5ReadMpidrReg                       
700066e1  main                                        
70006b28  remove                                      
70006b31  UART_open                                   
70006f31  SOC_phyToVirt                               
70007320  strcmp                                      
70007a21  OSPI_open                                   
70007d71  I2C_open                                    
700080c1  Bootloader_uniflashProcessFlashCommands     
70008741  I2C_lld_targetIsr                           
70008a81  SOC_virtToPhy                               
70008d91  OSPI_edmaCopy                               
70009361  I2C_lld_controllerIsr                       
70009621  MCAN_msgRAMConfig                           
70009df1  SOC_rcmPerApllConfig                        
7000a501  SOC_rcmCoreApllHSDivConfig                  
7000abe1  EDMA_open                                   
7000ae21  UART_lld_dmaDeInit                          
7000b051  Bootloader_profilePrintProfileLog           
7000b271  OSPI_lld_isr                                
7000b491  OSPI_edmaInit                               
7000b6b1  SIPC_init                                   
7000b8c1  I2C_transfer                                
7000bab1  TimerP_setupPriv                            
7000be61  OSPI_lld_writeIndirect                      
7000c1f1  OSPI_lld_readDirectDma                      
7000c3b1  UART_lld_dmaWrite                           
7000c561  UART_close                                  
7000c708  free                                        
7000c8b1  ELFUP_update                                
7000ca54  aligned_alloc                               
7000ca54  memalign                                    
7000cda1  UART_write                                  
7000d0e1  OSPI_lld_readCmd                            
7000d281  UART_lld_controllerIsr                      
7000d5c1  Bootloader_uniflashFlashFile                
7000d751  Hsmclient_loadHSMRtFirmware                 
7000dc01  MCAN_calcMsgRamParamsStartAddr              
7000dd91  Bootloader_uniflashFlashErase               
7000e0a1  HsmClient_isr                               
7000e381  OSPI_lld_writeCmd                           
7000e4f1  EDMA_unregisterIntr                         
7000e661  I2C_lld_init                                
7000e7c1  Bootloader_CANInit                          
7000ea81  SOC_controlModuleUnlockMMR                  
7000ebe1  UART_lld_initDma                            
7000ee91  MCAN_setBitTime                             
7000efe1  OSPI_lld_initDma                            
7000f131  Bootloader_socCpuPowerOnReset               
7000f514  setvbuf                                     
7000fa31  HsmClient_procAuthBootStart                 
7000fb71  I2C_lld_mem_write                           
7000fcb1  MCAN_readMsgRam                             
7000ff31  ClockP_init                                 
70010071  UART_procLineStatusErr                      
700101b1  EDMA_registerIntr                           
700102f1  MCAN_init                                   
700106a1  I2C_lld_mem_read                            
700107d1  UART_lld_init                               
70010901  MCAN_config                                 
70010a31  I2C_lld_mem_writeIntr                       
70010c91  SOC_controlModuleLockMMR                    
70010ef1  SOC_rcmGetPeripheralClockFrequency          
70011011  TCA6416_setOutput                           
70011131  TCA6416_config                              
70011371  UART_lld_dmaRead                            
70011491  I2C_lld_mem_readIntr                        
700115ac  __udivmoddi4                                
700117f1  OSPI_lld_init                               
70011b51  Bootloader_socLoadHsmRtFw                   
70011d71  HsmClient_procAuthBootFinish                
70011e81  Bootloader_getMsgLen                        
70011f91  Bootloader_parseNoteSegment                 
700122c1  I2C_close                                   
700123d1  SemaphoreP_pend                             
700126e1  OSPI_lld_setProtocol                        
700127e1  Bootloader_uniflashFlashFileSector          
700128e1  HsmClient_procAuthBootUpdate                
70012ae1  SOC_rcmsetR5SysClock                        
70012be1  SOC_rcmCoreApllConfig                       
70012ce1  SIPC_isr                                    
70012ed4  fputc                                       
700130c1  SOC_rcmMemInitL2Memory                      
700131b1  OSPI_edmaDeInit                             
70013481  Bootloader_CANTransmitResp                  
70013571  EDMA_freeChannelRegion                      
70013661  Bootloader_uniflashFlashVerifyFile          
70013751  EDMA_freeParam                              
70013841  EDMA_freeDmaChannel                         
70013921  EDMA_freeTcc                                
70013a01  UART_intrEnable                             
70013bc1  UART_intrDisable                            
70013f41  UART_lld_write                              
70014021  AddrTranslateP_getLocalAddr                 
700140f1  SIPC_sendMsg                                
700141c1  SOC_rcmStartMemInitTCMA                     
70014291  SOC_rcmStartMemInitTCMB                     
70014361  SOC_rcmWaitMemInitTCMA                      
70014431  SOC_rcmWaitMemInitTCMB                      
70014501  EDMA_disableChInShadowRegRegion             
700145d1  UART_lld_writeDma                           
700146a1  EDMA_enableChInShadowRegRegion              
70014771  HsmClient_checkAndWaitForBootNotification   
7001483c  getdevice                                   
70014911  UART_lld_writeIntr                          
700149e1  EDMA_mapChToEvtQ                            
70014ab1  OSPI_lld_phyResyncDLL                       
70014b81  EDMA_close                                  
70014c51  Flash_offsetToSectorPage                    
70014d21  EDMA_configureChannelRegion                 
70014de1  Flash_offsetToBlkPage                       
70014f61  UART_flushTxFifo                            
700150e1  mcanEnableTransceiver                       
700151a1  Board_flashOpen                             
70015261  ClockP_timerTickIsr                         
70015321  OSPI_readDirect                             
700153e1  ClockP_stop                                 
700154a1  CycleCounterP_init                          
700154c1  CycleCounterP_reset                         
70015511  CycleCounterP_nsToTicks                     
70015551  CycleCounterP_enableUserAccess              
700156d8  fseeko                                      
70015851  SOC_rcmR5ConfigDualCore                     
70015911  MCAN_writeMsgRam                            
700159c1  SOC_rcmSetPeripheralClock                   
70015a71  UART_init                                   
70015b20  __TI_closefile                              
70015d31  HsmClient_config                            
70015de1  MCAN_writeRxFIFOAck                         
70015e91  Drivers_uartOpen                            
70015ff1  ClockP_destruct                             
700160a1  Drivers_i2cOpen                             
70016151  Drivers_edmaOpen                            
70016201  Drivers_ospiOpen                            
700162b1  MCAN_getRxFIFOStatus                        
700163f8  HOSTrename                                  
700164a1  OSPI_lld_deInitDma                          
70016541  OSPI_lld_setXferOpCodes                     
70016861  OSPI_lld_phyBasicConfig                     
70016900  __TI_wrt_ok                                 
700169a1  Bootloader_socTranslateSectionAddr          
70016a3c  HOSTlseek                                   
70016b81  Bootloader_runCpu                           
70016df4  HOSTopen                                    
70016e91  OSPI_init                                   
70016fd1  Bootloader_socMemInitCpu                    
70017071  ClockP_getTimeUsec                          
70017111  EDMA_unmapChToEvtQ                          
70017251  OSPI_lld_deInit                             
700172f1  HsmClient_register                          
70017381  OSPI_lld_phyReadAttackVector                
70017411  MCAN_addExtMsgIDFilter                      
700174a1  Bootloader_socSetAutoClock                  
70017531  EDMA_disableTransferRegion                  
700175c1  EDMA_enableTransferRegion                   
70017651  EDMA_init                                   
70017771  UART_writeCancelNoCB                        
700177fc  close                                       
70017921  MCAN_getProtocolStatus                      
70017ac8  __TI_doflush                                
70017be1  OSPI_lld_phyFindRxHigh                      
70017c71  OSPI_lld_phyFindRxLow                       
70017d01  OSPI_lld_phyFindTxHigh                      
70017d91  OSPI_lld_phyFindTxLow                       
70017eb1  UART_lld_flushTxFifo                        
70018054  HOSTread                                    
700180d8  HOSTwrite                                   
70018161  OSPI_lld_phySetRdDelayTxRxDLL               
700181f1  EDMA_allocDmaChannel                        
70018281  EDMA_allocParam                             
70018311  EDMA_allocTcc                               
700184c1  Bootloader_socCpuGetClock                   
70018641  Bootloader_findSeq                          
700187c1  TCA6416_open                                
70018841  _DebugP_assert                              
70018941  OSPI_lld_enablePhy                          
700189c1  UART_Params_init                            
70018a41  EDMA_linkChannel                            
70018bc1  SOC_rcmR5ConfigLockStep                     
70018c41  MCAN_initMsgRamConfigParams                 
70018d41  Bootloader_uniflashFlashPhyTuningData       
70018dc1  OSPI_writeIndirect                          
70018ec1  Bootloader_authUpdate                       
70018f41  ClockP_usleep                               
70018fc1  EDMA_clrMissEvtRegion                       
70019141  OSPI_dmaOpen                                
700191c1  SOC_rcmCoreR5FUnhalt                        
700192b1  Bootloader_getX509CertLen                   
70019321  Bootloader_open                             
70019391  OSPI_lld_disablePhy                         
70019401  OSPI_lld_readDirect                         
70019471  Bootloader_authStart                        
700194e1  EDMA_deinit                                 
7001954c  HOSTunlink                                  
700195c1  OSPI_close                                  
70019711  SIPC_registerClient                         
70019781  Flash_quirkSpansionUNHYSADisable            
700197f1  EDMA_getBaseAddr                            
700199b1  Flash_open                                  
70019a21  I2C_init                                    
70019a91  SOC_rcmR5SS0PowerOnReset                    
70019b01  SOC_rcmR5SS1PowerOnReset                    
70019c51  SOC_rcmGetR5Clock                           
70019cc1  SOC_rcmIsR5FInLockStepMode                  
70019da1  UART_lld_deInitDma                          
70019e11  MCAN_getErrCounters                         
70019e81  MCAN_initTxBufElement                       
70019fd1  SemaphoreP_post                             
7001a041  EDMA_chainChannel                           
7001a0a0  HOSTclose                                   
7001a101  OSPI_dmaCopy                                
7001a161  UART_getChar                                
7001a281  Module_clockSetFrequency                    
7001a341  UART_lld_deInit                             
7001a3a1  HsmClient_waitForBootNotify                 
7001a401  UART_lld_dmaDisableChannel                  
7001a4c1  Bootloader_socConfigurePll                  
7001a521  ELFUP_init                                  
7001a701  UART_getHandle                              
7001a758  __TI_cleanup                                
7001a7b0  __TI_readmsg                                
7001a808  __TI_writemsg                               
7001a854  C$$IO$$                                     
7001a861  Bootloader_BootImageInfo_init               
7001a8c1  Bootloader_authFinish                       
7001a921  EDMA_getHandle                              
7001a981  I2C_getHandle                               
7001a9e1  MCAN_initOperModeParams                     
7001aaa1  OSPI_lld_configResetPin                     
7001abc1  EDMA_setPaRAM                               
7001ac81  OSPI_lld_configBaudrate                     
7001ad94  exit                                        
7001ade8  finddevice                                  
7001ae3c  __TI_auto_init_nobinit_nopinit              
7001ae91  EDMA_readIntrStatusRegion                   
7001aef1  Flash_read                                  
7001af51  Flash_write                                 
7001afb1  I2C_lld_deInit                              
7001b011  SIPC_Register_Isr                           
7001b071  SOC_rcmCoreApllRelockPreRequisite           
7001b0d1  Board_flashClose                            
7001b121  Drivers_edmaClose                           
7001b171  Drivers_i2cClose                            
7001b1c1  Drivers_ospiClose                           
7001b211  Drivers_uartClose                           
7001b261  Pinmux_config                               
7001b2b1  UART_checkCharsAvailInFifo                  
7001b301  EDMA_clrEvtRegion                           
7001b351  EDMA_clrIntrRegion                          
7001b3a1  EDMA_disableDmaEvtRegion                    
7001b3f1  EDMA_disableEvtIntrRegion                   
7001b441  EDMA_enableDmaEvtRegion                     
7001b491  EDMA_enableEvtIntrRegion                    
7001b531  EDMA_setEvtRegion                           
7001b5d1  OSPI_readCmd                                
7001b621  OSPI_writeCmd                               
7001b671  ClockP_construct                            
7001b6c1  EDMA_ccPaRAMEntry_init                      
7001b711  EDMA_mapQdmaChToPaRAM                       
7001b761  EDMA_readEventStatusRegion                  
7001b7b1  Module_clockDisable                         
7001b801  Module_clockEnable                          
7001b851  OSPI_getHandle                              
7001b8a1  OSPI_lld_readBaudRateDivFromReg             
7001b8f1  Bootloader_profileAddProfilePoint           
7001b941  MCAN_initSetBitTimeParams                   
7001b991  MCAN_setExtIDAndMask                        
7001ba31  UART_getIntrIdentityStatus                  
7001bb21  OSPI_lld_enableDacMode                      
7001bb71  OSPI_lld_setDeviceSize                      
7001bbc1  OSPI_lld_setNumAddrBytes                    
7001bc58  unlink                                      
7001bca1  DebugP_uartLogWriterPutChar                 
7001bd41  MCAN_initGlobalFilterConfigParams           
7001bd91  OSPI_lld_disableDacMode                     
7001bde1  OSPI_lld_phyTuneDDR                         
7001be81  UART_readLineStatus                         
7001bed1  Dpl_init                                    
7001bf21  OSPI_dmaClose                               
7001bf71  OSPI_isDmaInterruptEnabled                  
7001c011  SIPC_unregisterClient                       
7001c151  SemaphoreP_construct                        
7001c1a1  _DebugP_logZone                             
7001c241  Bootloader_initCpu                          
7001c291  ClockP_start                                
7001c331  I2C_lld_transferIntr                        
7001c371  I2C_lld_transferPoll                        
7001c430  memcmp                                      
7001c471  Flash_eraseBlk                              
7001c4b1  Flash_eraseSector                           
7001c4f1  Flash_getAttrs                              
7001c5f1  UART_spaceAvail                             
7001c631  OSPI_lld_setRdDataCaptureDelay              
7001c6b1  UART_IsTxRxFifoEmpty                        
7001c731  Bootloader_socGetBootSeqOid                 
7001c771  Flash_disableDacMode                        
7001c7b1  Flash_enableDacMode                         
7001c7f1  MCAN_txBufAddReq                            
7001c831  OSPI_EdmaParams_init                        
7001c871  OSPI_enableSDR                              
7001c8b1  SOC_moduleSetClockFrequency                 
7001c931  Bootloader_socCpuResetRelease               
7001c9f1  EDMA_qdmaClrMissEvtRegion                   
7001ca71  OSPI_configBaudrate                         
7001cab1  OSPI_getBaudRateDivFromObj                  
7001caf1  OSPI_setRdDataCaptureDelay                  
7001cb31  OSPI_setResetPinStatus                      
7001cb71  SIPC_Params_init                            
7001cbf1  SOC_getCoreName                             
7001cc68  CycleCounterP_getCount32                    
7001cc70  PmuP_setup                                  
7001cc78  PmuP_enableCounters                         
7001cc80  PmuP_disableCounters                        
7001cc88  PmuP_getOverflowStatus                      
7001cc90  PmuP_clearOverflowStatus                    
7001cc98  PmuP_setUserEnable                          
7001cca1  EDMA_getRegionId                            
7001cce1  Flash_getHandle                             
7001cd21  OSPI_lld_enableDdrRdCmds                    
7001cd61  OSPI_lld_readCmdParams_init                 
7001cda1  Bootloader_Uniflash_RPRC_flashVerifyXIPFile 
7001cde1  Bootloader_close                            
7001ce21  HsmClient_init                              
7001cea1  MCAN_calcCfgAddr                            
7001cee1  OSPI_disableDacMode                         
7001cf21  OSPI_disablePhy                             
7001cf61  OSPI_enableDacMode                          
7001cfa1  OSPI_enablePhy                              
7001cfe1  OSPI_enablePhyPipeline                      
7001d021  OSPI_lld_disablePhyPipeline                 
7001d061  OSPI_lld_enableDDR                          
7001d0a1  OSPI_lld_enablePhyPipeline                  
7001d0e1  OSPI_lld_enableSDR                          
7001d1a1  OSPI_lld_setResetPinStatus                  
7001d1e1  OSPI_setXferOpCodes                         
7001d261  TimerP_Params_initPriv                      
7001d348  lseek                                       
7001d37c  write                                       
7001d3b1  Bootloader_runSelfCpu                       
7001d4f1  I2C_lld_Message_init                        
7001d531  MCAN_isMemInitDone                          
7001d571  OSPI_lld_setCmdDummyCycles                  
7001d5b1  OSPI_lld_setReadDummyCycles                 
7001d5f1  OSPI_lld_writeCmdParams_init                
7001d631  TCA6416_close                               
7001d671  TimerP_getCountPriv                         
7001d731  Bootloader_isCorePresent                    
7001d761  Bootloader_profileReset                     
7001d791  Flash_close                                 
7001d851  OSPI_phyReadAttackVector                    
7001d881  OSPI_phyTuneDDR                             
7001d8e1  Bootloader_socGetCoreName                   
7001d911  I2C_deinit                                  
7001d941  OSPI_deinit                                 
7001d9d1  SOC_rcmMemInitMailboxMemory                 
7001da01  UART_deinit                                 
7001da31  UART_lld_dmaInit                            
7001da91  mcanConfigTxMsg                             
7001dac1  Bootloader_socCpuGetClkDefault              
7001daf1  DebugP_logZoneEnable                        
7001db51  OSPI_getInputClk                            
7001db81  OSPI_isDacEnable                            
7001dbb1  OSPI_isPhyEnable                            
7001dbe1  OSPI_setDeviceSize                          
7001dc11  SemaphoreP_constructBinary                  
7001dc41  Bootloader_Uniflash_MCELF_flashVerifyXIPFile
7001dc71  Bootloader_Uniflash_RPRC_flashXIPFile       
7001dca1  Bootloader_socCpuSetClock                   
7001dcd1  Bootloader_socIsAuthRequired                
7001dd31  I2C_lld_Transaction_init                    
7001dd91  OSPI_lld_setModeBits                        
7001ddc1  UART_Transaction_init                       
7001ddf1  UART_intr2Disable                           
7001de21  UART_lld_Transaction_init                   
7001de51  UART_operatingModeSelect                    
7001de81  flashFixUpOspiBoot                          
7001deb1  CSL_armR5GetCpuID                           
7001dee1  OSPI_lld_Transaction_init                   
7001df11  OSPI_lld_clearDualOpCodeMode                
7001df41  OSPI_lld_enableModeBitsCmd                  
7001df71  OSPI_lld_enableModeBitsRead                 
7001dfa1  OSPI_lld_setDualOpCodeMode                  
7001dfd1  OSPI_setCmdDummyCycles                      
7001e001  OSPI_setCmdExtType                          
7001e031  OSPI_setModeBits                            
7001e061  OSPI_setNumAddrBytes                        
7001e091  OSPI_setPhyEnableSuccess                    
7001e0c1  OSPI_setProtocol                            
7001e0f1  OSPI_setReadDummyCycles                     
7001e121  vprintf_                                    
7001e151  EDMA_disableQdmaEvtRegion                   
7001e181  EDMA_enableQdmaEvtRegion                    
7001e1b1  EDMA_getIntrStatusRegion                    
7001e1e1  EDMA_intrStatusHighGetRegion                
7001e241  Bootloader_CpuInfo_init                     
7001e2d1  Flash_getPhyTuningOffset                    
7001e361  I2C_Transaction_init                        
7001e391  OSPI_clearDualOpCodeMode                    
7001e3f1  OSPI_enableModeBitsCmd                      
7001e421  OSPI_enableModeBitsRead                     
7001e481  SOC_rcmR5SS0TriggerReset                    
7001e4b1  SemaphoreP_constructMutex                   
7001e4e1  System_init                                 
7001e594  __aeabi_uldivmod                            
7001e5f1  Bootloader_profileAddCore                   
7001e621  EDMA_channelToParamMap                      
7001e681  SOC_rcmR5SS1TriggerReset                    
7001e6e1  Bootloader_Uniflash_MCELF_flashXIPFile      
7001e701  Bootloader_getMulticoreImageSize            
7001e721  ClockP_isActive                             
7001e741  ClockP_usecToTicks                          
7001e7a1  OSPI_lld_readCompleteCallback               
7001e801  System_deinit                               
7001e821  Bootloader_profileUpdateMediaAndClk         
7001e841  ClockP_Params_init                          
7001e861  EDMA_getEventStatusHigh                     
7001e8c1  MCAN_setOpMode                              
7001e961  OSPI_lld_getFlashDataBaseAddr               
7001e981  OSPI_lld_getInputClk                        
7001e9a1  SOC_getSelfCpuClk                           
7001e9c1  SOC_moduleClockEnable                       
7001ea01  UART_lld_Transaction_deInit                 
7001ea41  Board_driversOpen                           
7001ea61  EDMA_errIntrHighStatusGet                   
7001ea81  EDMA_getCCErrStatus                         
7001eaa1  EDMA_getErrIntrStatus                       
7001eac1  EDMA_getEventStatus                         
7001eae1  EDMA_qdmaGetErrIntrStatus                   
7001eb61  OSPI_lld_phyGetTuningData                   
7001eb81  TCA6416_Params_init                         
7001ebc1  putchar_                                    
7001ebf8  TI_memcpy_small                             
7001ec21  I2C_Params_init                             
7001ec41  MCAN_getOpMode                              
7001ec61  OSPI_lld_setCmdExtType                      
7001eca1  SOC_rcmSetR5Clock                           
7001ed01  board_flash_reset                           
7001ed21  Drivers_close                               
7001ed41  Drivers_open                                
7001ed61  EDMA_clrCCErr                               
7001ed81  EDMA_isInterruptEnabled                     
7001ee41  OSPI_ReadCmdParams_init                     
7001ee61  OSPI_Transaction_init                       
7001ee81  OSPI_WriteCmdParams_init                    
7001eea1  OSPI_edmaItrStatus                          
7001eec1  OSPI_lld_setPhyEnableSuccess                
7001ef01  SOC_rcmSetR5ClockSource                     
7001ef21  SemaphoreP_Params_init                      
7001ef41  TCA6416_getAttrs                            
7001ef61  TimerP_getReloadCountPriv                   
7001efc1  UART_putChar                                
7001efd8  TI_memset_small                             
7001eff1  Bootloader_profileUpdateAppimageSize        
7001f031  HsmClient_unregister                        
7001f0d1  MCAN_getTxBufTransmissionStatus             
7001f0f1  OSPI_lld_isDacEnable                        
7001f111  OSPI_lld_isPhyEnable                        
7001f131  TimerP_startPriv                            
7001f151  TimerP_stopPriv                             
7001f1b1  Bootloader_Params_init                      
7001f1d1  DebugP_uartSetDrvIndex                      
7001f211  HsmClient_SecureBootQueueInit               
7001f2d1  OSPI_phyGetTuningData                       
7001f331  TimerP_clearOverflowIntPriv                 
7001f351  TimerP_setup                                
7001f371  HsmClient_unRegister                        
7001f391  Hsmclient_updateBootNotificationRegister    
7001f3d1  Pinmux_init                                 
7001f431  ClockP_getTimerCount                        
7001f441  ClockP_timerClearOverflowInt                
7001f4d1  TimerP_Params_init                          
7001f4e1  TimerP_clearOverflowInt                     
7001f4f1  TimerP_getCount                             
7001f501  TimerP_getReloadCount                       
7001f511  TimerP_start                                
7001f520  __aeabi_memset                              
7001f520  __aeabi_memset4                             
7001f520  __aeabi_memset8                             
7001f540  putchar                                     
7001f551  Bootloader_socCpuResetReleaseSelf           
7001f561  Bootloader_socInitL2MailBoxMemory           
7001f591  ClockP_getTicks                             
7001f5a1  PowerClock_init                             
7001f5b1  SIPC_getSelfCoreId                          
7001f5d1  Bootloader_socCpuRelease                    
7001f5e1  Bootloader_socCpuRequest                    
7001f5f1  Bootloader_socGetSBLMem                     
7001f621  Keyring_init                                
7001f651  Drivers_uartInit                            
7001f661  PowerClock_deinit                           
7001f6a1  SemaphoreP_destruct                         
7001f6d1  Dpl_deinit                                  
7001f6e1  Drivers_mcanClose                           
7001f6f1  Drivers_mcanOpen                            
7001f701  TaskP_yield                                 
7001f711  HwiP_enableInt                              
7001f751  HwiP_disableInt                             
7001f7b1  HwiP_restoreInt                             
7001f7e1  HwiP_clearInt                               
7001f821  HwiP_post                                   
7001f861  HwiP_Params_init                            
7001f891  HwiP_construct                              
7001fa81  HwiP_destruct                               
7001faf1  HwiP_init                                   
7001fca1  HwiP_inISR                                  
7001fcd1  HwiP_setVimIrqPriMaskNonAtomic              
7001fd21  HwiP_setVimIrqPriMaskAtomic                 
7001fdc1  HwiP_restoreVimIrqPriMask                   
7001fdd1  HwiP_irq_handler_c                          
7001ff71  HwiP_fiq_handler                            
700200d1  HwiP_reserved_handler                       
70020111  HwiP_undefined_handler_c                    
70020131  HwiP_user_undefined_handler_c               
70020151  HwiP_svc_handler                            
70020191  HwiP_prefetch_abort_handler_c               
70020231  HwiP_user_prefetch_abort_handler_c          
70020271  HwiP_data_abort_handler_c                   
70020331  HwiP_user_data_abort_handler_c              
7002036c  HwiP_irq_handler                            
700203e0  HwiP_data_abort_handler                     
70020424  HwiP_prefetch_abort_handler                 
70020470  HwiP_undefined_handler                      
700204a0  GET_DFSR                                    
700204a8  GET_ADFSR                                   
700204b0  GET_DFAR                                    
700204b8  GET_IFSR                                    
700204c0  GET_AIFSR                                   
700204c8  GET_IFAR                                    
700204d0  GET_SPSR                                    
700204e8  HwiP_disable                                
700204f8  HwiP_disableFIQ                             
70020508  HwiP_enable                                 
70020518  HwiP_enableFIQ                              
70020528  HwiP_restore                                
70020530  HwiP_enableVIC                              
70020540  HwiP_disableVIC                             
70020550  HwiP_getCPSR                                
70020560  CacheP_disableL1d                           
70020588  CacheP_disableL1p                           
700205a0  CacheP_enableL1d                            
700205b8  CacheP_enableL1p                            
700205d0  CacheP_invL1d                               
70020608  CacheP_invL1p                               
70020644  CacheP_invL1dAll                            
7002064c  CacheP_invL1pAll                            
70020654  CacheP_wb                                   
70020690  CacheP_wbInv                                
700206cc  CacheP_wbAll                                
70020774  CacheP_wbInvAll                             
7002078c  CacheP_wbInvAllAsm                          
7002082c  CacheP_getEnabled                           
70020864  CacheP_getCacheLevelInfo                    
70020870  CacheP_configForceWrThru                    
70020890  CacheP_setDLFO                              
700208a1  CacheP_init                                 
70020931  CacheP_disable                              
70020981  CacheP_enable                               
700209c1  CacheP_inv                                  
70020a01  MpuP_getAttrs                               
70020a61  MpuP_RegionAttrs_init                       
70020a91  MpuP_setRegion                              
70020b21  MpuP_isEnable                               
70020b31  MpuP_disable                                
70020b71  MpuP_enable                                 
70020bc1  MpuP_init                                   
70020c61  MpuP_isUserAuthorizedToAccessMemory         
70020d40  MpuP_disableAsm                             
70020d58  MpuP_disableBRAsm                           
70020d68  MpuP_enableAsm                              
70020d80  MpuP_enableBRAsm                            
70020d90  MpuP_isEnableAsm                            
70020da4  MpuP_setRegionAsm                           
70020dc0  _c_int00_sbl                                
70020de4  _c_int00                                    
70020f11  _DebugP_assertNoLog                         
70020f41  _system_pre_init                            
70020f71  __mpu_init                                  
70020f80  _ftable                                     
70020f80  gUartDmaHandle                              
70021228  gFlashDevCfg_IS25LX256                      
700213ac  _device                                     
70021424  gAddrTranslateInfo                          
70021494  gSIPC_InterruptConfig                       
700214f8  gUartParams                                 
70021550  _stream                                     
700215a0  gSIPC_HsmMboxConfig                         
700215f0  gSIPC_SecureHostMboxConfig                  
70021640  gCANMsgsList                                
70021688  gSocModulesClockFrequency                   
700216c4  gFlashAttrs_IS25LX256                       
700216fc  gCoreBootInfo                               
7002172c  gBootloaderConfig                           
70021758  gFlashNorOspiFxns                           
7002177c  gFlashToSpiProtocolMap                      
700217a0  gMcanBitTimingDefaultParams                 
700217d8  gBootloaderFlashFxns                        
700217f0  gClockConfig                                
70021838  gFlashConfig                                
70021998  gResMemSection                              
700219ac  gSocModules                                 
700219d4  gBootloader0Args                            
700219e4  gOspiDmaEdmaFxns                            
700219f4  gAddrTranslateConfig                        
70021a00  gI2cParams                                  
70021a0c  gOspiDmaConfig                              
70021a18  __TI_cleanup_ptr                            
70021a1c  __TI_dtors_ptr                              
70021a20  gEdmaConfig                                 
70021a28  gEdmaParams                                 
70021a30  gFlashParams                                
70021a38  gI2cConfig                                  
70021a40  gOspiConfig                                 
70021a48  gSIPC_QueHsmToSecureHost                    
70021a50  gSIPC_QueSecureHostToHsm                    
70021a60  gUartConfig                                 
70021a68  operatingMode                               
70021a78  __TI_ft_end                                 
70021a7c  _lock                                       
70021a80  _unlock                                     
70021a88  gBootloaderConfigNum                        
70021a8c  gDebugLogZone                               
70021a90  gDebugP_uartDrvIndex                        
70021a94  gEdmaConfigNum                              
70021a98  gFlashConfigNum                             
70021a9c  gHsmRtDownloadComplete                      
70021aa0  gHsmrtLoadStatus                            
70021aa4  gHwiConfig                                  
70021aa8  gI2cConfigNum                               
70021abc  gOspiConfigNum                              
70021ac0  gOspiDmaConfigNum                           
70021ac4  gOspiParams                                 
70021ac8  gR5ss0Core1ImagePresent                     
70021acc  gR5ss0MemInitDone                           
70021ad0  gR5ss1Core1ImagePresent                     
70021ad4  gR5ss1MemInitDone                           
70021ad8  gR5ss1PORDone                               
70021ae0  gStreamId                                   
70021ae4  gUartConfigNum                              
70021ae8  gUartDmaChConfig                            
70021af0  ptrMSSCtrlRegs                              
70021af4  ptrTopCtrlRegs                              
70021af8  vec_size                                    
70021afc  vector_table_loc                            
70021b00  isMapAvailable                              
70021b08  gCacheConfig                                
70021b10  gMpuConfig                                  
70021b1c  gMpuRegionConfig                            
70021c20  gADPLLJConfigTbl                            
70022334  I2C_defaultTransaction                      
7002263d  gCR5ClkSrcInfoMap                           
700229c8  I2C_lld_defaultMessage                      
700229e0  gPeripheralClkSrcInfoMap                    
70022e7c  gPLLFreqId2FOutMap                          
70022f84  gXTALInfo                                   
70022ffc  gCacheL1dCacheLineSize                      
70023000  gCacheL1pCacheLineSize                      
70023080  __BSS_START                                 
70023080  gPHTBuffer                                  
70031100  gUniflashVerifyBuf                          
70039100  gX509Cert                                   
7003a100  gHwiCtrl                                    
7003a910  gQueue_HsmToSecureHost                      
7003ac50  gQueue_SecureHostToHsm                      
7003af90  gHsmClientMsgQueue                          
7003b2d0  gHSMClient                                  
7003b300  vec_addrs                                   
7003b600  gNoteSegBuffer                              
7003b880  gSecureBootStreamArray                      
7003bdb4  _CIOBUF_                                    
7003bdb4  __CIOBUF_                                   
7003bed4  gProfileObj                                 
7003c184  __TI_tmpnams                                
7003c224  gSIPC_ctrl                                  
7003c268  gFlashObject_IS25LX256                      
7003c27c  gEdmaHandle                                 
7003c280  gElfHBuffer                                 
7003c300  grxMsg                                      
7003c368  gtxMsg                                      
7003c3cc  gOspiEdmaArgs                               
7003c428  gClockCtrl                                  
7003c448  virtToPhymap                                
7003c458  parmbuf                                     
7003c460  gFlashHandle                                
7003c464  gI2cHandle                                  
7003c468  gMcanBaseAddr                               
7003c46c  gOspiHandle                                 
7003c470  gRunApp                                     
7003c474  gUartHandle                                 
7003c478  __BSS_END                                   
7003c478  __stack                                     
7003e478  __STACK_END                                 
7003e478  _sys_memory                                 
70040478  __IRQ_STACK_START                           
70040578  __FIQ_STACK_START                           
70040578  __IRQ_STACK_END                             
70040678  __FIQ_STACK_END                             
70040678  __SVC_STACK_START                           
70041678  __ABORT_STACK_START                         
70041678  __SVC_STACK_END                             
70041778  __ABORT_STACK_END                           
70041778  __UNDEFINED_STACK_START                     
70041878  __UNDEFINED_STACK_END                       
70050000  gHsmRtFw                                    
70090000  gUniflashFileBuf                            
ffffffff  __TI_pprof_out_hndl                         
ffffffff  __TI_prof_data_size                         
ffffffff  __TI_prof_data_start                        
ffffffff  __binit__                                   
ffffffff  binit                                       
UNDEFED   __TI_CINIT_Base                             
UNDEFED   __TI_CINIT_Limit                            
UNDEFED   __TI_Handler_Table_Base                     
UNDEFED   __TI_Handler_Table_Limit                    
UNDEFED   _system_post_cinit                          

[753 symbols]
